TN:
SF:/usr/share/miniconda/envs/moose/x86_64-conda-linux-gnu/include/c++/10.3.0/bits/unique_ptr.h
FN:355,_ZNSt10unique_ptrINSt13__future_base12_Result_baseENS1_8_DeleterEED2Ev
FNDA:0,_ZNSt10unique_ptrINSt13__future_base12_Result_baseENS1_8_DeleterEED2Ev
FNF:1
FNH:0
DA:355,0
DA:360,0
DA:363,0
LF:3
LH:0
end_of_record
SF:/usr/share/miniconda/envs/moose/libmesh/include/libmesh/parameters.h
FN:132,_ZN7libMesh10Parameters14set_attributesERKNSt7__cxx1112basic_stringIcSt11char_traitsIcESaIcEEEb
FNDA:1124,_ZN7libMesh10Parameters14set_attributesERKNSt7__cxx1112basic_stringIcSt11char_traitsIcESaIcEEEb
FN:316,_ZN7libMesh10Parameters5clearEv
FNDA:0,_ZN7libMesh10Parameters5clearEv
FN:332,_ZN7libMesh10ParametersaSERKS0_
FNDA:0,_ZN7libMesh10ParametersaSERKS0_
FN:341,_ZN7libMesh10ParameterspLERKS0_
FNDA:0,_ZN7libMesh10ParameterspLERKS0_
FN:362,_ZN7libMesh10ParametersD0Ev
FNDA:0,_ZN7libMesh10ParametersD0Ev
FN:362,_ZN7libMesh10ParametersD2Ev
FNDA:0,_ZN7libMesh10ParametersD2Ev
FNF:6
FNH:1
DA:132,1124
DA:316,0
DA:318,0
DA:322,0
DA:323,0
DA:325,0
DA:327,0
DA:332,0
DA:334,0
DA:335,0
DA:337,0
DA:341,0
DA:343,0
DA:345,0
DA:346,0
DA:347,0
DA:350,0
DA:362,0
DA:365,0
DA:362,0
DA:364,0
DA:365,0
LF:22
LH:1
end_of_record
SF:/usr/share/miniconda/envs/moose/x86_64-conda-linux-gnu/include/c++/10.3.0/bits/alloc_traits.h
DA:492,0
LF:1
LH:0
end_of_record
SF:/usr/share/miniconda/envs/moose/x86_64-conda-linux-gnu/include/c++/10.3.0/bits/stl_map.h
FN:492,_ZNSt3mapINSt7__cxx1112basic_stringIcSt11char_traitsIcESaIcEEEPN7libMesh10Parameters5ValueESt4lessIvESaISt4pairIKS5_S9_EEEixERSD_
FNDA:0,_ZNSt3mapINSt7__cxx1112basic_stringIcSt11char_traitsIcESaIcEEEPN7libMesh10Parameters5ValueESt4lessIvESaISt4pairIKS5_S9_EEEixERSD_
FN:1258,_ZNSt3mapINSt7__cxx1112basic_stringIcSt11char_traitsIcESaIcEEEPN7libMesh10Parameters5ValueESt4lessIvESaISt4pairIKS5_S9_EEE11lower_boundERSD_
FNDA:0,_ZNSt3mapINSt7__cxx1112basic_stringIcSt11char_traitsIcESaIcEEEPN7libMesh10Parameters5ValueESt4lessIvESaISt4pairIKS5_S9_EEE11lower_boundERSD_
FNF:2
FNH:0
DA:302,0
DA:492,0
DA:497,0
DA:499,0
DA:501,0
DA:502,0
DA:503,0
DA:507,0
DA:1038,0
DA:1170,0
DA:1258,0
DA:1259,0
LF:12
LH:0
end_of_record
SF:/usr/share/miniconda/envs/moose/x86_64-conda-linux-gnu/include/c++/10.3.0/tuple
DA:129,0
DA:130,0
DA:166,0
DA:1689,0
DA:1693,0
LF:5
LH:0
end_of_record
SF:/home/runner/work/raccoon/raccoon/moose/framework/build/header_symlinks/MooseTypes.h
LF:0
LH:0
end_of_record
SF:/usr/share/miniconda/envs/moose/libmesh/include/timpi/message_tag.h
LF:0
LH:0
end_of_record
SF:/home/runner/work/raccoon/raccoon/src/main.C
FN:16,main
FNDA:37,main
FNF:1
FNH:1
DA:16,37
DA:19,37
DA:22,37
DA:25,74
DA:28,37
LF:5
LH:5
end_of_record
SF:/home/runner/work/raccoon/raccoon/moose/framework/contrib/hit/parse.h
LF:0
LH:0
end_of_record
SF:/usr/share/miniconda/envs/moose/x86_64-conda-linux-gnu/include/c++/10.3.0/ext/new_allocator.h
DA:115,0
DA:133,0
DA:156,0
LF:3
LH:0
end_of_record
SF:/usr/share/miniconda/envs/moose/x86_64-conda-linux-gnu/include/c++/10.3.0/bits/stl_iterator_base_funcs.h
DA:104,111
LF:1
LH:1
end_of_record
SF:/usr/share/miniconda/envs/moose/x86_64-conda-linux-gnu/include/c++/10.3.0/ext/aligned_buffer.h
DA:104,0
LF:1
LH:0
end_of_record
SF:/usr/share/miniconda/envs/moose/x86_64-conda-linux-gnu/include/c++/10.3.0/bits/shared_ptr_base.h
FN:134,_ZNSt16_Sp_counted_baseILN9__gnu_cxx12_Lock_policyE2EE10_M_destroyEv
FNDA:0,_ZNSt16_Sp_counted_baseILN9__gnu_cxx12_Lock_policyE2EE10_M_destroyEv
FN:151,_ZNSt16_Sp_counted_baseILN9__gnu_cxx12_Lock_policyE2EE10_M_releaseEv
FNDA:37,_ZNSt16_Sp_counted_baseILN9__gnu_cxx12_Lock_policyE2EE10_M_releaseEv
FN:407,_ZNSt15_Sp_counted_ptrIDnLN9__gnu_cxx12_Lock_policyE2EE10_M_disposeEv
FNDA:0,_ZNSt15_Sp_counted_ptrIDnLN9__gnu_cxx12_Lock_policyE2EE10_M_disposeEv
FN:555,_ZNSt23_Sp_counted_ptr_inplaceISt5mutexSaIS0_ELN9__gnu_cxx12_Lock_policyE2EED0Ev
FNDA:0,_ZNSt23_Sp_counted_ptr_inplaceISt5mutexSaIS0_ELN9__gnu_cxx12_Lock_policyE2EED0Ev
FN:555,_ZNSt23_Sp_counted_ptr_inplaceISt5mutexSaIS0_ELN9__gnu_cxx12_Lock_policyE2EED2Ev
FNDA:0,_ZNSt23_Sp_counted_ptr_inplaceISt5mutexSaIS0_ELN9__gnu_cxx12_Lock_policyE2EED2Ev
FN:555,_ZNSt23_Sp_counted_ptr_inplaceINSt13__future_base13_State_baseV2ESaIS1_ELN9__gnu_cxx12_Lock_policyE2EED0Ev
FNDA:0,_ZNSt23_Sp_counted_ptr_inplaceINSt13__future_base13_State_baseV2ESaIS1_ELN9__gnu_cxx12_Lock_policyE2EED0Ev
FN:555,_ZNSt23_Sp_counted_ptr_inplaceINSt13__future_base13_State_baseV2ESaIS1_ELN9__gnu_cxx12_Lock_policyE2EED2Ev
FNDA:0,_ZNSt23_Sp_counted_ptr_inplaceINSt13__future_base13_State_baseV2ESaIS1_ELN9__gnu_cxx12_Lock_policyE2EED2Ev
FN:558,_ZNSt23_Sp_counted_ptr_inplaceISt5mutexSaIS0_ELN9__gnu_cxx12_Lock_policyE2EE10_M_disposeEv
FNDA:0,_ZNSt23_Sp_counted_ptr_inplaceISt5mutexSaIS0_ELN9__gnu_cxx12_Lock_policyE2EE10_M_disposeEv
FN:558,_ZNSt23_Sp_counted_ptr_inplaceINSt13__future_base13_State_baseV2ESaIS1_ELN9__gnu_cxx12_Lock_policyE2EE10_M_disposeEv
FNDA:0,_ZNSt23_Sp_counted_ptr_inplaceINSt13__future_base13_State_baseV2ESaIS1_ELN9__gnu_cxx12_Lock_policyE2EE10_M_disposeEv
FN:565,_ZNSt23_Sp_counted_ptr_inplaceISt5mutexSaIS0_ELN9__gnu_cxx12_Lock_policyE2EE10_M_destroyEv
FNDA:0,_ZNSt23_Sp_counted_ptr_inplaceISt5mutexSaIS0_ELN9__gnu_cxx12_Lock_policyE2EE10_M_destroyEv
FN:565,_ZNSt23_Sp_counted_ptr_inplaceINSt13__future_base13_State_baseV2ESaIS1_ELN9__gnu_cxx12_Lock_policyE2EE10_M_destroyEv
FNDA:0,_ZNSt23_Sp_counted_ptr_inplaceINSt13__future_base13_State_baseV2ESaIS1_ELN9__gnu_cxx12_Lock_policyE2EE10_M_destroyEv
FNF:11
FNH:1
DA:134,0
DA:135,0
DA:151,37
DA:155,74
DA:158,37
DA:170,74
DA:174,37
DA:177,37
DA:407,0
DA:555,0
DA:555,0
DA:555,0
DA:555,0
DA:555,0
DA:558,0
DA:561,0
DA:558,0
DA:561,0
DA:565,0
DA:568,0
DA:570,0
DA:565,0
DA:568,0
DA:570,0
DA:732,37
DA:733,37
DA:1325,37
LF:27
LH:9
end_of_record
SF:/usr/share/miniconda/envs/moose/x86_64-conda-linux-gnu/include/c++/10.3.0/bits/shared_ptr.h
DA:121,37
LF:1
LH:1
end_of_record
SF:/usr/share/miniconda/envs/moose/x86_64-conda-linux-gnu/include/c++/10.3.0/ext/atomicity.h
DA:50,74
DA:68,0
DA:69,0
DA:83,74
DA:84,74
DA:86,0
LF:6
LH:3
end_of_record
SF:/usr/share/miniconda/envs/moose/x86_64-conda-linux-gnu/include/c++/10.3.0/iostream
LF:0
LH:0
end_of_record
SF:/usr/share/miniconda/envs/moose/x86_64-conda-linux-gnu/include/c++/10.3.0/bits/allocated_ptr.h
FN:70,_ZNSt15__allocated_ptrISaISt23_Sp_counted_ptr_inplaceINSt13__future_base13_State_baseV2ESaIS2_ELN9__gnu_cxx12_Lock_policyE2EEEED2Ev
FNDA:0,_ZNSt15__allocated_ptrISaISt23_Sp_counted_ptr_inplaceINSt13__future_base13_State_baseV2ESaIS2_ELN9__gnu_cxx12_Lock_policyE2EEEED2Ev
FN:70,_ZNSt15__allocated_ptrISaISt23_Sp_counted_ptr_inplaceISt5mutexSaIS1_ELN9__gnu_cxx12_Lock_policyE2EEEED2Ev
FNDA:0,_ZNSt15__allocated_ptrISaISt23_Sp_counted_ptr_inplaceISt5mutexSaIS1_ELN9__gnu_cxx12_Lock_policyE2EEEED2Ev
FNF:2
FNH:0
DA:52,0
DA:53,0
DA:70,0
DA:72,0
DA:74,0
DA:70,0
DA:72,0
DA:74,0
LF:8
LH:0
end_of_record
SF:/usr/share/miniconda/envs/moose/x86_64-conda-linux-gnu/include/c++/10.3.0/bits/stl_function.h
DA:1156,14900100
LF:1
LH:1
end_of_record
SF:/usr/share/miniconda/envs/moose/x86_64-conda-linux-gnu/include/c++/10.3.0/bits/stl_set.h
FN:281,_ZNSt3setIsSt4lessIsESaIsEED2Ev
FNDA:37,_ZNSt3setIsSt4lessIsESaIsEED2Ev
FN:281,_ZNSt3setItSt4lessItESaItEED2Ev
FNDA:37,_ZNSt3setItSt4lessItESaItEED2Ev
FNF:2
FNH:2
DA:281,37
DA:281,37
LF:2
LH:2
end_of_record
SF:/usr/share/miniconda/envs/moose/x86_64-conda-linux-gnu/include/c++/10.3.0/bits/basic_string.h
FN:525,_ZNSt7__cxx1112basic_stringIcSt11char_traitsIcESaIcEEC2IS3_EEPKcRKS3_
FNDA:111,_ZNSt7__cxx1112basic_stringIcSt11char_traitsIcESaIcEEC2IS3_EEPKcRKS3_
FNF:1
FNH:1
DA:156,111
DA:157,111
DA:179,0
DA:183,111
DA:187,222
DA:193,111
DA:211,0
DA:217,111
DA:247,111
DA:393,0
DA:398,111
DA:525,111
DA:527,111
DA:658,37
DA:6280,14900100
LF:15
LH:12
end_of_record
SF:/home/runner/work/raccoon/raccoon/moose/framework/build/header_symlinks/MooseInit.h
FN:27,_ZN9MooseInitD0Ev
FNDA:0,_ZN9MooseInitD0Ev
FN:27,_ZN9MooseInitD2Ev
FNDA:0,_ZN9MooseInitD2Ev
FNF:2
FNH:0
DA:27,0
DA:27,0
DA:27,37
LF:3
LH:1
end_of_record
SF:/usr/share/miniconda/envs/moose/x86_64-conda-linux-gnu/include/c++/10.3.0/future
FN:328,_ZNSt13__future_base13_State_baseV2D0Ev
FNDA:0,_ZNSt13__future_base13_State_baseV2D0Ev
FN:328,_ZNSt13__future_base13_State_baseV2D2Ev
FNDA:0,_ZNSt13__future_base13_State_baseV2D2Ev
FN:581,_ZNSt13__future_base13_State_baseV217_M_complete_asyncEv
FNDA:0,_ZNSt13__future_base13_State_baseV217_M_complete_asyncEv
FN:584,_ZNKSt13__future_base13_State_baseV221_M_is_deferred_futureEv
FNDA:0,_ZNKSt13__future_base13_State_baseV221_M_is_deferred_futureEv
FN:663,_ZNSt13__future_base7_ResultIvE10_M_destroyEv
FNDA:0,_ZNSt13__future_base7_ResultIvE10_M_destroyEv
FNF:5
FNH:0
DA:213,0
DA:328,0
DA:328,0
DA:581,0
DA:584,0
DA:663,0
LF:6
LH:0
end_of_record
SF:/usr/share/miniconda/envs/moose/x86_64-conda-linux-gnu/include/c++/10.3.0/bits/char_traits.h
DA:329,111
DA:371,111
LF:2
LH:2
end_of_record
SF:/home/runner/work/raccoon/raccoon/moose/framework/build/header_symlinks/MooseError.h
LF:0
LH:0
end_of_record
SF:/usr/share/miniconda/envs/moose/libmesh/include/libmesh/threads_pthread.h
FN:147,_ZN7libMesh7Threads10spin_mutexD2Ev
FNDA:0,_ZN7libMesh7Threads10spin_mutexD2Ev
FNF:1
FNH:0
DA:147,0
LF:1
LH:0
end_of_record
SF:/usr/share/miniconda/envs/moose/x86_64-conda-linux-gnu/include/c++/10.3.0/bits/stl_tree.h
FN:613,_ZNSt8_Rb_treeINSt7__cxx1112basic_stringIcSt11char_traitsIcESaIcEEESt4pairIKS5_PN7libMesh10Parameters5ValueEESt10_Select1stISC_ESt4lessIvESaISC_EE17_M_construct_nodeIJRKSt21piecewise_construct_tSt5tupleIJRS7_EESN_IJEEEEEvPSt13_Rb_tree_nodeISC_EDpOT_
FNDA:0,_ZNSt8_Rb_treeINSt7__cxx1112basic_stringIcSt11char_traitsIcESaIcEEESt4pairIKS5_PN7libMesh10Parameters5ValueEESt10_Select1stISC_ESt4lessIvESaISC_EE17_M_construct_nodeIJRKSt21piecewise_construct_tSt5tupleIJRS7_EESN_IJEEEEEvPSt13_Rb_tree_nodeISC_EDpOT_
FN:632,_ZNSt8_Rb_treeINSt7__cxx1112basic_stringIcSt11char_traitsIcESaIcEEESt4pairIKS5_PN7libMesh10Parameters5ValueEESt10_Select1stISC_ESt4lessIvESaISC_EE14_M_create_nodeIJRKSt21piecewise_construct_tSt5tupleIJRS7_EESN_IJEEEEEPSt13_Rb_tree_nodeISC_EDpOT_
FNDA:0,_ZNSt8_Rb_treeINSt7__cxx1112basic_stringIcSt11char_traitsIcESaIcEEESt4pairIKS5_PN7libMesh10Parameters5ValueEESt10_Select1stISC_ESt4lessIvESaISC_EE14_M_create_nodeIJRKSt21piecewise_construct_tSt5tupleIJRS7_EESN_IJEEEEEPSt13_Rb_tree_nodeISC_EDpOT_
FN:1211,_ZNSt8_Rb_treeINSt7__cxx1112basic_stringIcSt11char_traitsIcESaIcEEESt4pairIKS5_PN7libMesh10Parameters5ValueEESt10_Select1stISC_ESt4lessIvESaISC_EE5eraseB5cxx11ESt17_Rb_tree_iteratorISC_E
FNDA:0,_ZNSt8_Rb_treeINSt7__cxx1112basic_stringIcSt11char_traitsIcESaIcEEESt4pairIKS5_PN7libMesh10Parameters5ValueEESt10_Select1stISC_ESt4lessIvESaISC_EE5eraseB5cxx11ESt17_Rb_tree_iteratorISC_E
FN:1913,_ZNSt8_Rb_treeIssSt9_IdentityIsESt4lessIsESaIsEE8_M_eraseEPSt13_Rb_tree_nodeIsE
FNDA:37,_ZNSt8_Rb_treeIssSt9_IdentityIsESt4lessIsESaIsEE8_M_eraseEPSt13_Rb_tree_nodeIsE
FN:1913,_ZNSt8_Rb_treeIttSt9_IdentityItESt4lessItESaItEE8_M_eraseEPSt13_Rb_tree_nodeItE
FNDA:37,_ZNSt8_Rb_treeIttSt9_IdentityItESt4lessItESaItEE8_M_eraseEPSt13_Rb_tree_nodeItE
FN:1913,_ZNSt8_Rb_treeINSt7__cxx1112basic_stringIcSt11char_traitsIcESaIcEEESt4pairIKS5_PN7libMesh10Parameters5ValueEESt10_Select1stISC_ESt4lessIvESaISC_EE8_M_eraseEPSt13_Rb_tree_nodeISC_E
FNDA:0,_ZNSt8_Rb_treeINSt7__cxx1112basic_stringIcSt11char_traitsIcESaIcEEESt4pairIKS5_PN7libMesh10Parameters5ValueEESt10_Select1stISC_ESt4lessIvESaISC_EE8_M_eraseEPSt13_Rb_tree_nodeISC_E
FN:1930,_ZNSt8_Rb_treeINSt7__cxx1112basic_stringIcSt11char_traitsIcESaIcEEESt4pairIKS5_PN7libMesh10Parameters5ValueEESt10_Select1stISC_ESt4lessIvESaISC_EE14_M_lower_boundEPSt13_Rb_tree_nodeISC_EPSt18_Rb_tree_node_baseRS7_
FNDA:0,_ZNSt8_Rb_treeINSt7__cxx1112basic_stringIcSt11char_traitsIcESaIcEEESt4pairIKS5_PN7libMesh10Parameters5ValueEESt10_Select1stISC_ESt4lessIvESaISC_EE14_M_lower_boundEPSt13_Rb_tree_nodeISC_EPSt18_Rb_tree_node_baseRS7_
FN:2091,_ZNSt8_Rb_treeINSt7__cxx1112basic_stringIcSt11char_traitsIcESaIcEEESt4pairIKS5_PN7libMesh10Parameters5ValueEESt10_Select1stISC_ESt4lessIvESaISC_EE24_M_get_insert_unique_posERS7_
FNDA:1236070,_ZNSt8_Rb_treeINSt7__cxx1112basic_stringIcSt11char_traitsIcESaIcEEESt4pairIKS5_PN7libMesh10Parameters5ValueEESt10_Select1stISC_ESt4lessIvESaISC_EE24_M_get_insert_unique_posERS7_
FN:2193,_ZNSt8_Rb_treeINSt7__cxx1112basic_stringIcSt11char_traitsIcESaIcEEESt4pairIKS5_PN7libMesh10Parameters5ValueEESt10_Select1stISC_ESt4lessIvESaISC_EE29_M_get_insert_hint_unique_posESt23_Rb_tree_const_iteratorISC_ERS7_
FNDA:10362800,_ZNSt8_Rb_treeINSt7__cxx1112basic_stringIcSt11char_traitsIcESaIcEEESt4pairIKS5_PN7libMesh10Parameters5ValueEESt10_Select1stISC_ESt4lessIvESaISC_EE29_M_get_insert_hint_unique_posESt23_Rb_tree_const_iteratorISC_ERS7_
FN:2360,_ZNSt8_Rb_treeINSt7__cxx1112basic_stringIcSt11char_traitsIcESaIcEEESt4pairIKS5_PN7libMesh10Parameters5ValueEESt10_Select1stISC_ESt4lessIvESaISC_EE14_M_insert_nodeEPSt18_Rb_tree_node_baseSK_PSt13_Rb_tree_nodeISC_E
FNDA:0,_ZNSt8_Rb_treeINSt7__cxx1112basic_stringIcSt11char_traitsIcESaIcEEESt4pairIKS5_PN7libMesh10Parameters5ValueEESt10_Select1stISC_ESt4lessIvESaISC_EE14_M_insert_nodeEPSt18_Rb_tree_node_baseSK_PSt13_Rb_tree_nodeISC_E
FN:2458,_ZNSt8_Rb_treeINSt7__cxx1112basic_stringIcSt11char_traitsIcESaIcEEESt4pairIKS5_PN7libMesh10Parameters5ValueEESt10_Select1stISC_ESt4lessIvESaISC_EE22_M_emplace_hint_uniqueIJRKSt21piecewise_construct_tSt5tupleIJRS7_EESN_IJEEEEESt17_Rb_tree_iteratorISC_ESt23_Rb_tree_const_iteratorISC_EDpOT_
FNDA:0,_ZNSt8_Rb_treeINSt7__cxx1112basic_stringIcSt11char_traitsIcESaIcEEESt4pairIKS5_PN7libMesh10Parameters5ValueEESt10_Select1stISC_ESt4lessIvESaISC_EE22_M_emplace_hint_uniqueIJRKSt21piecewise_construct_tSt5tupleIJRS7_EESN_IJEEEEESt17_Rb_tree_iteratorISC_ESt23_Rb_tree_const_iteratorISC_EDpOT_
FN:2510,_ZNSt8_Rb_treeINSt7__cxx1112basic_stringIcSt11char_traitsIcESaIcEEESt4pairIKS5_PN7libMesh10Parameters5ValueEESt10_Select1stISC_ESt4lessIvESaISC_EE12_M_erase_auxESt23_Rb_tree_const_iteratorISC_E
FNDA:0,_ZNSt8_Rb_treeINSt7__cxx1112basic_stringIcSt11char_traitsIcESaIcEEESt4pairIKS5_PN7libMesh10Parameters5ValueEESt10_Select1stISC_ESt4lessIvESaISC_EE12_M_erase_auxESt23_Rb_tree_const_iteratorISC_E
FN:2550,_ZNSt8_Rb_treeINSt7__cxx1112basic_stringIcSt11char_traitsIcESaIcEEESt4pairIKS5_PN7libMesh10Parameters5ValueEESt10_Select1stISC_ESt4lessIvESaISC_EE4findERS7_
FNDA:0,_ZNSt8_Rb_treeINSt7__cxx1112basic_stringIcSt11char_traitsIcESaIcEEESt4pairIKS5_PN7libMesh10Parameters5ValueEESt10_Select1stISC_ESt4lessIvESaISC_EE4findERS7_
FNF:13
FNH:4
DA:287,0
DA:302,5773330
DA:303,0
DA:350,0
DA:351,0
DA:355,10362800
DA:368,0
DA:369,0
DA:613,0
DA:622,0
DA:624,0
DA:626,0
DA:628,0
DA:632,0
DA:635,0
DA:636,0
DA:647,0
DA:749,1236140
DA:760,11598900
DA:790,0
DA:798,0
DA:991,74
DA:1003,0
DA:1007,0
DA:1011,0
DA:1015,0
DA:1035,0
DA:1039,2612400
DA:1211,0
DA:1214,0
DA:1216,0
DA:1217,0
DA:1277,0
DA:1913,37
DA:1917,37
DA:1919,0
DA:1924,37
DA:1913,37
DA:1917,37
DA:1919,0
DA:1924,37
DA:1913,0
DA:1917,0
DA:1919,0
DA:1924,0
DA:1930,0
DA:1934,0
DA:1935,0
DA:1939,0
DA:2091,1236070
DA:2098,1236070
DA:2102,0
DA:2105,1236070
DA:2107,1236070
DA:2108,1236070
DA:2112,0
DA:2113,0
DA:2114,0
DA:2193,10362800
DA:2201,10362800
DA:2204,2612400
DA:2205,1376330
DA:2207,1236070
DA:2209,7750430
DA:2213,7750430
DA:2214,1977110
DA:2215,5773330
DA:2217,5773330
DA:2218,3493150
DA:2220,2280180
DA:2223,0
DA:2225,0
DA:2229,0
DA:2230,0
DA:2231,0
DA:2233,0
DA:2234,0
DA:2236,0
DA:2239,0
DA:2243,0
DA:2360,0
DA:2363,0
DA:2364,0
DA:2367,0
DA:2368,0
DA:2369,0
DA:2370,0
DA:2458,0
DA:2461,0
DA:2465,0
DA:2467,0
DA:2468,0
DA:2471,0
DA:2510,0
DA:2515,0
DA:2516,0
DA:2518,0
DA:2519,0
DA:2550,0
DA:2553,0
DA:2555,0
DA:2556,0
LF:102
LH:29
end_of_record
SF:/usr/share/miniconda/envs/moose/x86_64-conda-linux-gnu/include/c++/10.3.0/bits/stl_pair.h
DA:211,0
LF:1
LH:0
end_of_record
SF:/usr/share/miniconda/envs/moose/x86_64-conda-linux-gnu/include/c++/10.3.0/bits/basic_string.tcc
FN:206,_ZNSt7__cxx1112basic_stringIcSt11char_traitsIcESaIcEE12_M_constructIPcEEvT_S7_St20forward_iterator_tag
FNDA:0,_ZNSt7__cxx1112basic_stringIcSt11char_traitsIcESaIcEE12_M_constructIPcEEvT_S7_St20forward_iterator_tag
FN:206,_ZNSt7__cxx1112basic_stringIcSt11char_traitsIcESaIcEE12_M_constructIPKcEEvT_S8_St20forward_iterator_tag
FNDA:111,_ZNSt7__cxx1112basic_stringIcSt11char_traitsIcESaIcEE12_M_constructIPKcEEvT_S8_St20forward_iterator_tag
FNF:2
FNH:1
DA:206,0
DA:211,0
DA:212,0
DA:215,0
DA:217,0
DA:219,0
DA:220,0
DA:232,0
DA:233,0
DA:206,111
DA:211,111
DA:212,0
DA:215,111
DA:217,111
DA:219,0
DA:220,0
DA:232,111
DA:233,111
LF:18
LH:6
end_of_record
TN:
SF:/usr/share/miniconda/envs/moose/x86_64-conda-linux-gnu/include/c++/10.3.0/ext/new_allocator.h
FN:148,_ZN9__gnu_cxx13new_allocatorI10raccoonAppE9constructIS1_JRK15InputParametersEEEvPT_DpOT0_
FNDA:0,_ZN9__gnu_cxx13new_allocatorI10raccoonAppE9constructIS1_JRK15InputParametersEEEvPT_DpOT0_
FN:148,_ZN9__gnu_cxx13new_allocatorISt13_Rb_tree_nodeISt4pairIKNSt7__cxx1112basic_stringIcSt11char_traitsIcESaIcEEEN15InputParameters8MetadataEEEE9constructISC_JRKSt21piecewise_construct_tSt5tupleIJRS9_EESJ_IJEEEEEvPT_DpOT0_
FNDA:0,_ZN9__gnu_cxx13new_allocatorISt13_Rb_tree_nodeISt4pairIKNSt7__cxx1112basic_stringIcSt11char_traitsIcESaIcEEEN15InputParameters8MetadataEEEE9constructISC_JRKSt21piecewise_construct_tSt5tupleIJRS9_EESJ_IJEEEEEvPT_DpOT0_
FNF:2
FNH:0
DA:105,0
DA:106,0
DA:115,116
DA:133,116
DA:148,0
DA:150,0
DA:148,0
DA:150,0
DA:150,116
DA:156,0
LF:10
LH:3
end_of_record
SF:/home/runner/work/raccoon/raccoon/moose/framework/build/header_symlinks/MooseEnumItem.h
DA:24,0
LF:1
LH:0
end_of_record
SF:/home/runner/work/raccoon/raccoon/moose/framework/contrib/hit/parse.h
LF:0
LH:0
end_of_record
SF:/usr/share/miniconda/envs/moose/x86_64-conda-linux-gnu/include/c++/10.3.0/streambuf
LF:0
LH:0
end_of_record
SF:/usr/share/miniconda/envs/moose/x86_64-conda-linux-gnu/include/c++/10.3.0/string_view
FN:288,_ZNKSt17basic_string_viewIcSt11char_traitsIcEE7compareES2_
FNDA:0,_ZNKSt17basic_string_viewIcSt11char_traitsIcEE7compareES2_
FNF:1
FNH:0
DA:288,0
DA:290,0
DA:291,0
DA:292,0
DA:294,0
DA:461,0
DA:462,0
DA:464,0
DA:466,0
DA:550,0
DA:556,0
LF:11
LH:0
end_of_record
SF:/usr/share/miniconda/envs/moose/x86_64-conda-linux-gnu/include/c++/10.3.0/ext/aligned_buffer.h
DA:65,232
DA:69,0
DA:104,0
LF:3
LH:1
end_of_record
SF:/home/runner/work/raccoon/raccoon/moose/framework/build/header_symlinks/MooseApp.h
FN:104,_ZNK8MooseApp16getPrintableNameB5cxx11Ev
FNDA:0,_ZNK8MooseApp16getPrintableNameB5cxx11Ev
FN:106,_ZNK8MooseApp13appBinaryNameB5cxx11Ev
FNDA:0,_ZNK8MooseApp13appBinaryNameB5cxx11Ev
FN:897,_ZNK8MooseApp34errorOnJacobianNonzeroReallocationEv
FNDA:0,_ZNK8MooseApp34errorOnJacobianNonzeroReallocationEv
FNF:3
FNH:0
DA:104,0
DA:106,0
DA:108,0
DA:109,0
DA:110,0
DA:111,0
DA:112,0
DA:897,0
LF:8
LH:0
end_of_record
SF:/usr/share/miniconda/envs/moose/x86_64-conda-linux-gnu/include/c++/10.3.0/bits/stl_vector.h
FN:333,_ZNSt12_Vector_baseISt5tupleIJNSt7__cxx1112basic_stringIcSt11char_traitsIcESaIcEEEN5Moose23RelationshipManagerTypeESt8functionIFvRK15InputParametersRSA_EEEESaISG_EED2Ev
FNDA:0,_ZNSt12_Vector_baseISt5tupleIJNSt7__cxx1112basic_stringIcSt11char_traitsIcESaIcEEEN5Moose23RelationshipManagerTypeESt8functionIFvRK15InputParametersRSA_EEEESaISG_EED2Ev
FN:333,_ZNSt12_Vector_baseIdSaIdEED2Ev
FNDA:0,_ZNSt12_Vector_baseIdSaIdEED2Ev
FN:333,_ZNSt12_Vector_baseINSt7__cxx1112basic_stringIcSt11char_traitsIcESaIcEEESaIS5_EED2Ev
FNDA:0,_ZNSt12_Vector_baseINSt7__cxx1112basic_stringIcSt11char_traitsIcESaIcEEESaIS5_EED2Ev
FN:625,_ZNSt6vectorIdSaIdEEC2ESt16initializer_listIdERKS0_
FNDA:0,_ZNSt6vectorIdSaIdEEC2ESt16initializer_listIdERKS0_
FN:678,_ZNSt6vectorISt5tupleIJNSt7__cxx1112basic_stringIcSt11char_traitsIcESaIcEEEN5Moose23RelationshipManagerTypeESt8functionIFvRK15InputParametersRSA_EEEESaISG_EED2Ev
FNDA:0,_ZNSt6vectorISt5tupleIJNSt7__cxx1112basic_stringIcSt11char_traitsIcESaIcEEEN5Moose23RelationshipManagerTypeESt8functionIFvRK15InputParametersRSA_EEEESaISG_EED2Ev
FN:678,_ZNSt6vectorINSt7__cxx1112basic_stringIcSt11char_traitsIcESaIcEEESaIS5_EED2Ev
FNDA:0,_ZNSt6vectorINSt7__cxx1112basic_stringIcSt11char_traitsIcESaIcEEESaIS5_EED2Ev
FN:1577,_ZNSt6vectorIdSaIdEE19_M_range_initializeIPKdEEvT_S5_St20forward_iterator_tag
FNDA:0,_ZNSt6vectorIdSaIdEE19_M_range_initializeIPKdEEvT_S5_St20forward_iterator_tag
FNF:7
FNH:0
DA:97,0
DA:98,0
DA:277,0
DA:333,0
DA:336,0
DA:337,0
DA:333,0
DA:336,0
DA:337,0
DA:333,0
DA:336,0
DA:337,0
DA:346,0
DA:353,0
DA:625,0
DA:627,0
DA:629,0
DA:631,0
DA:678,0
DA:680,0
DA:683,0
DA:678,0
DA:680,0
DA:683,0
DA:1577,0
DA:1580,0
DA:1582,0
DA:1583,0
DA:1584,0
DA:1588,0
DA:1769,0
DA:1770,0
LF:32
LH:0
end_of_record
SF:/usr/share/miniconda/envs/moose/x86_64-conda-linux-gnu/include/c++/10.3.0/bits/alloc_traits.h
FN:459,_ZNSt16allocator_traitsISaIdEE8allocateERS0_m
FNDA:0,_ZNSt16allocator_traitsISaIdEE8allocateERS0_m
FNF:1
FNH:0
DA:459,0
DA:460,0
DA:492,0
DA:512,0
DA:516,116
LF:5
LH:1
end_of_record
SF:/home/runner/work/raccoon/raccoon/moose/framework/build/header_symlinks/MooseTypes.h
LF:0
LH:0
end_of_record
SF:/home/runner/work/raccoon/raccoon/moose/framework/build/header_symlinks/AppFactory.h
FN:130,_ZN10AppFactory8buildAppI10raccoonAppEESt10shared_ptrI8MooseAppERK15InputParameters
FNDA:0,_ZN10AppFactory8buildAppI10raccoonAppEESt10shared_ptrI8MooseAppERK15InputParameters
FN:138,_ZN10AppFactory3regI10raccoonAppEEvRKNSt7__cxx1112basic_stringIcSt11char_traitsIcESaIcEEE
FNDA:0,_ZN10AppFactory3regI10raccoonAppEEvRKNSt7__cxx1112basic_stringIcSt11char_traitsIcESaIcEEE
FNF:2
FNH:0
DA:106,0
DA:130,0
DA:132,0
DA:138,0
DA:140,0
DA:143,0
DA:144,0
LF:7
LH:0
end_of_record
SF:/usr/share/miniconda/envs/moose/x86_64-conda-linux-gnu/include/c++/10.3.0/tuple
FN:1689,_ZNSt4pairIKNSt7__cxx1112basic_stringIcSt11char_traitsIcESaIcEEEN15InputParameters8MetadataEEC2IJRS6_EJLm0EEJEJEEERSt5tupleIJDpT_EERSC_IJDpT1_EESt12_Index_tupleIJXspT0_EEESL_IJXspT2_EEE
FNDA:0,_ZNSt4pairIKNSt7__cxx1112basic_stringIcSt11char_traitsIcESaIcEEEN15InputParameters8MetadataEEC2IJRS6_EJLm0EEJEJEEERSt5tupleIJDpT_EERSC_IJDpT1_EESt12_Index_tupleIJXspT0_EEESL_IJXspT2_EEE
FNF:1
FNH:0
DA:124,0
DA:129,0
DA:130,0
DA:166,0
DA:520,0
DA:1677,0
DA:1682,0
DA:1689,0
DA:1693,0
DA:1694,0
LF:10
LH:0
end_of_record
SF:/usr/share/miniconda/envs/moose/x86_64-conda-linux-gnu/include/c++/10.3.0/bits/stl_map.h
FN:492,_ZNSt3mapINSt7__cxx1112basic_stringIcSt11char_traitsIcESaIcEEEPF15InputParametersvESt4lessIS5_ESaISt4pairIKS5_S8_EEEixERSC_
FNDA:0,_ZNSt3mapINSt7__cxx1112basic_stringIcSt11char_traitsIcESaIcEEEPF15InputParametersvESt4lessIS5_ESaISt4pairIKS5_S8_EEEixERSC_
FN:492,_ZNSt3mapINSt7__cxx1112basic_stringIcSt11char_traitsIcESaIcEEEPFSt10shared_ptrI8MooseAppERK15InputParametersESt4lessIS5_ESaISt4pairIKS5_SD_EEEixERSH_
FNDA:0,_ZNSt3mapINSt7__cxx1112basic_stringIcSt11char_traitsIcESaIcEEEPFSt10shared_ptrI8MooseAppERK15InputParametersESt4lessIS5_ESaISt4pairIKS5_SD_EEEixERSH_
FN:492,_ZNSt3mapINSt7__cxx1112basic_stringIcSt11char_traitsIcESaIcEEEN15InputParameters8MetadataESt4lessIS5_ESaISt4pairIKS5_S7_EEEixERSB_
FNDA:0,_ZNSt3mapINSt7__cxx1112basic_stringIcSt11char_traitsIcESaIcEEEN15InputParameters8MetadataESt4lessIS5_ESaISt4pairIKS5_S7_EEEixERSB_
FN:492,_ZNSt3mapINSt7__cxx1112basic_stringIcSt11char_traitsIcESaIcEEEPN7libMesh10Parameters5ValueESt4lessIvESaISt4pairIKS5_S9_EEEixERSD_
FNDA:0,_ZNSt3mapINSt7__cxx1112basic_stringIcSt11char_traitsIcESaIcEEEPN7libMesh10Parameters5ValueESt4lessIvESaISt4pairIKS5_S9_EEEixERSD_
FN:1258,_ZNSt3mapINSt7__cxx1112basic_stringIcSt11char_traitsIcESaIcEEEPF15InputParametersvESt4lessIS5_ESaISt4pairIKS5_S8_EEE11lower_boundERSC_
FNDA:0,_ZNSt3mapINSt7__cxx1112basic_stringIcSt11char_traitsIcESaIcEEEPF15InputParametersvESt4lessIS5_ESaISt4pairIKS5_S8_EEE11lower_boundERSC_
FN:1258,_ZNSt3mapINSt7__cxx1112basic_stringIcSt11char_traitsIcESaIcEEEPFSt10shared_ptrI8MooseAppERK15InputParametersESt4lessIS5_ESaISt4pairIKS5_SD_EEE11lower_boundERSH_
FNDA:0,_ZNSt3mapINSt7__cxx1112basic_stringIcSt11char_traitsIcESaIcEEEPFSt10shared_ptrI8MooseAppERK15InputParametersESt4lessIS5_ESaISt4pairIKS5_SD_EEE11lower_boundERSH_
FN:1258,_ZNSt3mapINSt7__cxx1112basic_stringIcSt11char_traitsIcESaIcEEEN15InputParameters8MetadataESt4lessIS5_ESaISt4pairIKS5_S7_EEE11lower_boundERSB_
FNDA:0,_ZNSt3mapINSt7__cxx1112basic_stringIcSt11char_traitsIcESaIcEEEN15InputParameters8MetadataESt4lessIS5_ESaISt4pairIKS5_S7_EEE11lower_boundERSB_
FN:1258,_ZNSt3mapINSt7__cxx1112basic_stringIcSt11char_traitsIcESaIcEEEPN7libMesh10Parameters5ValueESt4lessIvESaISt4pairIKS5_S9_EEE11lower_boundERSD_
FNDA:0,_ZNSt3mapINSt7__cxx1112basic_stringIcSt11char_traitsIcESaIcEEEPN7libMesh10Parameters5ValueESt4lessIvESaISt4pairIKS5_S9_EEE11lower_boundERSD_
FNF:8
FNH:0
DA:302,0
DA:492,0
DA:497,0
DA:499,0
DA:501,0
DA:502,0
DA:503,0
DA:507,0
DA:492,0
DA:497,0
DA:499,0
DA:501,0
DA:502,0
DA:503,0
DA:507,0
DA:492,0
DA:497,0
DA:499,0
DA:501,0
DA:502,0
DA:503,0
DA:507,0
DA:492,0
DA:497,0
DA:499,0
DA:501,0
DA:502,0
DA:503,0
DA:507,0
DA:1038,0
DA:1170,0
DA:1195,0
DA:1201,0
DA:1216,0
DA:1258,0
DA:1259,0
DA:1258,0
DA:1259,0
DA:1258,0
DA:1259,0
DA:1258,0
DA:1259,0
LF:42
LH:0
end_of_record
SF:/usr/share/miniconda/envs/moose/x86_64-conda-linux-gnu/include/c++/10.3.0/typeinfo
FN:120,_ZNKSt9type_infoeqERKS_
FNDA:0,_ZNKSt9type_infoeqERKS_
FNF:1
FNH:0
DA:100,0
DA:120,0
DA:122,0
DA:123,0
DA:124,0
LF:5
LH:0
end_of_record
SF:/usr/share/miniconda/envs/moose/x86_64-conda-linux-gnu/include/c++/10.3.0/bits/char_traits.h
DA:329,568
DA:346,0
DA:361,0
DA:371,452
LF:4
LH:2
end_of_record
SF:/usr/share/miniconda/envs/moose/x86_64-conda-linux-gnu/include/c++/10.3.0/bits/basic_string.tcc
FN:206,_ZNSt7__cxx1112basic_stringIcSt11char_traitsIcESaIcEE12_M_constructIPcEEvT_S7_St20forward_iterator_tag
FNDA:116,_ZNSt7__cxx1112basic_stringIcSt11char_traitsIcESaIcEE12_M_constructIPcEEvT_S7_St20forward_iterator_tag
FN:206,_ZNSt7__cxx1112basic_stringIcSt11char_traitsIcESaIcEE12_M_constructIPKcEEvT_S8_St20forward_iterator_tag
FNDA:452,_ZNSt7__cxx1112basic_stringIcSt11char_traitsIcESaIcEE12_M_constructIPKcEEvT_S8_St20forward_iterator_tag
FNF:2
FNH:2
DA:206,116
DA:211,116
DA:212,0
DA:215,116
DA:217,116
DA:219,0
DA:220,0
DA:232,116
DA:233,116
DA:206,452
DA:211,452
DA:212,0
DA:215,452
DA:217,452
DA:219,336
DA:220,336
DA:232,452
DA:233,452
LF:18
LH:14
end_of_record
SF:/usr/share/miniconda/envs/moose/x86_64-conda-linux-gnu/include/c++/10.3.0/bits/stl_pair.h
DA:211,0
LF:1
LH:0
end_of_record
SF:/home/runner/work/raccoon/raccoon/moose/framework/build/header_symlinks/MooseError.h
FN:155,_ZN5moose8internal14mooseStreamAllINSt7__cxx1112basic_stringIcSt11char_traitsIcESaIcEEEJRA2_KcEEEvRNS2_19basic_ostringstreamIcS5_S6_EEOT_DpOT0_
FNDA:0,_ZN5moose8internal14mooseStreamAllINSt7__cxx1112basic_stringIcSt11char_traitsIcESaIcEEEJRA2_KcEEEvRNS2_19basic_ostringstreamIcS5_S6_EEOT_DpOT0_
FN:155,_ZN5moose8internal14mooseStreamAllINSt7__cxx1112basic_stringIcSt11char_traitsIcESaIcEEEJRA45_KcS7_RA2_S8_EEEvRNS2_19basic_ostringstreamIcS5_S6_EEOT_DpOT0_
FNDA:0,_ZN5moose8internal14mooseStreamAllINSt7__cxx1112basic_stringIcSt11char_traitsIcESaIcEEEJRA45_KcS7_RA2_S8_EEEvRNS2_19basic_ostringstreamIcS5_S6_EEOT_DpOT0_
FN:155,_ZN5moose8internal14mooseStreamAllIRKNSt7__cxx1112basic_stringIcSt11char_traitsIcESaIcEEEJRA14_KcS7_RA45_SA_S7_RA2_SA_EEEvRNS2_19basic_ostringstreamIcS5_S6_EEOT_DpOT0_
FNDA:0,_ZN5moose8internal14mooseStreamAllIRKNSt7__cxx1112basic_stringIcSt11char_traitsIcESaIcEEEJRA14_KcS7_RA45_SA_S7_RA2_SA_EEEvRNS2_19basic_ostringstreamIcS5_S6_EEOT_DpOT0_
FN:254,_Z10mooseErrorIJRA30_KcRKNSt7__cxx1112basic_stringIcSt11char_traitsIcESaIcEEERA14_S0_S8_RA45_S0_S8_RA2_S0_EEvDpOT_
FNDA:0,_Z10mooseErrorIJRA30_KcRKNSt7__cxx1112basic_stringIcSt11char_traitsIcESaIcEEERA14_S0_S8_RA45_S0_S8_RA2_S0_EEvDpOT_
FNF:4
FNH:0
DA:155,0
DA:157,0
DA:158,0
DA:159,0
DA:155,0
DA:157,0
DA:158,0
DA:159,0
DA:155,0
DA:157,0
DA:158,0
DA:159,0
DA:157,0
DA:158,0
DA:159,0
DA:254,0
DA:256,0
DA:258,0
LF:18
LH:0
end_of_record
SF:/usr/share/miniconda/envs/moose/x86_64-conda-linux-gnu/include/c++/10.3.0/bits/hashtable.h
FN:411,_ZNSt10_HashtableINSt7__cxx1112basic_stringIcSt11char_traitsIcESaIcEEESt4pairIKS5_S5_ESaIS8_ENSt8__detail10_Select1stESt8equal_toIS5_ESt4hashIS5_ENSA_18_Mod_range_hashingENSA_20_Default_ranged_hashENSA_20_Prime_rehash_policyENSA_17_Hashtable_traitsILb1ELb0ELb1EEEE21_M_deallocate_bucketsEv
FNDA:0,_ZNSt10_HashtableINSt7__cxx1112basic_stringIcSt11char_traitsIcESaIcEEESt4pairIKS5_S5_ESaIS8_ENSt8__detail10_Select1stESt8equal_toIS5_ESt4hashIS5_ENSA_18_Mod_range_hashingENSA_20_Default_ranged_hashENSA_20_Prime_rehash_policyENSA_17_Hashtable_traitsILb1ELb0ELb1EEEE21_M_deallocate_bucketsEv
FN:2026,_ZNSt10_HashtableINSt7__cxx1112basic_stringIcSt11char_traitsIcESaIcEEESt4pairIKS5_S5_ESaIS8_ENSt8__detail10_Select1stESt8equal_toIS5_ESt4hashIS5_ENSA_18_Mod_range_hashingENSA_20_Default_ranged_hashENSA_20_Prime_rehash_policyENSA_17_Hashtable_traitsILb1ELb0ELb1EEEE5clearEv
FNDA:0,_ZNSt10_HashtableINSt7__cxx1112basic_stringIcSt11char_traitsIcESaIcEEESt4pairIKS5_S5_ESaIS8_ENSt8__detail10_Select1stESt8equal_toIS5_ESt4hashIS5_ENSA_18_Mod_range_hashingENSA_20_Default_ranged_hashENSA_20_Prime_rehash_policyENSA_17_Hashtable_traitsILb1ELb0ELb1EEEE5clearEv
FNF:2
FNH:0
DA:380,0
DA:404,0
DA:411,0
DA:412,0
DA:421,0
DA:1387,0
DA:1388,0
DA:2026,0
DA:2031,0
DA:2032,0
DA:2033,0
DA:2034,0
LF:12
LH:0
end_of_record
SF:/usr/share/miniconda/envs/moose/x86_64-conda-linux-gnu/include/c++/10.3.0/bits/stl_function.h
FN:600,_ZNSt4lessIvE6_S_cmpIRKNSt7__cxx1112basic_stringIcSt11char_traitsIcESaIcEEERKSt17basic_string_viewIcS5_EEEDcOT_OT0_St17integral_constantIbLb0EE
FNDA:0,_ZNSt4lessIvE6_S_cmpIRKNSt7__cxx1112basic_stringIcSt11char_traitsIcESaIcEEERKSt17basic_string_viewIcS5_EEEDcOT_OT0_St17integral_constantIbLb0EE
FN:600,_ZNSt4lessIvE6_S_cmpIRKSt17basic_string_viewIcSt11char_traitsIcEERKNSt7__cxx1112basic_stringIcS4_SaIcEEEEEDcOT_OT0_St17integral_constantIbLb0EE
FNDA:0,_ZNSt4lessIvE6_S_cmpIRKSt17basic_string_viewIcSt11char_traitsIcEERKNSt7__cxx1112basic_stringIcS4_SaIcEEEEEDcOT_OT0_St17integral_constantIbLb0EE
FNF:2
FNH:0
DA:586,0
DA:600,0
DA:601,0
DA:600,0
DA:601,0
DA:1156,0
LF:6
LH:0
end_of_record
SF:/usr/share/miniconda/envs/moose/x86_64-conda-linux-gnu/include/c++/10.3.0/bits/unordered_map.h
DA:102,0
LF:1
LH:0
end_of_record
SF:/home/runner/work/raccoon/raccoon/moose/framework/build/header_symlinks/InputParameters.h
FN:52,_ZN15InputParametersD0Ev
FNDA:0,_ZN15InputParametersD0Ev
FN:52,_ZN15InputParametersD2Ev
FNDA:0,_ZN15InputParametersD2Ev
FN:1033,_ZN15InputParameters3setIbEERT_RKNSt7__cxx1112basic_stringIcSt11char_traitsIcESaIcEEEb
FNDA:0,_ZN15InputParameters3setIbEERT_RKNSt7__cxx1112basic_stringIcSt11char_traitsIcESaIcEEEb
FN:1404,_ZNK15InputParameters19checkConsistentTypeIbEEvRKNSt7__cxx1112basic_stringIcSt11char_traitsIcESaIcEEE
FNDA:0,_ZNK15InputParameters19checkConsistentTypeIbEEvRKNSt7__cxx1112basic_stringIcSt11char_traitsIcESaIcEEE
FN:1691,_ZN5moose8internal15callValidParamsI10raccoonAppEE15InputParametersv
FNDA:0,_ZN5moose8internal15callValidParamsI10raccoonAppEE15InputParametersv
FNF:5
FNH:0
DA:52,0
DA:52,0
DA:1033,0
DA:1035,0
DA:1036,0
DA:1038,0
DA:1040,0
DA:1041,0
DA:1045,0
DA:1404,0
DA:1408,0
DA:1413,0
DA:1414,0
DA:1419,0
DA:1666,0
DA:1671,0
DA:1691,0
DA:1693,0
LF:18
LH:0
end_of_record
SF:/usr/share/miniconda/envs/moose/x86_64-conda-linux-gnu/include/c++/10.3.0/bits/stl_iterator.h
DA:981,0
DA:985,0
LF:2
LH:0
end_of_record
SF:/usr/share/miniconda/envs/moose/x86_64-conda-linux-gnu/include/c++/10.3.0/iostream
LF:0
LH:0
end_of_record
SF:/usr/share/miniconda/envs/moose/x86_64-conda-linux-gnu/include/c++/10.3.0/bits/std_function.h
FN:242,_ZNSt14_Function_baseD2Ev
FNDA:0,_ZNSt14_Function_baseD2Ev
FNF:1
FNH:0
DA:242,0
DA:243,0
DA:244,0
DA:245,0
DA:246,0
DA:303,0
LF:6
LH:0
end_of_record
SF:/usr/share/miniconda/envs/moose/x86_64-conda-linux-gnu/include/c++/10.3.0/bits/shared_ptr.h
FN:407,_ZNSt10shared_ptrI10raccoonAppEC2ISaIS0_EJRK15InputParametersEEESt20_Sp_alloc_shared_tagIT_EDpOT0_
FNDA:0,_ZNSt10shared_ptrI10raccoonAppEC2ISaIS0_EJRK15InputParametersEEESt20_Sp_alloc_shared_tagIT_EDpOT0_
FNF:1
FNH:0
DA:121,0
DA:407,0
DA:408,0
DA:409,0
DA:860,0
DA:875,0
LF:6
LH:0
end_of_record
SF:/usr/share/miniconda/envs/moose/x86_64-conda-linux-gnu/include/c++/10.3.0/bits/hashtable_policy.h
FN:2051,_ZNSt8__detail16_Hashtable_allocISaINS_10_Hash_nodeISt4pairIKNSt7__cxx1112basic_stringIcSt11char_traitsIcESaIcEEES8_ELb1EEEEE18_M_deallocate_nodeEPSB_
FNDA:0,_ZNSt8__detail16_Hashtable_allocISaINS_10_Hash_nodeISt4pairIKNSt7__cxx1112basic_stringIcSt11char_traitsIcESaIcEEES8_ELb1EEEEE18_M_deallocate_nodeEPSB_
FNF:1
FNH:0
DA:270,0
DA:2051,0
DA:2055,0
DA:2063,0
DA:2071,0
DA:2075,0
DA:2100,0
LF:7
LH:0
end_of_record
SF:/usr/share/miniconda/envs/moose/x86_64-conda-linux-gnu/include/c++/10.3.0/bits/basic_string.h
FN:525,_ZNSt7__cxx1112basic_stringIcSt11char_traitsIcESaIcEEC2IS3_EEPKcRKS3_
FNDA:452,_ZNSt7__cxx1112basic_stringIcSt11char_traitsIcESaIcEEC2IS3_EEPKcRKS3_
FN:1470,_ZNSt7__cxx1112basic_stringIcSt11char_traitsIcESaIcEE6assignIPcvEERS4_T_S8_
FNDA:0,_ZNSt7__cxx1112basic_stringIcSt11char_traitsIcESaIcEE6assignIPcvEERS4_T_S8_
FNF:2
FNH:1
DA:156,452
DA:157,452
DA:179,336
DA:183,568
DA:187,1136
DA:193,452
DA:211,336
DA:217,568
DA:247,452
DA:393,116
DA:398,452
DA:525,452
DA:527,452
DA:658,568
DA:814,0
DA:902,0
DA:1470,0
DA:1471,0
DA:6280,0
DA:6473,0
LF:20
LH:14
end_of_record
SF:/usr/share/miniconda/envs/moose/x86_64-conda-linux-gnu/include/c++/10.3.0/bits/stl_set.h
FN:243,_ZNSt3setINSt7__cxx1112basic_stringIcSt11char_traitsIcESaIcEEESt4lessIS5_ESaIS5_EEC2ESt16initializer_listIS5_ERKS7_RKS8_
FNDA:116,_ZNSt3setINSt7__cxx1112basic_stringIcSt11char_traitsIcESaIcEEESt4lessIS5_ESaIS5_EEC2ESt16initializer_listIS5_ERKS7_RKS8_
FN:281,_ZNSt3setIsSt4lessIsESaIsEED2Ev
FNDA:0,_ZNSt3setIsSt4lessIsESaIsEED2Ev
FN:281,_ZNSt3setItSt4lessItESaItEED2Ev
FNDA:0,_ZNSt3setItSt4lessItESaItEED2Ev
FNF:3
FNH:1
DA:243,116
DA:246,116
DA:247,116
DA:281,0
DA:281,0
DA:281,116
LF:6
LH:4
end_of_record
SF:/usr/share/miniconda/envs/moose/x86_64-conda-linux-gnu/include/c++/10.3.0/ostream
DA:175,0
LF:1
LH:0
end_of_record
SF:/usr/share/miniconda/envs/moose/libmesh/include/libmesh/reference_counter.h
DA:152,0
LF:1
LH:0
end_of_record
SF:/usr/share/miniconda/envs/moose/x86_64-conda-linux-gnu/include/c++/10.3.0/initializer_list
DA:71,116
DA:79,116
LF:2
LH:2
end_of_record
SF:/usr/share/miniconda/envs/moose/x86_64-conda-linux-gnu/include/c++/10.3.0/bits/stl_iterator_base_funcs.h
DA:104,568
LF:1
LH:1
end_of_record
SF:/usr/share/miniconda/envs/moose/x86_64-conda-linux-gnu/include/c++/10.3.0/bits/stl_algobase.h
DA:235,0
DA:236,0
DA:425,0
DA:426,0
LF:4
LH:0
end_of_record
SF:/usr/share/miniconda/envs/moose/libmesh/include/libmesh/parameters.h
FN:132,_ZN7libMesh10Parameters14set_attributesERKNSt7__cxx1112basic_stringIcSt11char_traitsIcESaIcEEEb
FNDA:0,_ZN7libMesh10Parameters14set_attributesERKNSt7__cxx1112basic_stringIcSt11char_traitsIcESaIcEEEb
FN:285,_ZNK7libMesh10Parameters9ParameterIbE4typeB5cxx11Ev
FNDA:0,_ZNK7libMesh10Parameters9ParameterIbE4typeB5cxx11Ev
FN:293,_ZNK7libMesh10Parameters9ParameterIbE5printERSo
FNDA:0,_ZNK7libMesh10Parameters9ParameterIbE5printERSo
FN:301,_ZNK7libMesh10Parameters9ParameterIbE5cloneEv
FNDA:0,_ZNK7libMesh10Parameters9ParameterIbE5cloneEv
FN:316,_ZN7libMesh10Parameters5clearEv
FNDA:0,_ZN7libMesh10Parameters5clearEv
FN:332,_ZN7libMesh10ParametersaSERKS0_
FNDA:0,_ZN7libMesh10ParametersaSERKS0_
FN:341,_ZN7libMesh10ParameterspLERKS0_
FNDA:0,_ZN7libMesh10ParameterspLERKS0_
FN:362,_ZN7libMesh10ParametersD0Ev
FNDA:0,_ZN7libMesh10ParametersD0Ev
FN:362,_ZN7libMesh10ParametersD2Ev
FNDA:0,_ZN7libMesh10ParametersD2Ev
FN:405,_ZNK7libMesh10Parameters14have_parameterIbEEbSt17basic_string_viewIcSt11char_traitsIcEE
FNDA:0,_ZNK7libMesh10Parameters14have_parameterIbEEbSt17basic_string_viewIcSt11char_traitsIcEE
FN:463,_ZN7libMesh10Parameters3setIbEERT_RKNSt7__cxx1112basic_stringIcSt11char_traitsIcESaIcEEE
FNDA:0,_ZN7libMesh10Parameters3setIbEERT_RKNSt7__cxx1112basic_stringIcSt11char_traitsIcESaIcEEE
FNF:11
FNH:0
DA:132,0
DA:200,0
DA:212,0
DA:285,0
DA:287,0
DA:293,0
DA:297,0
DA:301,0
DA:303,0
DA:307,0
DA:309,0
DA:316,0
DA:318,0
DA:322,0
DA:323,0
DA:325,0
DA:327,0
DA:332,0
DA:334,0
DA:335,0
DA:337,0
DA:341,0
DA:343,0
DA:345,0
DA:346,0
DA:347,0
DA:350,0
DA:362,0
DA:365,0
DA:362,0
DA:364,0
DA:365,0
DA:405,0
DA:409,0
DA:411,0
DA:415,0
DA:463,0
DA:465,0
DA:466,0
DA:468,0
DA:470,0
DA:535,0
LF:42
LH:0
end_of_record
SF:/usr/share/miniconda/envs/moose/libmesh/include/timpi/message_tag.h
LF:0
LH:0
end_of_record
SF:/usr/share/miniconda/envs/moose/x86_64-conda-linux-gnu/include/c++/10.3.0/bits/stl_construct.h
FN:149,_ZNSt12_Destroy_auxILb0EE9__destroyIPSt5tupleIJNSt7__cxx1112basic_stringIcSt11char_traitsIcESaIcEEEN5Moose23RelationshipManagerTypeESt8functionIFvRK15InputParametersRSC_EEEEEEvT_SK_
FNDA:0,_ZNSt12_Destroy_auxILb0EE9__destroyIPSt5tupleIJNSt7__cxx1112basic_stringIcSt11char_traitsIcESaIcEEEN5Moose23RelationshipManagerTypeESt8functionIFvRK15InputParametersRSC_EEEEEEvT_SK_
FNF:1
FNH:0
DA:149,0
DA:151,0
DA:153,0
DA:185,0
LF:4
LH:0
end_of_record
SF:/home/runner/work/raccoon/raccoon/src/base/raccoonApp.C
FN:13,_ZN10raccoonApp11validParamsEv
FNDA:168,_ZN10raccoonApp11validParamsEv
FN:23,_ZN10raccoonAppC2E15InputParameters
FNDA:0,_ZN10raccoonAppC2E15InputParameters
FN:28,_ZN10raccoonAppD0Ev
FNDA:0,_ZN10raccoonAppD0Ev
FN:28,_ZN10raccoonAppD2Ev
FNDA:0,_ZN10raccoonAppD2Ev
FN:36,_ZN10raccoonApp11registerAllER7FactoryR13ActionFactoryR6Syntax
FNDA:58,_ZN10raccoonApp11registerAllER7FactoryR13ActionFactoryR6Syntax
FN:46,_ZN10raccoonApp12registerAppsEv
FNDA:0,_ZN10raccoonApp12registerAppsEv
FN:55,raccoonApp__registerAll
FNDA:0,raccoonApp__registerAll
FN:60,raccoonApp__registerApps
FNDA:0,raccoonApp__registerApps
FNF:8
FNH:2
DA:13,168
DA:15,168
DA:16,168
DA:19,168
DA:20,168
DA:23,0
DA:25,0
DA:26,0
DA:28,0
DA:28,0
DA:36,58
DA:38,58
DA:39,174
DA:40,174
DA:42,58
DA:43,58
DA:46,0
DA:48,0
DA:49,0
DA:55,0
DA:57,0
DA:58,0
DA:60,0
DA:62,0
DA:63,0
LF:25
LH:11
end_of_record
SF:/home/runner/work/raccoon/raccoon/build/header_symlinks/raccoonApp.h
LF:0
LH:0
end_of_record
SF:/usr/share/miniconda/envs/moose/x86_64-conda-linux-gnu/include/c++/10.3.0/bits/stl_tree.h
FN:613,_ZNSt8_Rb_treeINSt7__cxx1112basic_stringIcSt11char_traitsIcESaIcEEESt4pairIKS5_N15InputParameters8MetadataEESt10_Select1stISA_ESt4lessIS5_ESaISA_EE17_M_construct_nodeIJRKSt21piecewise_construct_tSt5tupleIJRS7_EESL_IJEEEEEvPSt13_Rb_tree_nodeISA_EDpOT_
FNDA:0,_ZNSt8_Rb_treeINSt7__cxx1112basic_stringIcSt11char_traitsIcESaIcEEESt4pairIKS5_N15InputParameters8MetadataEESt10_Select1stISA_ESt4lessIS5_ESaISA_EE17_M_construct_nodeIJRKSt21piecewise_construct_tSt5tupleIJRS7_EESL_IJEEEEEvPSt13_Rb_tree_nodeISA_EDpOT_
FN:613,_ZNSt8_Rb_treeINSt7__cxx1112basic_stringIcSt11char_traitsIcESaIcEEESt4pairIKS5_PN7libMesh10Parameters5ValueEESt10_Select1stISC_ESt4lessIvESaISC_EE17_M_construct_nodeIJRKSt21piecewise_construct_tSt5tupleIJRS7_EESN_IJEEEEEvPSt13_Rb_tree_nodeISC_EDpOT_
FNDA:0,_ZNSt8_Rb_treeINSt7__cxx1112basic_stringIcSt11char_traitsIcESaIcEEESt4pairIKS5_PN7libMesh10Parameters5ValueEESt10_Select1stISC_ESt4lessIvESaISC_EE17_M_construct_nodeIJRKSt21piecewise_construct_tSt5tupleIJRS7_EESN_IJEEEEEvPSt13_Rb_tree_nodeISC_EDpOT_
FN:613,_ZNSt8_Rb_treeINSt7__cxx1112basic_stringIcSt11char_traitsIcESaIcEEES5_St9_IdentityIS5_ESt4lessIS5_ESaIS5_EE17_M_construct_nodeIJRKS5_EEEvPSt13_Rb_tree_nodeIS5_EDpOT_
FNDA:116,_ZNSt8_Rb_treeINSt7__cxx1112basic_stringIcSt11char_traitsIcESaIcEEES5_St9_IdentityIS5_ESt4lessIS5_ESaIS5_EE17_M_construct_nodeIJRKS5_EEEvPSt13_Rb_tree_nodeIS5_EDpOT_
FN:613,_ZNSt8_Rb_treeINSt7__cxx1112basic_stringIcSt11char_traitsIcESaIcEEESt4pairIKS5_PF15InputParametersvEESt10_Select1stISB_ESt4lessIS5_ESaISB_EE17_M_construct_nodeIJRKSt21piecewise_construct_tSt5tupleIJRS7_EESM_IJEEEEEvPSt13_Rb_tree_nodeISB_EDpOT_
FNDA:0,_ZNSt8_Rb_treeINSt7__cxx1112basic_stringIcSt11char_traitsIcESaIcEEESt4pairIKS5_PF15InputParametersvEESt10_Select1stISB_ESt4lessIS5_ESaISB_EE17_M_construct_nodeIJRKSt21piecewise_construct_tSt5tupleIJRS7_EESM_IJEEEEEvPSt13_Rb_tree_nodeISB_EDpOT_
FN:613,_ZNSt8_Rb_treeINSt7__cxx1112basic_stringIcSt11char_traitsIcESaIcEEESt4pairIKS5_PFSt10shared_ptrI8MooseAppERK15InputParametersEESt10_Select1stISG_ESt4lessIS5_ESaISG_EE17_M_construct_nodeIJRKSt21piecewise_construct_tSt5tupleIJRS7_EESR_IJEEEEEvPSt13_Rb_tree_nodeISG_EDpOT_
FNDA:0,_ZNSt8_Rb_treeINSt7__cxx1112basic_stringIcSt11char_traitsIcESaIcEEESt4pairIKS5_PFSt10shared_ptrI8MooseAppERK15InputParametersEESt10_Select1stISG_ESt4lessIS5_ESaISG_EE17_M_construct_nodeIJRKSt21piecewise_construct_tSt5tupleIJRS7_EESR_IJEEEEEvPSt13_Rb_tree_nodeISG_EDpOT_
FN:632,_ZNSt8_Rb_treeINSt7__cxx1112basic_stringIcSt11char_traitsIcESaIcEEES5_St9_IdentityIS5_ESt4lessIS5_ESaIS5_EE14_M_create_nodeIJRKS5_EEEPSt13_Rb_tree_nodeIS5_EDpOT_
FNDA:116,_ZNSt8_Rb_treeINSt7__cxx1112basic_stringIcSt11char_traitsIcESaIcEEES5_St9_IdentityIS5_ESt4lessIS5_ESaIS5_EE14_M_create_nodeIJRKS5_EEEPSt13_Rb_tree_nodeIS5_EDpOT_
FN:632,_ZNSt8_Rb_treeINSt7__cxx1112basic_stringIcSt11char_traitsIcESaIcEEESt4pairIKS5_PFSt10shared_ptrI8MooseAppERK15InputParametersEESt10_Select1stISG_ESt4lessIS5_ESaISG_EE14_M_create_nodeIJRKSt21piecewise_construct_tSt5tupleIJRS7_EESR_IJEEEEEPSt13_Rb_tree_nodeISG_EDpOT_
FNDA:0,_ZNSt8_Rb_treeINSt7__cxx1112basic_stringIcSt11char_traitsIcESaIcEEESt4pairIKS5_PFSt10shared_ptrI8MooseAppERK15InputParametersEESt10_Select1stISG_ESt4lessIS5_ESaISG_EE14_M_create_nodeIJRKSt21piecewise_construct_tSt5tupleIJRS7_EESR_IJEEEEEPSt13_Rb_tree_nodeISG_EDpOT_
FN:632,_ZNSt8_Rb_treeINSt7__cxx1112basic_stringIcSt11char_traitsIcESaIcEEESt4pairIKS5_N15InputParameters8MetadataEESt10_Select1stISA_ESt4lessIS5_ESaISA_EE14_M_create_nodeIJRKSt21piecewise_construct_tSt5tupleIJRS7_EESL_IJEEEEEPSt13_Rb_tree_nodeISA_EDpOT_
FNDA:0,_ZNSt8_Rb_treeINSt7__cxx1112basic_stringIcSt11char_traitsIcESaIcEEESt4pairIKS5_N15InputParameters8MetadataEESt10_Select1stISA_ESt4lessIS5_ESaISA_EE14_M_create_nodeIJRKSt21piecewise_construct_tSt5tupleIJRS7_EESL_IJEEEEEPSt13_Rb_tree_nodeISA_EDpOT_
FN:632,_ZNSt8_Rb_treeINSt7__cxx1112basic_stringIcSt11char_traitsIcESaIcEEESt4pairIKS5_PF15InputParametersvEESt10_Select1stISB_ESt4lessIS5_ESaISB_EE14_M_create_nodeIJRKSt21piecewise_construct_tSt5tupleIJRS7_EESM_IJEEEEEPSt13_Rb_tree_nodeISB_EDpOT_
FNDA:0,_ZNSt8_Rb_treeINSt7__cxx1112basic_stringIcSt11char_traitsIcESaIcEEESt4pairIKS5_PF15InputParametersvEESt10_Select1stISB_ESt4lessIS5_ESaISB_EE14_M_create_nodeIJRKSt21piecewise_construct_tSt5tupleIJRS7_EESM_IJEEEEEPSt13_Rb_tree_nodeISB_EDpOT_
FN:632,_ZNSt8_Rb_treeINSt7__cxx1112basic_stringIcSt11char_traitsIcESaIcEEESt4pairIKS5_PN7libMesh10Parameters5ValueEESt10_Select1stISC_ESt4lessIvESaISC_EE14_M_create_nodeIJRKSt21piecewise_construct_tSt5tupleIJRS7_EESN_IJEEEEEPSt13_Rb_tree_nodeISC_EDpOT_
FNDA:0,_ZNSt8_Rb_treeINSt7__cxx1112basic_stringIcSt11char_traitsIcESaIcEEESt4pairIKS5_PN7libMesh10Parameters5ValueEESt10_Select1stISC_ESt4lessIvESaISC_EE14_M_create_nodeIJRKSt21piecewise_construct_tSt5tupleIJRS7_EESN_IJEEEEEPSt13_Rb_tree_nodeISC_EDpOT_
FN:652,_ZNSt8_Rb_treeINSt7__cxx1112basic_stringIcSt11char_traitsIcESaIcEEESt4pairIKS5_N15InputParameters8MetadataEESt10_Select1stISA_ESt4lessIS5_ESaISA_EE12_M_drop_nodeEPSt13_Rb_tree_nodeISA_E
FNDA:0,_ZNSt8_Rb_treeINSt7__cxx1112basic_stringIcSt11char_traitsIcESaIcEEESt4pairIKS5_N15InputParameters8MetadataEESt10_Select1stISA_ESt4lessIS5_ESaISA_EE12_M_drop_nodeEPSt13_Rb_tree_nodeISA_E
FN:652,_ZNSt8_Rb_treeI13MooseEnumItemS0_St9_IdentityIS0_ESt4lessIS0_ESaIS0_EE12_M_drop_nodeEPSt13_Rb_tree_nodeIS0_E
FNDA:0,_ZNSt8_Rb_treeI13MooseEnumItemS0_St9_IdentityIS0_ESt4lessIS0_ESaIS0_EE12_M_drop_nodeEPSt13_Rb_tree_nodeIS0_E
FN:1105,_ZNSt8_Rb_treeINSt7__cxx1112basic_stringIcSt11char_traitsIcESaIcEEES5_St9_IdentityIS5_ESt4lessIS5_ESaIS5_EE22_M_insert_range_uniqueIPKS5_EENSt9enable_ifIXsrSt7is_sameIS5_NSt15iterator_traitsIT_E10value_typeEE5valueEvE4typeESI_SI_
FNDA:116,_ZNSt8_Rb_treeINSt7__cxx1112basic_stringIcSt11char_traitsIcESaIcEEES5_St9_IdentityIS5_ESt4lessIS5_ESaIS5_EE22_M_insert_range_uniqueIPKS5_EENSt9enable_ifIXsrSt7is_sameIS5_NSt15iterator_traitsIT_E10value_typeEE5valueEvE4typeESI_SI_
FN:1211,_ZNSt8_Rb_treeINSt7__cxx1112basic_stringIcSt11char_traitsIcESaIcEEESt4pairIKS5_PN7libMesh10Parameters5ValueEESt10_Select1stISC_ESt4lessIvESaISC_EE5eraseB5cxx11ESt17_Rb_tree_iteratorISC_E
FNDA:0,_ZNSt8_Rb_treeINSt7__cxx1112basic_stringIcSt11char_traitsIcESaIcEEESt4pairIKS5_PN7libMesh10Parameters5ValueEESt10_Select1stISC_ESt4lessIvESaISC_EE5eraseB5cxx11ESt17_Rb_tree_iteratorISC_E
FN:1310,_ZNKSt8_Rb_treeINSt7__cxx1112basic_stringIcSt11char_traitsIcESaIcEEESt4pairIKS5_PN7libMesh10Parameters5ValueEESt10_Select1stISC_ESt4lessIvESaISC_EE10_M_find_trISt17basic_string_viewIcS3_EvEESt23_Rb_tree_const_iteratorISC_ERKT_
FNDA:0,_ZNKSt8_Rb_treeINSt7__cxx1112basic_stringIcSt11char_traitsIcESaIcEEESt4pairIKS5_PN7libMesh10Parameters5ValueEESt10_Select1stISC_ESt4lessIvESaISC_EE10_M_find_trISt17basic_string_viewIcS3_EvEESt23_Rb_tree_const_iteratorISC_ERKT_
FN:1339,_ZNKSt8_Rb_treeINSt7__cxx1112basic_stringIcSt11char_traitsIcESaIcEEESt4pairIKS5_PN7libMesh10Parameters5ValueEESt10_Select1stISC_ESt4lessIvESaISC_EE17_M_lower_bound_trISt17basic_string_viewIcS3_EvEESt23_Rb_tree_const_iteratorISC_ERKT_
FNDA:0,_ZNKSt8_Rb_treeINSt7__cxx1112basic_stringIcSt11char_traitsIcESaIcEEESt4pairIKS5_PN7libMesh10Parameters5ValueEESt10_Select1stISC_ESt4lessIvESaISC_EE17_M_lower_bound_trISt17basic_string_viewIcS3_EvEESt23_Rb_tree_const_iteratorISC_ERKT_
FN:1803,_ZNSt8_Rb_treeINSt7__cxx1112basic_stringIcSt11char_traitsIcESaIcEEES5_St9_IdentityIS5_ESt4lessIS5_ESaIS5_EE10_M_insert_IRKS5_NSB_11_Alloc_nodeEEESt17_Rb_tree_iteratorIS5_EPSt18_Rb_tree_node_baseSJ_OT_RT0_
FNDA:116,_ZNSt8_Rb_treeINSt7__cxx1112basic_stringIcSt11char_traitsIcESaIcEEES5_St9_IdentityIS5_ESt4lessIS5_ESaIS5_EE10_M_insert_IRKS5_NSB_11_Alloc_nodeEEESt17_Rb_tree_iteratorIS5_EPSt18_Rb_tree_node_baseSJ_OT_RT0_
FN:1913,_ZNSt8_Rb_treeINSt7__cxx1112basic_stringIcSt11char_traitsIcESaIcEEESt4pairIKS5_PN7libMesh10Parameters5ValueEESt10_Select1stISC_ESt4lessIvESaISC_EE8_M_eraseEPSt13_Rb_tree_nodeISC_E
FNDA:0,_ZNSt8_Rb_treeINSt7__cxx1112basic_stringIcSt11char_traitsIcESaIcEEESt4pairIKS5_PN7libMesh10Parameters5ValueEESt10_Select1stISC_ESt4lessIvESaISC_EE8_M_eraseEPSt13_Rb_tree_nodeISC_E
FN:1913,_ZNSt8_Rb_treeINSt7__cxx1112basic_stringIcSt11char_traitsIcESaIcEEES5_St9_IdentityIS5_ESt4lessIS5_ESaIS5_EE8_M_eraseEPSt13_Rb_tree_nodeIS5_E
FNDA:232,_ZNSt8_Rb_treeINSt7__cxx1112basic_stringIcSt11char_traitsIcESaIcEEES5_St9_IdentityIS5_ESt4lessIS5_ESaIS5_EE8_M_eraseEPSt13_Rb_tree_nodeIS5_E
FN:1913,_ZNSt8_Rb_treeIssSt9_IdentityIsESt4lessIsESaIsEE8_M_eraseEPSt13_Rb_tree_nodeIsE
FNDA:0,_ZNSt8_Rb_treeIssSt9_IdentityIsESt4lessIsESaIsEE8_M_eraseEPSt13_Rb_tree_nodeIsE
FN:1913,_ZNSt8_Rb_treeIttSt9_IdentityItESt4lessItESaItEE8_M_eraseEPSt13_Rb_tree_nodeItE
FNDA:0,_ZNSt8_Rb_treeIttSt9_IdentityItESt4lessItESaItEE8_M_eraseEPSt13_Rb_tree_nodeItE
FN:1913,_ZNSt8_Rb_treeINSt7__cxx1112basic_stringIcSt11char_traitsIcESaIcEEESt4pairIKS5_N15InputParameters8MetadataEESt10_Select1stISA_ESt4lessIS5_ESaISA_EE8_M_eraseEPSt13_Rb_tree_nodeISA_E
FNDA:0,_ZNSt8_Rb_treeINSt7__cxx1112basic_stringIcSt11char_traitsIcESaIcEEESt4pairIKS5_N15InputParameters8MetadataEESt10_Select1stISA_ESt4lessIS5_ESaISA_EE8_M_eraseEPSt13_Rb_tree_nodeISA_E
FN:1913,_ZNSt8_Rb_treeI13MooseEnumItemS0_St9_IdentityIS0_ESt4lessIS0_ESaIS0_EE8_M_eraseEPSt13_Rb_tree_nodeIS0_E
FNDA:0,_ZNSt8_Rb_treeI13MooseEnumItemS0_St9_IdentityIS0_ESt4lessIS0_ESaIS0_EE8_M_eraseEPSt13_Rb_tree_nodeIS0_E
FN:1930,_ZNSt8_Rb_treeINSt7__cxx1112basic_stringIcSt11char_traitsIcESaIcEEESt4pairIKS5_N15InputParameters8MetadataEESt10_Select1stISA_ESt4lessIS5_ESaISA_EE14_M_lower_boundEPSt13_Rb_tree_nodeISA_EPSt18_Rb_tree_node_baseRS7_
FNDA:0,_ZNSt8_Rb_treeINSt7__cxx1112basic_stringIcSt11char_traitsIcESaIcEEESt4pairIKS5_N15InputParameters8MetadataEESt10_Select1stISA_ESt4lessIS5_ESaISA_EE14_M_lower_boundEPSt13_Rb_tree_nodeISA_EPSt18_Rb_tree_node_baseRS7_
FN:1930,_ZNSt8_Rb_treeINSt7__cxx1112basic_stringIcSt11char_traitsIcESaIcEEESt4pairIKS5_PF15InputParametersvEESt10_Select1stISB_ESt4lessIS5_ESaISB_EE14_M_lower_boundEPSt13_Rb_tree_nodeISB_EPSt18_Rb_tree_node_baseRS7_
FNDA:0,_ZNSt8_Rb_treeINSt7__cxx1112basic_stringIcSt11char_traitsIcESaIcEEESt4pairIKS5_PF15InputParametersvEESt10_Select1stISB_ESt4lessIS5_ESaISB_EE14_M_lower_boundEPSt13_Rb_tree_nodeISB_EPSt18_Rb_tree_node_baseRS7_
FN:1930,_ZNSt8_Rb_treeINSt7__cxx1112basic_stringIcSt11char_traitsIcESaIcEEESt4pairIKS5_PFSt10shared_ptrI8MooseAppERK15InputParametersEESt10_Select1stISG_ESt4lessIS5_ESaISG_EE14_M_lower_boundEPSt13_Rb_tree_nodeISG_EPSt18_Rb_tree_node_baseRS7_
FNDA:0,_ZNSt8_Rb_treeINSt7__cxx1112basic_stringIcSt11char_traitsIcESaIcEEESt4pairIKS5_PFSt10shared_ptrI8MooseAppERK15InputParametersEESt10_Select1stISG_ESt4lessIS5_ESaISG_EE14_M_lower_boundEPSt13_Rb_tree_nodeISG_EPSt18_Rb_tree_node_baseRS7_
FN:1930,_ZNSt8_Rb_treeINSt7__cxx1112basic_stringIcSt11char_traitsIcESaIcEEESt4pairIKS5_PN7libMesh10Parameters5ValueEESt10_Select1stISC_ESt4lessIvESaISC_EE14_M_lower_boundEPSt13_Rb_tree_nodeISC_EPSt18_Rb_tree_node_baseRS7_
FNDA:0,_ZNSt8_Rb_treeINSt7__cxx1112basic_stringIcSt11char_traitsIcESaIcEEESt4pairIKS5_PN7libMesh10Parameters5ValueEESt10_Select1stISC_ESt4lessIvESaISC_EE14_M_lower_boundEPSt13_Rb_tree_nodeISC_EPSt18_Rb_tree_node_baseRS7_
FN:1946,_ZNKSt8_Rb_treeINSt7__cxx1112basic_stringIcSt11char_traitsIcESaIcEEESt4pairIKS5_PF15InputParametersvEESt10_Select1stISB_ESt4lessIS5_ESaISB_EE14_M_lower_boundEPKSt13_Rb_tree_nodeISB_EPKSt18_Rb_tree_node_baseRS7_
FNDA:0,_ZNKSt8_Rb_treeINSt7__cxx1112basic_stringIcSt11char_traitsIcESaIcEEESt4pairIKS5_PF15InputParametersvEESt10_Select1stISB_ESt4lessIS5_ESaISB_EE14_M_lower_boundEPKSt13_Rb_tree_nodeISB_EPKSt18_Rb_tree_node_baseRS7_
FN:1946,_ZNKSt8_Rb_treeINSt7__cxx1112basic_stringIcSt11char_traitsIcESaIcEEESt4pairIKS5_PN7libMesh10Parameters5ValueEESt10_Select1stISC_ESt4lessIvESaISC_EE14_M_lower_boundEPKSt13_Rb_tree_nodeISC_EPKSt18_Rb_tree_node_baseRS7_
FNDA:0,_ZNKSt8_Rb_treeINSt7__cxx1112basic_stringIcSt11char_traitsIcESaIcEEESt4pairIKS5_PN7libMesh10Parameters5ValueEESt10_Select1stISC_ESt4lessIvESaISC_EE14_M_lower_boundEPKSt13_Rb_tree_nodeISC_EPKSt18_Rb_tree_node_baseRS7_
FN:2091,_ZNSt8_Rb_treeINSt7__cxx1112basic_stringIcSt11char_traitsIcESaIcEEESt4pairIKS5_N15InputParameters8MetadataEESt10_Select1stISA_ESt4lessIS5_ESaISA_EE24_M_get_insert_unique_posERS7_
FNDA:0,_ZNSt8_Rb_treeINSt7__cxx1112basic_stringIcSt11char_traitsIcESaIcEEESt4pairIKS5_N15InputParameters8MetadataEESt10_Select1stISA_ESt4lessIS5_ESaISA_EE24_M_get_insert_unique_posERS7_
FN:2091,_ZNSt8_Rb_treeINSt7__cxx1112basic_stringIcSt11char_traitsIcESaIcEEESt4pairIKS5_PF15InputParametersvEESt10_Select1stISB_ESt4lessIS5_ESaISB_EE24_M_get_insert_unique_posERS7_
FNDA:0,_ZNSt8_Rb_treeINSt7__cxx1112basic_stringIcSt11char_traitsIcESaIcEEESt4pairIKS5_PF15InputParametersvEESt10_Select1stISB_ESt4lessIS5_ESaISB_EE24_M_get_insert_unique_posERS7_
FN:2091,_ZNSt8_Rb_treeINSt7__cxx1112basic_stringIcSt11char_traitsIcESaIcEEESt4pairIKS5_PFSt10shared_ptrI8MooseAppERK15InputParametersEESt10_Select1stISG_ESt4lessIS5_ESaISG_EE24_M_get_insert_unique_posERS7_
FNDA:0,_ZNSt8_Rb_treeINSt7__cxx1112basic_stringIcSt11char_traitsIcESaIcEEESt4pairIKS5_PFSt10shared_ptrI8MooseAppERK15InputParametersEESt10_Select1stISG_ESt4lessIS5_ESaISG_EE24_M_get_insert_unique_posERS7_
FN:2091,_ZNSt8_Rb_treeINSt7__cxx1112basic_stringIcSt11char_traitsIcESaIcEEESt4pairIKS5_PN7libMesh10Parameters5ValueEESt10_Select1stISC_ESt4lessIvESaISC_EE24_M_get_insert_unique_posERS7_
FNDA:0,_ZNSt8_Rb_treeINSt7__cxx1112basic_stringIcSt11char_traitsIcESaIcEEESt4pairIKS5_PN7libMesh10Parameters5ValueEESt10_Select1stISC_ESt4lessIvESaISC_EE24_M_get_insert_unique_posERS7_
FN:2091,_ZNSt8_Rb_treeINSt7__cxx1112basic_stringIcSt11char_traitsIcESaIcEEES5_St9_IdentityIS5_ESt4lessIS5_ESaIS5_EE24_M_get_insert_unique_posERKS5_
FNDA:0,_ZNSt8_Rb_treeINSt7__cxx1112basic_stringIcSt11char_traitsIcESaIcEEES5_St9_IdentityIS5_ESt4lessIS5_ESaIS5_EE24_M_get_insert_unique_posERKS5_
FN:2193,_ZNSt8_Rb_treeINSt7__cxx1112basic_stringIcSt11char_traitsIcESaIcEEES5_St9_IdentityIS5_ESt4lessIS5_ESaIS5_EE29_M_get_insert_hint_unique_posESt23_Rb_tree_const_iteratorIS5_ERKS5_
FNDA:0,_ZNSt8_Rb_treeINSt7__cxx1112basic_stringIcSt11char_traitsIcESaIcEEES5_St9_IdentityIS5_ESt4lessIS5_ESaIS5_EE29_M_get_insert_hint_unique_posESt23_Rb_tree_const_iteratorIS5_ERKS5_
FN:2193,_ZNSt8_Rb_treeINSt7__cxx1112basic_stringIcSt11char_traitsIcESaIcEEESt4pairIKS5_PFSt10shared_ptrI8MooseAppERK15InputParametersEESt10_Select1stISG_ESt4lessIS5_ESaISG_EE29_M_get_insert_hint_unique_posESt23_Rb_tree_const_iteratorISG_ERS7_
FNDA:0,_ZNSt8_Rb_treeINSt7__cxx1112basic_stringIcSt11char_traitsIcESaIcEEESt4pairIKS5_PFSt10shared_ptrI8MooseAppERK15InputParametersEESt10_Select1stISG_ESt4lessIS5_ESaISG_EE29_M_get_insert_hint_unique_posESt23_Rb_tree_const_iteratorISG_ERS7_
FN:2193,_ZNSt8_Rb_treeINSt7__cxx1112basic_stringIcSt11char_traitsIcESaIcEEESt4pairIKS5_PN7libMesh10Parameters5ValueEESt10_Select1stISC_ESt4lessIvESaISC_EE29_M_get_insert_hint_unique_posESt23_Rb_tree_const_iteratorISC_ERS7_
FNDA:0,_ZNSt8_Rb_treeINSt7__cxx1112basic_stringIcSt11char_traitsIcESaIcEEESt4pairIKS5_PN7libMesh10Parameters5ValueEESt10_Select1stISC_ESt4lessIvESaISC_EE29_M_get_insert_hint_unique_posESt23_Rb_tree_const_iteratorISC_ERS7_
FN:2193,_ZNSt8_Rb_treeINSt7__cxx1112basic_stringIcSt11char_traitsIcESaIcEEESt4pairIKS5_PF15InputParametersvEESt10_Select1stISB_ESt4lessIS5_ESaISB_EE29_M_get_insert_hint_unique_posESt23_Rb_tree_const_iteratorISB_ERS7_
FNDA:0,_ZNSt8_Rb_treeINSt7__cxx1112basic_stringIcSt11char_traitsIcESaIcEEESt4pairIKS5_PF15InputParametersvEESt10_Select1stISB_ESt4lessIS5_ESaISB_EE29_M_get_insert_hint_unique_posESt23_Rb_tree_const_iteratorISB_ERS7_
FN:2193,_ZNSt8_Rb_treeINSt7__cxx1112basic_stringIcSt11char_traitsIcESaIcEEESt4pairIKS5_N15InputParameters8MetadataEESt10_Select1stISA_ESt4lessIS5_ESaISA_EE29_M_get_insert_hint_unique_posESt23_Rb_tree_const_iteratorISA_ERS7_
FNDA:0,_ZNSt8_Rb_treeINSt7__cxx1112basic_stringIcSt11char_traitsIcESaIcEEESt4pairIKS5_N15InputParameters8MetadataEESt10_Select1stISA_ESt4lessIS5_ESaISA_EE29_M_get_insert_hint_unique_posESt23_Rb_tree_const_iteratorISA_ERS7_
FN:2254,_ZNSt8_Rb_treeINSt7__cxx1112basic_stringIcSt11char_traitsIcESaIcEEES5_St9_IdentityIS5_ESt4lessIS5_ESaIS5_EE17_M_insert_unique_IRKS5_NSB_11_Alloc_nodeEEESt17_Rb_tree_iteratorIS5_ESt23_Rb_tree_const_iteratorIS5_EOT_RT0_
FNDA:116,_ZNSt8_Rb_treeINSt7__cxx1112basic_stringIcSt11char_traitsIcESaIcEEES5_St9_IdentityIS5_ESt4lessIS5_ESaIS5_EE17_M_insert_unique_IRKS5_NSB_11_Alloc_nodeEEESt17_Rb_tree_iteratorIS5_ESt23_Rb_tree_const_iteratorIS5_EOT_RT0_
FN:2360,_ZNSt8_Rb_treeINSt7__cxx1112basic_stringIcSt11char_traitsIcESaIcEEESt4pairIKS5_PN7libMesh10Parameters5ValueEESt10_Select1stISC_ESt4lessIvESaISC_EE14_M_insert_nodeEPSt18_Rb_tree_node_baseSK_PSt13_Rb_tree_nodeISC_E
FNDA:0,_ZNSt8_Rb_treeINSt7__cxx1112basic_stringIcSt11char_traitsIcESaIcEEESt4pairIKS5_PN7libMesh10Parameters5ValueEESt10_Select1stISC_ESt4lessIvESaISC_EE14_M_insert_nodeEPSt18_Rb_tree_node_baseSK_PSt13_Rb_tree_nodeISC_E
FN:2360,_ZNSt8_Rb_treeINSt7__cxx1112basic_stringIcSt11char_traitsIcESaIcEEESt4pairIKS5_PF15InputParametersvEESt10_Select1stISB_ESt4lessIS5_ESaISB_EE14_M_insert_nodeEPSt18_Rb_tree_node_baseSJ_PSt13_Rb_tree_nodeISB_E
FNDA:0,_ZNSt8_Rb_treeINSt7__cxx1112basic_stringIcSt11char_traitsIcESaIcEEESt4pairIKS5_PF15InputParametersvEESt10_Select1stISB_ESt4lessIS5_ESaISB_EE14_M_insert_nodeEPSt18_Rb_tree_node_baseSJ_PSt13_Rb_tree_nodeISB_E
FN:2360,_ZNSt8_Rb_treeINSt7__cxx1112basic_stringIcSt11char_traitsIcESaIcEEESt4pairIKS5_PFSt10shared_ptrI8MooseAppERK15InputParametersEESt10_Select1stISG_ESt4lessIS5_ESaISG_EE14_M_insert_nodeEPSt18_Rb_tree_node_baseSO_PSt13_Rb_tree_nodeISG_E
FNDA:0,_ZNSt8_Rb_treeINSt7__cxx1112basic_stringIcSt11char_traitsIcESaIcEEESt4pairIKS5_PFSt10shared_ptrI8MooseAppERK15InputParametersEESt10_Select1stISG_ESt4lessIS5_ESaISG_EE14_M_insert_nodeEPSt18_Rb_tree_node_baseSO_PSt13_Rb_tree_nodeISG_E
FN:2360,_ZNSt8_Rb_treeINSt7__cxx1112basic_stringIcSt11char_traitsIcESaIcEEESt4pairIKS5_N15InputParameters8MetadataEESt10_Select1stISA_ESt4lessIS5_ESaISA_EE14_M_insert_nodeEPSt18_Rb_tree_node_baseSI_PSt13_Rb_tree_nodeISA_E
FNDA:0,_ZNSt8_Rb_treeINSt7__cxx1112basic_stringIcSt11char_traitsIcESaIcEEESt4pairIKS5_N15InputParameters8MetadataEESt10_Select1stISA_ESt4lessIS5_ESaISA_EE14_M_insert_nodeEPSt18_Rb_tree_node_baseSI_PSt13_Rb_tree_nodeISA_E
FN:2458,_ZNSt8_Rb_treeINSt7__cxx1112basic_stringIcSt11char_traitsIcESaIcEEESt4pairIKS5_N15InputParameters8MetadataEESt10_Select1stISA_ESt4lessIS5_ESaISA_EE22_M_emplace_hint_uniqueIJRKSt21piecewise_construct_tSt5tupleIJRS7_EESL_IJEEEEESt17_Rb_tree_iteratorISA_ESt23_Rb_tree_const_iteratorISA_EDpOT_
FNDA:0,_ZNSt8_Rb_treeINSt7__cxx1112basic_stringIcSt11char_traitsIcESaIcEEESt4pairIKS5_N15InputParameters8MetadataEESt10_Select1stISA_ESt4lessIS5_ESaISA_EE22_M_emplace_hint_uniqueIJRKSt21piecewise_construct_tSt5tupleIJRS7_EESL_IJEEEEESt17_Rb_tree_iteratorISA_ESt23_Rb_tree_const_iteratorISA_EDpOT_
FN:2458,_ZNSt8_Rb_treeINSt7__cxx1112basic_stringIcSt11char_traitsIcESaIcEEESt4pairIKS5_PFSt10shared_ptrI8MooseAppERK15InputParametersEESt10_Select1stISG_ESt4lessIS5_ESaISG_EE22_M_emplace_hint_uniqueIJRKSt21piecewise_construct_tSt5tupleIJRS7_EESR_IJEEEEESt17_Rb_tree_iteratorISG_ESt23_Rb_tree_const_iteratorISG_EDpOT_
FNDA:0,_ZNSt8_Rb_treeINSt7__cxx1112basic_stringIcSt11char_traitsIcESaIcEEESt4pairIKS5_PFSt10shared_ptrI8MooseAppERK15InputParametersEESt10_Select1stISG_ESt4lessIS5_ESaISG_EE22_M_emplace_hint_uniqueIJRKSt21piecewise_construct_tSt5tupleIJRS7_EESR_IJEEEEESt17_Rb_tree_iteratorISG_ESt23_Rb_tree_const_iteratorISG_EDpOT_
FN:2458,_ZNSt8_Rb_treeINSt7__cxx1112basic_stringIcSt11char_traitsIcESaIcEEESt4pairIKS5_PF15InputParametersvEESt10_Select1stISB_ESt4lessIS5_ESaISB_EE22_M_emplace_hint_uniqueIJRKSt21piecewise_construct_tSt5tupleIJRS7_EESM_IJEEEEESt17_Rb_tree_iteratorISB_ESt23_Rb_tree_const_iteratorISB_EDpOT_
FNDA:0,_ZNSt8_Rb_treeINSt7__cxx1112basic_stringIcSt11char_traitsIcESaIcEEESt4pairIKS5_PF15InputParametersvEESt10_Select1stISB_ESt4lessIS5_ESaISB_EE22_M_emplace_hint_uniqueIJRKSt21piecewise_construct_tSt5tupleIJRS7_EESM_IJEEEEESt17_Rb_tree_iteratorISB_ESt23_Rb_tree_const_iteratorISB_EDpOT_
FN:2458,_ZNSt8_Rb_treeINSt7__cxx1112basic_stringIcSt11char_traitsIcESaIcEEESt4pairIKS5_PN7libMesh10Parameters5ValueEESt10_Select1stISC_ESt4lessIvESaISC_EE22_M_emplace_hint_uniqueIJRKSt21piecewise_construct_tSt5tupleIJRS7_EESN_IJEEEEESt17_Rb_tree_iteratorISC_ESt23_Rb_tree_const_iteratorISC_EDpOT_
FNDA:0,_ZNSt8_Rb_treeINSt7__cxx1112basic_stringIcSt11char_traitsIcESaIcEEESt4pairIKS5_PN7libMesh10Parameters5ValueEESt10_Select1stISC_ESt4lessIvESaISC_EE22_M_emplace_hint_uniqueIJRKSt21piecewise_construct_tSt5tupleIJRS7_EESN_IJEEEEESt17_Rb_tree_iteratorISC_ESt23_Rb_tree_const_iteratorISC_EDpOT_
FN:2510,_ZNSt8_Rb_treeINSt7__cxx1112basic_stringIcSt11char_traitsIcESaIcEEESt4pairIKS5_PN7libMesh10Parameters5ValueEESt10_Select1stISC_ESt4lessIvESaISC_EE12_M_erase_auxESt23_Rb_tree_const_iteratorISC_E
FNDA:0,_ZNSt8_Rb_treeINSt7__cxx1112basic_stringIcSt11char_traitsIcESaIcEEESt4pairIKS5_PN7libMesh10Parameters5ValueEESt10_Select1stISC_ESt4lessIvESaISC_EE12_M_erase_auxESt23_Rb_tree_const_iteratorISC_E
FN:2550,_ZNSt8_Rb_treeINSt7__cxx1112basic_stringIcSt11char_traitsIcESaIcEEESt4pairIKS5_PN7libMesh10Parameters5ValueEESt10_Select1stISC_ESt4lessIvESaISC_EE4findERS7_
FNDA:0,_ZNSt8_Rb_treeINSt7__cxx1112basic_stringIcSt11char_traitsIcESaIcEEESt4pairIKS5_PN7libMesh10Parameters5ValueEESt10_Select1stISC_ESt4lessIvESaISC_EE4findERS7_
FN:2563,_ZNKSt8_Rb_treeINSt7__cxx1112basic_stringIcSt11char_traitsIcESaIcEEESt4pairIKS5_PF15InputParametersvEESt10_Select1stISB_ESt4lessIS5_ESaISB_EE4findERS7_
FNDA:0,_ZNKSt8_Rb_treeINSt7__cxx1112basic_stringIcSt11char_traitsIcESaIcEEESt4pairIKS5_PF15InputParametersvEESt10_Select1stISB_ESt4lessIS5_ESaISB_EE4findERS7_
FN:2563,_ZNKSt8_Rb_treeINSt7__cxx1112basic_stringIcSt11char_traitsIcESaIcEEESt4pairIKS5_PN7libMesh10Parameters5ValueEESt10_Select1stISC_ESt4lessIvESaISC_EE4findERS7_
FNDA:0,_ZNKSt8_Rb_treeINSt7__cxx1112basic_stringIcSt11char_traitsIcESaIcEEESt4pairIKS5_PN7libMesh10Parameters5ValueEESt10_Select1stISC_ESt4lessIvESaISC_EE4findERS7_
FNF:52
FNH:6
DA:152,116
DA:174,116
DA:175,116
DA:208,116
DA:209,116
DA:210,116
DA:211,116
DA:287,0
DA:302,0
DA:303,0
DA:350,116
DA:351,0
DA:355,0
DA:368,0
DA:369,0
DA:397,0
DA:542,116
DA:543,116
DA:552,116
DA:571,0
DA:613,116
DA:622,0
DA:624,0
DA:626,0
DA:628,116
DA:613,0
DA:622,0
DA:624,0
DA:626,0
DA:628,0
DA:613,0
DA:622,0
DA:624,0
DA:626,0
DA:628,0
DA:613,0
DA:622,0
DA:624,0
DA:626,0
DA:628,0
DA:613,0
DA:622,0
DA:624,0
DA:626,0
DA:628,0
DA:632,116
DA:635,116
DA:636,116
DA:632,0
DA:635,0
DA:636,0
DA:632,0
DA:635,0
DA:636,0
DA:632,0
DA:635,0
DA:636,0
DA:632,0
DA:635,0
DA:636,0
DA:647,116
DA:652,0
DA:656,0
DA:652,0
DA:656,0
DA:714,116
DA:749,116
DA:755,0
DA:760,116
DA:764,0
DA:790,116
DA:794,0
DA:798,0
DA:802,0
DA:991,116
DA:1003,0
DA:1007,0
DA:1011,0
DA:1015,0
DA:1035,0
DA:1039,0
DA:1105,116
DA:1108,232
DA:1109,116
DA:1110,116
DA:1211,0
DA:1214,0
DA:1216,0
DA:1217,0
DA:1277,0
DA:1310,0
DA:1312,0
DA:1313,0
DA:1315,0
DA:1339,0
DA:1343,0
DA:1344,0
DA:1351,0
DA:1803,116
DA:1812,116
DA:1813,116
DA:1818,116
DA:1819,116
DA:1820,116
DA:1821,116
DA:1913,0
DA:1917,0
DA:1919,0
DA:1921,0
DA:1924,0
DA:1913,0
DA:1917,0
DA:1919,0
DA:1921,0
DA:1924,0
DA:1913,232
DA:1917,348
DA:1919,116
DA:1924,232
DA:1913,0
DA:1917,0
DA:1919,0
DA:1924,0
DA:1913,0
DA:1917,0
DA:1919,0
DA:1924,0
DA:1913,0
DA:1917,0
DA:1919,0
DA:1924,0
DA:1930,0
DA:1934,0
DA:1935,0
DA:1939,0
DA:1930,0
DA:1934,0
DA:1935,0
DA:1939,0
DA:1930,0
DA:1934,0
DA:1935,0
DA:1939,0
DA:1930,0
DA:1934,0
DA:1935,0
DA:1939,0
DA:1946,0
DA:1950,0
DA:1951,0
DA:1955,0
DA:1946,0
DA:1950,0
DA:1951,0
DA:1955,0
DA:2091,0
DA:2098,0
DA:2102,0
DA:2105,0
DA:2107,0
DA:2108,0
DA:2112,0
DA:2113,0
DA:2114,0
DA:2091,0
DA:2098,0
DA:2102,0
DA:2105,0
DA:2107,0
DA:2108,0
DA:2112,0
DA:2113,0
DA:2114,0
DA:2091,0
DA:2098,0
DA:2102,0
DA:2105,0
DA:2107,0
DA:2108,0
DA:2112,0
DA:2113,0
DA:2114,0
DA:2091,0
DA:2098,0
DA:2102,0
DA:2105,0
DA:2107,0
DA:2108,0
DA:2112,0
DA:2113,0
DA:2114,0
DA:2091,0
DA:2098,0
DA:2102,0
DA:2105,0
DA:2107,0
DA:2108,0
DA:2112,0
DA:2113,0
DA:2114,0
DA:2193,0
DA:2201,0
DA:2204,0
DA:2205,0
DA:2207,0
DA:2209,0
DA:2213,0
DA:2214,0
DA:2215,0
DA:2217,0
DA:2218,0
DA:2220,0
DA:2223,0
DA:2225,0
DA:2229,0
DA:2230,0
DA:2231,0
DA:2233,0
DA:2234,0
DA:2236,0
DA:2239,0
DA:2243,0
DA:2193,0
DA:2201,0
DA:2204,0
DA:2205,0
DA:2207,0
DA:2209,0
DA:2213,0
DA:2214,0
DA:2215,0
DA:2217,0
DA:2218,0
DA:2220,0
DA:2223,0
DA:2225,0
DA:2229,0
DA:2230,0
DA:2231,0
DA:2233,0
DA:2234,0
DA:2236,0
DA:2239,0
DA:2243,0
DA:2193,0
DA:2201,0
DA:2204,0
DA:2205,0
DA:2207,0
DA:2209,0
DA:2213,0
DA:2214,0
DA:2215,0
DA:2217,0
DA:2218,0
DA:2220,0
DA:2223,0
DA:2225,0
DA:2229,0
DA:2230,0
DA:2231,0
DA:2233,0
DA:2234,0
DA:2236,0
DA:2239,0
DA:2243,0
DA:2193,0
DA:2201,0
DA:2204,0
DA:2205,0
DA:2207,0
DA:2209,0
DA:2213,0
DA:2214,0
DA:2215,0
DA:2217,0
DA:2218,0
DA:2220,0
DA:2223,0
DA:2225,0
DA:2229,0
DA:2230,0
DA:2231,0
DA:2233,0
DA:2234,0
DA:2236,0
DA:2239,0
DA:2243,0
DA:2193,0
DA:2201,0
DA:2204,0
DA:2205,0
DA:2207,0
DA:2209,0
DA:2213,0
DA:2214,0
DA:2215,0
DA:2217,0
DA:2218,0
DA:2220,0
DA:2223,0
DA:2225,0
DA:2229,0
DA:2230,0
DA:2231,0
DA:2233,0
DA:2234,0
DA:2236,0
DA:2239,0
DA:2243,0
DA:2254,116
DA:2264,116
DA:2266,116
DA:2267,116
DA:2270,0
DA:2360,0
DA:2363,0
DA:2364,0
DA:2367,0
DA:2368,0
DA:2369,0
DA:2370,0
DA:2360,0
DA:2363,0
DA:2364,0
DA:2367,0
DA:2368,0
DA:2369,0
DA:2370,0
DA:2360,0
DA:2363,0
DA:2364,0
DA:2367,0
DA:2368,0
DA:2369,0
DA:2370,0
DA:2360,0
DA:2363,0
DA:2364,0
DA:2367,0
DA:2368,0
DA:2369,0
DA:2370,0
DA:2458,0
DA:2461,0
DA:2465,0
DA:2467,0
DA:2468,0
DA:2471,0
DA:2458,0
DA:2461,0
DA:2465,0
DA:2467,0
DA:2468,0
DA:2471,0
DA:2458,0
DA:2461,0
DA:2465,0
DA:2467,0
DA:2468,0
DA:2470,0
DA:2471,0
DA:2458,0
DA:2461,0
DA:2465,0
DA:2467,0
DA:2468,0
DA:2471,0
DA:2510,0
DA:2515,0
DA:2516,0
DA:2518,0
DA:2519,0
DA:2550,0
DA:2553,0
DA:2555,0
DA:2556,0
DA:2563,0
DA:2566,0
DA:2568,0
DA:2569,0
DA:2563,0
DA:2566,0
DA:2568,0
DA:2569,0
LF:385
LH:41
end_of_record
SF:/usr/share/miniconda/envs/moose/libmesh/include/libmesh/threads_pthread.h
FN:147,_ZN7libMesh7Threads10spin_mutexD2Ev
FNDA:0,_ZN7libMesh7Threads10spin_mutexD2Ev
FN:524,_ZN7libMesh7Threads6atomicIjEppEv
FNDA:0,_ZN7libMesh7Threads6atomicIjEppEv
FN:538,_ZN7libMesh7Threads6atomicIjEmmEv
FNDA:0,_ZN7libMesh7Threads6atomicIjEmmEv
FNF:3
FNH:0
DA:147,0
DA:149,0
DA:150,0
DA:524,0
DA:527,0
DA:528,0
DA:538,0
DA:541,0
DA:542,0
LF:9
LH:0
end_of_record
SF:/usr/share/miniconda/envs/moose/x86_64-conda-linux-gnu/include/c++/10.3.0/bits/allocated_ptr.h
FN:70,_ZNSt15__allocated_ptrISaISt23_Sp_counted_ptr_inplaceI10raccoonAppSaIS1_ELN9__gnu_cxx12_Lock_policyE2EEEED2Ev
FNDA:0,_ZNSt15__allocated_ptrISaISt23_Sp_counted_ptr_inplaceI10raccoonAppSaIS1_ELN9__gnu_cxx12_Lock_policyE2EEEED2Ev
FNF:1
FNH:0
DA:52,0
DA:53,0
DA:70,0
DA:72,0
DA:74,0
DA:80,0
LF:6
LH:0
end_of_record
SF:/usr/share/miniconda/envs/moose/x86_64-conda-linux-gnu/include/c++/10.3.0/sstream
DA:678,0
LF:1
LH:0
end_of_record
SF:/usr/share/miniconda/envs/moose/x86_64-conda-linux-gnu/include/c++/10.3.0/bits/shared_ptr_base.h
FN:555,_ZNSt23_Sp_counted_ptr_inplaceI10raccoonAppSaIS0_ELN9__gnu_cxx12_Lock_policyE2EED0Ev
FNDA:0,_ZNSt23_Sp_counted_ptr_inplaceI10raccoonAppSaIS0_ELN9__gnu_cxx12_Lock_policyE2EED0Ev
FN:555,_ZNSt23_Sp_counted_ptr_inplaceI10raccoonAppSaIS0_ELN9__gnu_cxx12_Lock_policyE2EED2Ev
FNDA:0,_ZNSt23_Sp_counted_ptr_inplaceI10raccoonAppSaIS0_ELN9__gnu_cxx12_Lock_policyE2EED2Ev
FN:558,_ZNSt23_Sp_counted_ptr_inplaceI10raccoonAppSaIS0_ELN9__gnu_cxx12_Lock_policyE2EE10_M_disposeEv
FNDA:0,_ZNSt23_Sp_counted_ptr_inplaceI10raccoonAppSaIS0_ELN9__gnu_cxx12_Lock_policyE2EE10_M_disposeEv
FN:565,_ZNSt23_Sp_counted_ptr_inplaceI10raccoonAppSaIS0_ELN9__gnu_cxx12_Lock_policyE2EE10_M_destroyEv
FNDA:0,_ZNSt23_Sp_counted_ptr_inplaceI10raccoonAppSaIS0_ELN9__gnu_cxx12_Lock_policyE2EE10_M_destroyEv
FN:578,_ZNSt23_Sp_counted_ptr_inplaceI10raccoonAppSaIS0_ELN9__gnu_cxx12_Lock_policyE2EE14_M_get_deleterERKSt9type_info
FNDA:0,_ZNSt23_Sp_counted_ptr_inplaceI10raccoonAppSaIS0_ELN9__gnu_cxx12_Lock_policyE2EE14_M_get_deleterERKSt9type_info
FN:675,_ZNSt14__shared_countILN9__gnu_cxx12_Lock_policyE2EEC2I10raccoonAppSaIS4_EJRK15InputParametersEEERPT_St20_Sp_alloc_shared_tagIT0_EDpOT1_
FNDA:0,_ZNSt14__shared_countILN9__gnu_cxx12_Lock_policyE2EEC2I10raccoonAppSaIS4_EJRK15InputParametersEEERPT_St20_Sp_alloc_shared_tagIT0_EDpOT1_
FNF:6
FNH:0
DA:120,0
DA:121,0
DA:534,0
DA:546,0
DA:547,0
DA:553,0
DA:555,0
DA:555,0
DA:555,0
DA:558,0
DA:561,0
DA:565,0
DA:568,0
DA:570,0
DA:578,0
DA:586,0
DA:588,0
DA:593,0
DA:675,0
DA:680,0
DA:682,0
DA:685,0
DA:686,0
DA:687,0
DA:761,0
DA:763,0
DA:1199,0
DA:1370,0
DA:1371,0
LF:29
LH:0
end_of_record
TN:
SF:/home/runner/work/raccoon/raccoon/src/base/raccoonAppTypes.C
LF:0
LH:0
end_of_record
SF:/usr/share/miniconda/envs/moose/x86_64-conda-linux-gnu/include/c++/10.3.0/bits/stl_iterator_base_funcs.h
DA:104,37
LF:1
LH:1
end_of_record
SF:/home/runner/work/raccoon/raccoon/moose/framework/build/header_symlinks/MooseEnumItem.h
FN:24,_ZN13MooseEnumItemD2Ev
FNDA:37,_ZN13MooseEnumItemD2Ev
FNF:1
FNH:1
DA:24,37
LF:1
LH:1
end_of_record
SF:/usr/share/miniconda/envs/moose/x86_64-conda-linux-gnu/include/c++/10.3.0/iostream
LF:0
LH:0
end_of_record
SF:/usr/share/miniconda/envs/moose/x86_64-conda-linux-gnu/include/c++/10.3.0/bits/basic_string.h
FN:525,_ZNSt7__cxx1112basic_stringIcSt11char_traitsIcESaIcEEC2IS3_EEPKcRKS3_
FNDA:37,_ZNSt7__cxx1112basic_stringIcSt11char_traitsIcESaIcEEC2IS3_EEPKcRKS3_
FNF:1
FNH:1
DA:156,37
DA:157,37
DA:179,0
DA:183,37
DA:187,74
DA:193,37
DA:211,0
DA:217,37
DA:247,37
DA:398,37
DA:525,37
DA:527,37
DA:658,37
LF:13
LH:11
end_of_record
SF:/usr/share/miniconda/envs/moose/x86_64-conda-linux-gnu/include/c++/10.3.0/bits/char_traits.h
DA:329,37
DA:371,37
LF:2
LH:2
end_of_record
SF:/usr/share/miniconda/envs/moose/x86_64-conda-linux-gnu/include/c++/10.3.0/bits/basic_string.tcc
FN:206,_ZNSt7__cxx1112basic_stringIcSt11char_traitsIcESaIcEE12_M_constructIPKcEEvT_S8_St20forward_iterator_tag
FNDA:37,_ZNSt7__cxx1112basic_stringIcSt11char_traitsIcESaIcEE12_M_constructIPKcEEvT_S8_St20forward_iterator_tag
FNF:1
FNH:1
DA:206,37
DA:211,37
DA:212,0
DA:215,37
DA:217,37
DA:219,0
DA:220,0
DA:232,37
DA:233,37
LF:9
LH:6
end_of_record
TN:
SF:/usr/share/miniconda/envs/moose/x86_64-conda-linux-gnu/include/c++/10.3.0/bits/stl_iterator_base_funcs.h
FN:174,_ZSt9__advanceIPKmlEvRT_T0_St26random_access_iterator_tag
FNDA:0,_ZSt9__advanceIPKmlEvRT_T0_St26random_access_iterator_tag
FNF:1
FNH:0
DA:104,1607
DA:174,0
DA:180,0
DA:181,0
DA:182,0
DA:183,0
DA:185,0
DA:186,0
DA:206,0
LF:9
LH:1
end_of_record
SF:/usr/share/miniconda/envs/moose/libmesh/include/libmesh/libmesh_exceptions.h
DA:82,0
LF:1
LH:0
end_of_record
SF:/usr/share/miniconda/envs/moose/libmesh/include/metaphysicl/dualnumber_decl.h
DA:57,284297000
DA:174,83961100
DA:177,33905100
LF:3
LH:3
end_of_record
SF:/usr/share/miniconda/envs/moose/libmesh/include/libmesh/int_range.h
DA:63,46726200
DA:64,46726200
LF:2
LH:2
end_of_record
SF:/usr/share/miniconda/envs/moose/x86_64-conda-linux-gnu/include/c++/10.3.0/bits/move.h
FN:189,_ZSt4swapIN11MetaPhysicL10DualNumberIdNS0_28SemiDynamicSparseNumberArrayIdmNS0_8NWrapperILm53EEEEELb1EEEENSt9enable_ifIXsrSt6__and_IJSt6__not_ISt15__is_tuple_likeIT_EESt21is_move_constructibleISB_ESt18is_move_assignableISB_EEE5valueEvE4typeERSB_SL_
FNDA:6351440,_ZSt4swapIN11MetaPhysicL10DualNumberIdNS0_28SemiDynamicSparseNumberArrayIdmNS0_8NWrapperILm53EEEEELb1EEEENSt9enable_ifIXsrSt6__and_IJSt6__not_ISt15__is_tuple_likeIT_EESt21is_move_constructibleISB_ESt18is_move_assignableISB_EEE5valueEvE4typeERSB_SL_
FNF:1
FNH:1
DA:189,6351440
DA:197,6351440
DA:198,6351440
DA:199,6351440
DA:200,6351440
LF:5
LH:5
end_of_record
SF:/usr/share/miniconda/envs/moose/libmesh/include/metaphysicl/raw_type.h
DA:73,7787700
DA:131,5191800
DA:139,2595900
LF:3
LH:3
end_of_record
SF:/usr/share/miniconda/envs/moose/libmesh/include/Eigen/src/Core/AssignEvaluator.h
FN:204,_ZN5Eigen8internal55copy_using_evaluator_DefaultTraversal_CompleteUnrollingINS0_31generic_dense_assignment_kernelINS0_9evaluatorINS_6MatrixIN11MetaPhysicL10DualNumberIdNS5_28SemiDynamicSparseNumberArrayIdmNS5_8NWrapperILm53EEEEELb1EEELi3ELi3ELi0ELi3ELi3EEEEENS3_INS_14CwiseNullaryOpINS0_18scalar_identity_opISB_EESC_EEEENS0_9assign_opISB_SB_EELi0EEELi6ELi9EE3runERSL_
FNDA:2590980,_ZN5Eigen8internal55copy_using_evaluator_DefaultTraversal_CompleteUnrollingINS0_31generic_dense_assignment_kernelINS0_9evaluatorINS_6MatrixIN11MetaPhysicL10DualNumberIdNS5_28SemiDynamicSparseNumberArrayIdmNS5_8NWrapperILm53EEEEELb1EEELi3ELi3ELi0ELi3ELi3EEEEENS3_INS_14CwiseNullaryOpINS0_18scalar_identity_opISB_EESC_EEEENS0_9assign_opISB_SB_EELi0EEELi6ELi9EE3runERSL_
FN:204,_ZN5Eigen8internal55copy_using_evaluator_DefaultTraversal_CompleteUnrollingINS0_31generic_dense_assignment_kernelINS0_9evaluatorINS_6MatrixIN11MetaPhysicL10DualNumberIdNS5_28SemiDynamicSparseNumberArrayIdmNS5_8NWrapperILm53EEEEELb1EEELi3ELi3ELi0ELi3ELi3EEEEENS3_INS_14CwiseNullaryOpINS0_18scalar_identity_opISB_EESC_EEEENS0_9assign_opISB_SB_EELi0EEELi5ELi9EE3runERSL_
FNDA:2590980,_ZN5Eigen8internal55copy_using_evaluator_DefaultTraversal_CompleteUnrollingINS0_31generic_dense_assignment_kernelINS0_9evaluatorINS_6MatrixIN11MetaPhysicL10DualNumberIdNS5_28SemiDynamicSparseNumberArrayIdmNS5_8NWrapperILm53EEEEELb1EEELi3ELi3ELi0ELi3ELi3EEEEENS3_INS_14CwiseNullaryOpINS0_18scalar_identity_opISB_EESC_EEEENS0_9assign_opISB_SB_EELi0EEELi5ELi9EE3runERSL_
FN:204,_ZN5Eigen8internal55copy_using_evaluator_DefaultTraversal_CompleteUnrollingINS0_31generic_dense_assignment_kernelINS0_9evaluatorINS_6MatrixIN11MetaPhysicL10DualNumberIdNS5_28SemiDynamicSparseNumberArrayIdmNS5_8NWrapperILm53EEEEELb1EEELi3ELi3ELi0ELi3ELi3EEEEENS3_INS_14CwiseNullaryOpINS0_18scalar_identity_opISB_EESC_EEEENS0_9assign_opISB_SB_EELi0EEELi4ELi9EE3runERSL_
FNDA:2590980,_ZN5Eigen8internal55copy_using_evaluator_DefaultTraversal_CompleteUnrollingINS0_31generic_dense_assignment_kernelINS0_9evaluatorINS_6MatrixIN11MetaPhysicL10DualNumberIdNS5_28SemiDynamicSparseNumberArrayIdmNS5_8NWrapperILm53EEEEELb1EEELi3ELi3ELi0ELi3ELi3EEEEENS3_INS_14CwiseNullaryOpINS0_18scalar_identity_opISB_EESC_EEEENS0_9assign_opISB_SB_EELi0EEELi4ELi9EE3runERSL_
FN:204,_ZN5Eigen8internal55copy_using_evaluator_DefaultTraversal_CompleteUnrollingINS0_31generic_dense_assignment_kernelINS0_9evaluatorINS_6MatrixIN11MetaPhysicL10DualNumberIdNS5_28SemiDynamicSparseNumberArrayIdmNS5_8NWrapperILm53EEEEELb1EEELi3ELi3ELi0ELi3ELi3EEEEENS3_INS_14CwiseNullaryOpINS0_18scalar_identity_opISB_EESC_EEEENS0_9assign_opISB_SB_EELi0EEELi3ELi9EE3runERSL_
FNDA:2590980,_ZN5Eigen8internal55copy_using_evaluator_DefaultTraversal_CompleteUnrollingINS0_31generic_dense_assignment_kernelINS0_9evaluatorINS_6MatrixIN11MetaPhysicL10DualNumberIdNS5_28SemiDynamicSparseNumberArrayIdmNS5_8NWrapperILm53EEEEELb1EEELi3ELi3ELi0ELi3ELi3EEEEENS3_INS_14CwiseNullaryOpINS0_18scalar_identity_opISB_EESC_EEEENS0_9assign_opISB_SB_EELi0EEELi3ELi9EE3runERSL_
FN:204,_ZN5Eigen8internal55copy_using_evaluator_DefaultTraversal_CompleteUnrollingINS0_31generic_dense_assignment_kernelINS0_9evaluatorINS_6MatrixIN11MetaPhysicL10DualNumberIdNS5_28SemiDynamicSparseNumberArrayIdmNS5_8NWrapperILm53EEEEELb1EEELi3ELi3ELi0ELi3ELi3EEEEENS3_INS_14CwiseNullaryOpINS0_18scalar_identity_opISB_EESC_EEEENS0_9assign_opISB_SB_EELi0EEELi2ELi9EE3runERSL_
FNDA:2590980,_ZN5Eigen8internal55copy_using_evaluator_DefaultTraversal_CompleteUnrollingINS0_31generic_dense_assignment_kernelINS0_9evaluatorINS_6MatrixIN11MetaPhysicL10DualNumberIdNS5_28SemiDynamicSparseNumberArrayIdmNS5_8NWrapperILm53EEEEELb1EEELi3ELi3ELi0ELi3ELi3EEEEENS3_INS_14CwiseNullaryOpINS0_18scalar_identity_opISB_EESC_EEEENS0_9assign_opISB_SB_EELi0EEELi2ELi9EE3runERSL_
FN:204,_ZN5Eigen8internal55copy_using_evaluator_DefaultTraversal_CompleteUnrollingINS0_31generic_dense_assignment_kernelINS0_9evaluatorINS_6MatrixIN11MetaPhysicL10DualNumberIdNS5_28SemiDynamicSparseNumberArrayIdmNS5_8NWrapperILm53EEEEELb1EEELi3ELi3ELi0ELi3ELi3EEEEENS3_INS_14CwiseNullaryOpINS0_18scalar_identity_opISB_EESC_EEEENS0_9assign_opISB_SB_EELi0EEELi1ELi9EE3runERSL_
FNDA:2590980,_ZN5Eigen8internal55copy_using_evaluator_DefaultTraversal_CompleteUnrollingINS0_31generic_dense_assignment_kernelINS0_9evaluatorINS_6MatrixIN11MetaPhysicL10DualNumberIdNS5_28SemiDynamicSparseNumberArrayIdmNS5_8NWrapperILm53EEEEELb1EEELi3ELi3ELi0ELi3ELi3EEEEENS3_INS_14CwiseNullaryOpINS0_18scalar_identity_opISB_EESC_EEEENS0_9assign_opISB_SB_EELi0EEELi1ELi9EE3runERSL_
FN:204,_ZN5Eigen8internal55copy_using_evaluator_DefaultTraversal_CompleteUnrollingINS0_31generic_dense_assignment_kernelINS0_9evaluatorINS_6MatrixIN11MetaPhysicL10DualNumberIdNS5_28SemiDynamicSparseNumberArrayIdmNS5_8NWrapperILm53EEEEELb1EEELi3ELi3ELi0ELi3ELi3EEEEENS3_INS_14CwiseNullaryOpINS0_18scalar_identity_opISB_EESC_EEEENS0_9assign_opISB_SB_EELi0EEELi0ELi9EE3runERSL_
FNDA:2590980,_ZN5Eigen8internal55copy_using_evaluator_DefaultTraversal_CompleteUnrollingINS0_31generic_dense_assignment_kernelINS0_9evaluatorINS_6MatrixIN11MetaPhysicL10DualNumberIdNS5_28SemiDynamicSparseNumberArrayIdmNS5_8NWrapperILm53EEEEELb1EEELi3ELi3ELi0ELi3ELi3EEEEENS3_INS_14CwiseNullaryOpINS0_18scalar_identity_opISB_EESC_EEEENS0_9assign_opISB_SB_EELi0EEELi0ELi9EE3runERSL_
FN:204,_ZN5Eigen8internal55copy_using_evaluator_DefaultTraversal_CompleteUnrollingINS0_31generic_dense_assignment_kernelINS0_9evaluatorINS_6MatrixIN11MetaPhysicL10DualNumberIdNS5_28SemiDynamicSparseNumberArrayIdmNS5_8NWrapperILm53EEEEELb1EEELi3ELi3ELi0ELi3ELi3EEEEENS3_INS_14CwiseNullaryOpINS0_18scalar_identity_opISB_EESC_EEEENS0_9assign_opISB_SB_EELi0EEELi7ELi9EE3runERSL_
FNDA:2590980,_ZN5Eigen8internal55copy_using_evaluator_DefaultTraversal_CompleteUnrollingINS0_31generic_dense_assignment_kernelINS0_9evaluatorINS_6MatrixIN11MetaPhysicL10DualNumberIdNS5_28SemiDynamicSparseNumberArrayIdmNS5_8NWrapperILm53EEEEELb1EEELi3ELi3ELi0ELi3ELi3EEEEENS3_INS_14CwiseNullaryOpINS0_18scalar_identity_opISB_EESC_EEEENS0_9assign_opISB_SB_EELi0EEELi7ELi9EE3runERSL_
FN:240,_ZN5Eigen8internal54copy_using_evaluator_LinearTraversal_CompleteUnrollingINS0_31generic_dense_assignment_kernelINS0_9evaluatorINS_5BlockINS_6MatrixIN11MetaPhysicL10DualNumberIdNS6_28SemiDynamicSparseNumberArrayIdmNS6_8NWrapperILm53EEEEELb1EEELi3ELi3ELi0ELi3ELi3EEELi3ELi1ELb1EEEEESF_NS0_14swap_assign_opISC_EELi0EEELi1ELi3EE3runERSI_
FNDA:1587860,_ZN5Eigen8internal54copy_using_evaluator_LinearTraversal_CompleteUnrollingINS0_31generic_dense_assignment_kernelINS0_9evaluatorINS_5BlockINS_6MatrixIN11MetaPhysicL10DualNumberIdNS6_28SemiDynamicSparseNumberArrayIdmNS6_8NWrapperILm53EEEEELb1EEELi3ELi3ELi0ELi3ELi3EEELi3ELi1ELb1EEEEESF_NS0_14swap_assign_opISC_EELi0EEELi1ELi3EE3runERSI_
FN:240,_ZN5Eigen8internal54copy_using_evaluator_LinearTraversal_CompleteUnrollingINS0_31generic_dense_assignment_kernelINS0_9evaluatorINS_6MatrixIN11MetaPhysicL10DualNumberIdNS5_28SemiDynamicSparseNumberArrayIdmNS5_8NWrapperILm53EEEEELb1EEELi3ELi1ELi0ELi3ELi1EEEEENS3_INS_14CwiseNullaryOpINS0_18scalar_constant_opISB_EESC_EEEENS0_13mul_assign_opISB_SB_EELi0EEELi0ELi3EE3runERSL_
FNDA:2595900,_ZN5Eigen8internal54copy_using_evaluator_LinearTraversal_CompleteUnrollingINS0_31generic_dense_assignment_kernelINS0_9evaluatorINS_6MatrixIN11MetaPhysicL10DualNumberIdNS5_28SemiDynamicSparseNumberArrayIdmNS5_8NWrapperILm53EEEEELb1EEELi3ELi1ELi0ELi3ELi1EEEEENS3_INS_14CwiseNullaryOpINS0_18scalar_constant_opISB_EESC_EEEENS0_13mul_assign_opISB_SB_EELi0EEELi0ELi3EE3runERSL_
FN:240,_ZN5Eigen8internal54copy_using_evaluator_LinearTraversal_CompleteUnrollingINS0_31generic_dense_assignment_kernelINS0_9evaluatorINS_5BlockINS_6MatrixIN11MetaPhysicL10DualNumberIdNS6_28SemiDynamicSparseNumberArrayIdmNS6_8NWrapperILm53EEEEELb1EEELi3ELi3ELi0ELi3ELi3EEELi3ELi1ELb1EEEEESF_NS0_14swap_assign_opISC_EELi0EEELi0ELi3EE3runERSI_
FNDA:1587860,_ZN5Eigen8internal54copy_using_evaluator_LinearTraversal_CompleteUnrollingINS0_31generic_dense_assignment_kernelINS0_9evaluatorINS_5BlockINS_6MatrixIN11MetaPhysicL10DualNumberIdNS6_28SemiDynamicSparseNumberArrayIdmNS6_8NWrapperILm53EEEEELb1EEELi3ELi3ELi0ELi3ELi3EEELi3ELi1ELb1EEEEESF_NS0_14swap_assign_opISC_EELi0EEELi0ELi3EE3runERSI_
FN:240,_ZN5Eigen8internal54copy_using_evaluator_LinearTraversal_CompleteUnrollingINS0_31generic_dense_assignment_kernelINS0_9evaluatorINS_6MatrixIN11MetaPhysicL10DualNumberIdNS5_28SemiDynamicSparseNumberArrayIdmNS5_8NWrapperILm53EEEEELb1EEELi3ELi1ELi0ELi3ELi1EEEEENS3_INS_14CwiseNullaryOpINS0_18scalar_constant_opISB_EESC_EEEENS0_13mul_assign_opISB_SB_EELi0EEELi1ELi3EE3runERSL_
FNDA:2595900,_ZN5Eigen8internal54copy_using_evaluator_LinearTraversal_CompleteUnrollingINS0_31generic_dense_assignment_kernelINS0_9evaluatorINS_6MatrixIN11MetaPhysicL10DualNumberIdNS5_28SemiDynamicSparseNumberArrayIdmNS5_8NWrapperILm53EEEEELb1EEELi3ELi1ELi0ELi3ELi1EEEEENS3_INS_14CwiseNullaryOpINS0_18scalar_constant_opISB_EESC_EEEENS0_13mul_assign_opISB_SB_EELi0EEELi1ELi3EE3runERSL_
FN:629,_ZN5Eigen8internal31generic_dense_assignment_kernelINS0_9evaluatorINS_6MatrixIN11MetaPhysicL10DualNumberIdNS4_28SemiDynamicSparseNumberArrayIdmNS4_8NWrapperILm53EEEEELb1EEELi3ELi3ELi0ELi3ELi3EEEEENS2_INS_14TriangularViewIKSB_Lj1EEEEENS0_9assign_opISA_SA_EELi0EE11assignCoeffEll
FNDA:15575400,_ZN5Eigen8internal31generic_dense_assignment_kernelINS0_9evaluatorINS_6MatrixIN11MetaPhysicL10DualNumberIdNS4_28SemiDynamicSparseNumberArrayIdmNS4_8NWrapperILm53EEEEELb1EEELi3ELi3ELi0ELi3ELi3EEEEENS2_INS_14TriangularViewIKSB_Lj1EEEEENS0_9assign_opISA_SA_EELi0EE11assignCoeffEll
FN:629,_ZN5Eigen8internal31generic_dense_assignment_kernelINS0_9evaluatorINS_6MatrixIN11MetaPhysicL10DualNumberIdNS4_28SemiDynamicSparseNumberArrayIdmNS4_8NWrapperILm53EEEEELb1EEELi3ELi3ELi0ELi3ELi3EEEEENS2_INS_14CwiseNullaryOpINS0_18scalar_identity_opISA_EESB_EEEENS0_9assign_opISA_SA_EELi0EE11assignCoeffEll
FNDA:23318800,_ZN5Eigen8internal31generic_dense_assignment_kernelINS0_9evaluatorINS_6MatrixIN11MetaPhysicL10DualNumberIdNS4_28SemiDynamicSparseNumberArrayIdmNS4_8NWrapperILm53EEEEELb1EEELi3ELi3ELi0ELi3ELi3EEEEENS2_INS_14CwiseNullaryOpINS0_18scalar_identity_opISA_EESB_EEEENS0_9assign_opISA_SA_EELi0EE11assignCoeffEll
FN:629,_ZN5Eigen8internal31generic_dense_assignment_kernelINS0_9evaluatorINS_14TriangularViewINS_6MatrixIN11MetaPhysicL10DualNumberIdNS5_28SemiDynamicSparseNumberArrayIdmNS5_8NWrapperILm53EEEEELb1EEELi3ELi3ELi0ELi3ELi3EEELj1EEEEENS2_INS_13CwiseBinaryOpINS0_18scalar_quotient_opISB_SB_EEKSC_KNS_14CwiseNullaryOpINS0_18scalar_constant_opISB_EESI_EEEEEENS0_9assign_opISB_SB_EELi0EE11assignCoeffEll
FNDA:15575400,_ZN5Eigen8internal31generic_dense_assignment_kernelINS0_9evaluatorINS_14TriangularViewINS_6MatrixIN11MetaPhysicL10DualNumberIdNS5_28SemiDynamicSparseNumberArrayIdmNS5_8NWrapperILm53EEEEELb1EEELi3ELi3ELi0ELi3ELi3EEELj1EEEEENS2_INS_13CwiseBinaryOpINS0_18scalar_quotient_opISB_SB_EEKSC_KNS_14CwiseNullaryOpINS0_18scalar_constant_opISB_EESI_EEEEEENS0_9assign_opISB_SB_EELi0EE11assignCoeffEll
FN:635,_ZN5Eigen8internal31generic_dense_assignment_kernelINS0_9evaluatorINS_5BlockINS_6MatrixIN11MetaPhysicL10DualNumberIdNS5_28SemiDynamicSparseNumberArrayIdmNS5_8NWrapperILm53EEEEELb1EEELi3ELi3ELi0ELi3ELi3EEELi3ELi1ELb1EEEEESE_NS0_14swap_assign_opISB_EELi1EE11assignCoeffEl
FNDA:4763580,_ZN5Eigen8internal31generic_dense_assignment_kernelINS0_9evaluatorINS_5BlockINS_6MatrixIN11MetaPhysicL10DualNumberIdNS5_28SemiDynamicSparseNumberArrayIdmNS5_8NWrapperILm53EEEEELb1EEELi3ELi3ELi0ELi3ELi3EEELi3ELi1ELb1EEEEESE_NS0_14swap_assign_opISB_EELi1EE11assignCoeffEl
FN:635,_ZN5Eigen8internal31generic_dense_assignment_kernelINS0_9evaluatorINS_6MatrixIN11MetaPhysicL10DualNumberIdNS4_28SemiDynamicSparseNumberArrayIdmNS4_8NWrapperILm53EEEEELb1EEELi3ELi1ELi0ELi3ELi1EEEEENS2_INS_14CwiseNullaryOpINS0_18scalar_constant_opISA_EESB_EEEENS0_13mul_assign_opISA_SA_EELi0EE11assignCoeffEl
FNDA:7787700,_ZN5Eigen8internal31generic_dense_assignment_kernelINS0_9evaluatorINS_6MatrixIN11MetaPhysicL10DualNumberIdNS4_28SemiDynamicSparseNumberArrayIdmNS4_8NWrapperILm53EEEEELb1EEELi3ELi1ELi0ELi3ELi1EEEEENS2_INS_14CwiseNullaryOpINS0_18scalar_constant_opISA_EESB_EEEENS0_13mul_assign_opISA_SA_EELi0EE11assignCoeffEl
FN:725,_ZN5Eigen8internal26call_dense_assignment_loopINS_5BlockINS_6MatrixIN11MetaPhysicL10DualNumberIdNS4_28SemiDynamicSparseNumberArrayIdmNS4_8NWrapperILm53EEEEELb1EEELi3ELi3ELi0ELi3ELi3EEELi3ELi1ELb1EEESC_NS0_14swap_assign_opISA_EEEEvRT_RKT0_RKT1_
FNDA:1587860,_ZN5Eigen8internal26call_dense_assignment_loopINS_5BlockINS_6MatrixIN11MetaPhysicL10DualNumberIdNS4_28SemiDynamicSparseNumberArrayIdmNS4_8NWrapperILm53EEEEELb1EEELi3ELi3ELi0ELi3ELi3EEELi3ELi1ELb1EEESC_NS0_14swap_assign_opISA_EEEEvRT_RKT0_RKT1_
FN:725,_ZN5Eigen8internal26call_dense_assignment_loopINS_6MatrixIN11MetaPhysicL10DualNumberIdNS3_28SemiDynamicSparseNumberArrayIdmNS3_8NWrapperILm53EEEEELb1EEELi3ELi1ELi0ELi3ELi1EEENS_14CwiseNullaryOpINS0_18scalar_constant_opIS9_EESA_EENS0_13mul_assign_opIS9_S9_EEEEvRT_RKT0_RKT1_
FNDA:2595900,_ZN5Eigen8internal26call_dense_assignment_loopINS_6MatrixIN11MetaPhysicL10DualNumberIdNS3_28SemiDynamicSparseNumberArrayIdmNS3_8NWrapperILm53EEEEELb1EEELi3ELi1ELi0ELi3ELi1EEENS_14CwiseNullaryOpINS0_18scalar_constant_opIS9_EESA_EENS0_13mul_assign_opIS9_S9_EEEEvRT_RKT0_RKT1_
FN:780,_ZN5Eigen8internal15call_assignmentINS_6MatrixIN11MetaPhysicL10DualNumberIdNS3_28SemiDynamicSparseNumberArrayIdmNS3_8NWrapperILm53EEEEELb1EEELi3ELi3ELi0ELi3ELi3EEENS_14CwiseNullaryOpINS0_18scalar_identity_opIS9_EESA_EEEEvRT_RKT0_
FNDA:2590980,_ZN5Eigen8internal15call_assignmentINS_6MatrixIN11MetaPhysicL10DualNumberIdNS3_28SemiDynamicSparseNumberArrayIdmNS3_8NWrapperILm53EEEEELb1EEELi3ELi3ELi0ELi3ELi3EEENS_14CwiseNullaryOpINS0_18scalar_identity_opIS9_EESA_EEEEvRT_RKT0_
FNF:20
FNH:20
DA:204,2590980
DA:208,2590980
DA:204,2590980
DA:207,2590980
DA:208,2590980
DA:204,2590980
DA:207,2590980
DA:208,2590980
DA:204,2590980
DA:207,2590980
DA:208,2590980
DA:204,2590980
DA:207,2590980
DA:208,2590980
DA:204,2590980
DA:207,2590980
DA:208,2590980
DA:204,2590980
DA:207,2590980
DA:208,2590980
DA:204,2590980
DA:207,2590980
DA:208,2590980
DA:240,1587860
DA:242,1587860
DA:244,1587860
DA:240,2595900
DA:242,2595900
DA:244,2595900
DA:240,1587860
DA:242,1587860
DA:243,1587860
DA:244,1587860
DA:240,2595900
DA:242,2595900
DA:243,2595900
DA:244,2595900
DA:338,2590980
DA:507,4183760
DA:610,11966500
DA:611,11966500
DA:629,23318800
DA:631,23318800
DA:632,23318800
DA:629,15575400
DA:631,15575400
DA:632,15575400
DA:629,15575400
DA:631,15575400
DA:632,15575400
DA:635,4763580
DA:637,4763580
DA:638,4763580
DA:635,7787700
DA:637,7787700
DA:638,7787700
DA:645,20727800
DA:725,1587860
DA:742,1587860
DA:725,2595900
DA:742,2595900
DA:780,2590980
DA:782,2595900
DA:783,2590980
DA:879,4183760
LF:65
LH:65
end_of_record
SF:/usr/share/miniconda/envs/moose/libmesh/include/Eigen/src/Core/TriangularMatrix.h
FN:384,_ZN5Eigen18TriangularViewImplINS_6MatrixIN11MetaPhysicL10DualNumberIdNS2_28SemiDynamicSparseNumberArrayIdmNS2_8NWrapperILm53EEEEELb1EEELi3ELi3ELi0ELi3ELi3EEELj1ENS_5DenseEEdVERKS8_
FNDA:2595900,_ZN5Eigen18TriangularViewImplINS_6MatrixIN11MetaPhysicL10DualNumberIdNS2_28SemiDynamicSparseNumberArrayIdmNS2_8NWrapperILm53EEEEELb1EEELi3ELi3ELi0ELi3ELi3EEELj1ENS_5DenseEEdVERKS8_
FN:776,_ZN5Eigen8internal34triangular_dense_assignment_kernelILi1ELi0ELi1ENS0_9evaluatorINS_6MatrixIN11MetaPhysicL10DualNumberIdNS4_28SemiDynamicSparseNumberArrayIdmNS4_8NWrapperILm53EEEEELb1EEELi3ELi3ELi0ELi3ELi3EEEEENS2_INS_14TriangularViewIKSB_Lj1EEEEENS0_9assign_opISA_SA_EELi0EE19assignOppositeCoeffEll
FNDA:7787700,_ZN5Eigen8internal34triangular_dense_assignment_kernelILi1ELi0ELi1ENS0_9evaluatorINS_6MatrixIN11MetaPhysicL10DualNumberIdNS4_28SemiDynamicSparseNumberArrayIdmNS4_8NWrapperILm53EEEEELb1EEELi3ELi3ELi0ELi3ELi3EEEEENS2_INS_14TriangularViewIKSB_Lj1EEEEENS0_9assign_opISA_SA_EELi0EE19assignOppositeCoeffEll
FN:786,_ZN5Eigen8internal31call_triangular_assignment_loopILi1ELb0ENS_14TriangularViewINS_6MatrixIN11MetaPhysicL10DualNumberIdNS4_28SemiDynamicSparseNumberArrayIdmNS4_8NWrapperILm53EEEEELb1EEELi3ELi3ELi0ELi3ELi3EEELj1EEENS_13CwiseBinaryOpINS0_18scalar_quotient_opISA_SA_EEKSB_KNS_14CwiseNullaryOpINS0_18scalar_constant_opISA_EESG_EEEENS0_9assign_opISA_SA_EEEEvRT1_RKT2_RKT3_
FNDA:2595900,_ZN5Eigen8internal31call_triangular_assignment_loopILi1ELb0ENS_14TriangularViewINS_6MatrixIN11MetaPhysicL10DualNumberIdNS4_28SemiDynamicSparseNumberArrayIdmNS4_8NWrapperILm53EEEEELb1EEELi3ELi3ELi0ELi3ELi3EEELj1EEENS_13CwiseBinaryOpINS0_18scalar_quotient_opISA_SA_EEKSB_KNS_14CwiseNullaryOpINS0_18scalar_constant_opISA_EESG_EEEENS0_9assign_opISA_SA_EEEEvRT1_RKT2_RKT3_
FN:786,_ZN5Eigen8internal31call_triangular_assignment_loopILi1ELb1ENS_6MatrixIN11MetaPhysicL10DualNumberIdNS3_28SemiDynamicSparseNumberArrayIdmNS3_8NWrapperILm53EEEEELb1EEELi3ELi3ELi0ELi3ELi3EEENS_14TriangularViewIKSA_Lj1EEENS0_9assign_opIS9_S9_EEEEvRT1_RKT2_RKT3_
FNDA:2595900,_ZN5Eigen8internal31call_triangular_assignment_loopILi1ELb1ENS_6MatrixIN11MetaPhysicL10DualNumberIdNS3_28SemiDynamicSparseNumberArrayIdmNS3_8NWrapperILm53EEEEELb1EEELi3ELi3ELi0ELi3ELi3EEENS_14TriangularViewIKSA_Lj1EEENS0_9assign_opIS9_S9_EEEEvRT1_RKT2_RKT3_
FN:869,_ZN5Eigen8internal26triangular_assignment_loopINS0_34triangular_dense_assignment_kernelILi1ELi0ELi0ENS0_9evaluatorINS_14TriangularViewINS_6MatrixIN11MetaPhysicL10DualNumberIdNS6_28SemiDynamicSparseNumberArrayIdmNS6_8NWrapperILm53EEEEELb1EEELi3ELi3ELi0ELi3ELi3EEELj1EEEEENS3_INS_13CwiseBinaryOpINS0_18scalar_quotient_opISC_SC_EEKSD_KNS_14CwiseNullaryOpINS0_18scalar_constant_opISC_EESJ_EEEEEENS0_9assign_opISC_SC_EELi0EEELj1ELi5ELb0EE3runERST_
FNDA:2595900,_ZN5Eigen8internal26triangular_assignment_loopINS0_34triangular_dense_assignment_kernelILi1ELi0ELi0ENS0_9evaluatorINS_14TriangularViewINS_6MatrixIN11MetaPhysicL10DualNumberIdNS6_28SemiDynamicSparseNumberArrayIdmNS6_8NWrapperILm53EEEEELb1EEELi3ELi3ELi0ELi3ELi3EEELj1EEEEENS3_INS_13CwiseBinaryOpINS0_18scalar_quotient_opISC_SC_EEKSD_KNS_14CwiseNullaryOpINS0_18scalar_constant_opISC_EESJ_EEEEEENS0_9assign_opISC_SC_EELi0EEELj1ELi5ELb0EE3runERST_
FN:869,_ZN5Eigen8internal26triangular_assignment_loopINS0_34triangular_dense_assignment_kernelILi1ELi0ELi0ENS0_9evaluatorINS_14TriangularViewINS_6MatrixIN11MetaPhysicL10DualNumberIdNS6_28SemiDynamicSparseNumberArrayIdmNS6_8NWrapperILm53EEEEELb1EEELi3ELi3ELi0ELi3ELi3EEELj1EEEEENS3_INS_13CwiseBinaryOpINS0_18scalar_quotient_opISC_SC_EEKSD_KNS_14CwiseNullaryOpINS0_18scalar_constant_opISC_EESJ_EEEEEENS0_9assign_opISC_SC_EELi0EEELj1ELi9ELb0EE3runERST_
FNDA:2595900,_ZN5Eigen8internal26triangular_assignment_loopINS0_34triangular_dense_assignment_kernelILi1ELi0ELi0ENS0_9evaluatorINS_14TriangularViewINS_6MatrixIN11MetaPhysicL10DualNumberIdNS6_28SemiDynamicSparseNumberArrayIdmNS6_8NWrapperILm53EEEEELb1EEELi3ELi3ELi0ELi3ELi3EEELj1EEEEENS3_INS_13CwiseBinaryOpINS0_18scalar_quotient_opISC_SC_EEKSD_KNS_14CwiseNullaryOpINS0_18scalar_constant_opISC_EESJ_EEEEEENS0_9assign_opISC_SC_EELi0EEELj1ELi9ELb0EE3runERST_
FN:869,_ZN5Eigen8internal26triangular_assignment_loopINS0_34triangular_dense_assignment_kernelILi1ELi0ELi1ENS0_9evaluatorINS_6MatrixIN11MetaPhysicL10DualNumberIdNS5_28SemiDynamicSparseNumberArrayIdmNS5_8NWrapperILm53EEEEELb1EEELi3ELi3ELi0ELi3ELi3EEEEENS3_INS_14TriangularViewIKSC_Lj1EEEEENS0_9assign_opISB_SB_EELi0EEELj1ELi9ELb1EE3runERSK_
FNDA:2595900,_ZN5Eigen8internal26triangular_assignment_loopINS0_34triangular_dense_assignment_kernelILi1ELi0ELi1ENS0_9evaluatorINS_6MatrixIN11MetaPhysicL10DualNumberIdNS5_28SemiDynamicSparseNumberArrayIdmNS5_8NWrapperILm53EEEEELb1EEELi3ELi3ELi0ELi3ELi3EEEEENS3_INS_14TriangularViewIKSC_Lj1EEEEENS0_9assign_opISB_SB_EELi0EEELj1ELi9ELb1EE3runERSK_
FN:869,_ZN5Eigen8internal26triangular_assignment_loopINS0_34triangular_dense_assignment_kernelILi1ELi0ELi0ENS0_9evaluatorINS_14TriangularViewINS_6MatrixIN11MetaPhysicL10DualNumberIdNS6_28SemiDynamicSparseNumberArrayIdmNS6_8NWrapperILm53EEEEELb1EEELi3ELi3ELi0ELi3ELi3EEELj1EEEEENS3_INS_13CwiseBinaryOpINS0_18scalar_quotient_opISC_SC_EEKSD_KNS_14CwiseNullaryOpINS0_18scalar_constant_opISC_EESJ_EEEEEENS0_9assign_opISC_SC_EELi0EEELj1ELi6ELb0EE3runERST_
FNDA:2595900,_ZN5Eigen8internal26triangular_assignment_loopINS0_34triangular_dense_assignment_kernelILi1ELi0ELi0ENS0_9evaluatorINS_14TriangularViewINS_6MatrixIN11MetaPhysicL10DualNumberIdNS6_28SemiDynamicSparseNumberArrayIdmNS6_8NWrapperILm53EEEEELb1EEELi3ELi3ELi0ELi3ELi3EEELj1EEEEENS3_INS_13CwiseBinaryOpINS0_18scalar_quotient_opISC_SC_EEKSD_KNS_14CwiseNullaryOpINS0_18scalar_constant_opISC_EESJ_EEEEEENS0_9assign_opISC_SC_EELi0EEELj1ELi6ELb0EE3runERST_
FN:869,_ZN5Eigen8internal26triangular_assignment_loopINS0_34triangular_dense_assignment_kernelILi1ELi0ELi1ENS0_9evaluatorINS_6MatrixIN11MetaPhysicL10DualNumberIdNS5_28SemiDynamicSparseNumberArrayIdmNS5_8NWrapperILm53EEEEELb1EEELi3ELi3ELi0ELi3ELi3EEEEENS3_INS_14TriangularViewIKSC_Lj1EEEEENS0_9assign_opISB_SB_EELi0EEELj1ELi8ELb1EE3runERSK_
FNDA:2595900,_ZN5Eigen8internal26triangular_assignment_loopINS0_34triangular_dense_assignment_kernelILi1ELi0ELi1ENS0_9evaluatorINS_6MatrixIN11MetaPhysicL10DualNumberIdNS5_28SemiDynamicSparseNumberArrayIdmNS5_8NWrapperILm53EEEEELb1EEELi3ELi3ELi0ELi3ELi3EEEEENS3_INS_14TriangularViewIKSC_Lj1EEEEENS0_9assign_opISB_SB_EELi0EEELj1ELi8ELb1EE3runERSK_
FN:869,_ZN5Eigen8internal26triangular_assignment_loopINS0_34triangular_dense_assignment_kernelILi1ELi0ELi1ENS0_9evaluatorINS_6MatrixIN11MetaPhysicL10DualNumberIdNS5_28SemiDynamicSparseNumberArrayIdmNS5_8NWrapperILm53EEEEELb1EEELi3ELi3ELi0ELi3ELi3EEEEENS3_INS_14TriangularViewIKSC_Lj1EEEEENS0_9assign_opISB_SB_EELi0EEELj1ELi2ELb1EE3runERSK_
FNDA:2595900,_ZN5Eigen8internal26triangular_assignment_loopINS0_34triangular_dense_assignment_kernelILi1ELi0ELi1ENS0_9evaluatorINS_6MatrixIN11MetaPhysicL10DualNumberIdNS5_28SemiDynamicSparseNumberArrayIdmNS5_8NWrapperILm53EEEEELb1EEELi3ELi3ELi0ELi3ELi3EEEEENS3_INS_14TriangularViewIKSC_Lj1EEEEENS0_9assign_opISB_SB_EELi0EEELj1ELi2ELb1EE3runERSK_
FN:869,_ZN5Eigen8internal26triangular_assignment_loopINS0_34triangular_dense_assignment_kernelILi1ELi0ELi1ENS0_9evaluatorINS_6MatrixIN11MetaPhysicL10DualNumberIdNS5_28SemiDynamicSparseNumberArrayIdmNS5_8NWrapperILm53EEEEELb1EEELi3ELi3ELi0ELi3ELi3EEEEENS3_INS_14TriangularViewIKSC_Lj1EEEEENS0_9assign_opISB_SB_EELi0EEELj1ELi7ELb1EE3runERSK_
FNDA:2595900,_ZN5Eigen8internal26triangular_assignment_loopINS0_34triangular_dense_assignment_kernelILi1ELi0ELi1ENS0_9evaluatorINS_6MatrixIN11MetaPhysicL10DualNumberIdNS5_28SemiDynamicSparseNumberArrayIdmNS5_8NWrapperILm53EEEEELb1EEELi3ELi3ELi0ELi3ELi3EEEEENS3_INS_14TriangularViewIKSC_Lj1EEEEENS0_9assign_opISB_SB_EELi0EEELj1ELi7ELb1EE3runERSK_
FN:869,_ZN5Eigen8internal26triangular_assignment_loopINS0_34triangular_dense_assignment_kernelILi1ELi0ELi1ENS0_9evaluatorINS_6MatrixIN11MetaPhysicL10DualNumberIdNS5_28SemiDynamicSparseNumberArrayIdmNS5_8NWrapperILm53EEEEELb1EEELi3ELi3ELi0ELi3ELi3EEEEENS3_INS_14TriangularViewIKSC_Lj1EEEEENS0_9assign_opISB_SB_EELi0EEELj1ELi6ELb1EE3runERSK_
FNDA:2595900,_ZN5Eigen8internal26triangular_assignment_loopINS0_34triangular_dense_assignment_kernelILi1ELi0ELi1ENS0_9evaluatorINS_6MatrixIN11MetaPhysicL10DualNumberIdNS5_28SemiDynamicSparseNumberArrayIdmNS5_8NWrapperILm53EEEEELb1EEELi3ELi3ELi0ELi3ELi3EEEEENS3_INS_14TriangularViewIKSC_Lj1EEEEENS0_9assign_opISB_SB_EELi0EEELj1ELi6ELb1EE3runERSK_
FN:869,_ZN5Eigen8internal26triangular_assignment_loopINS0_34triangular_dense_assignment_kernelILi1ELi0ELi0ENS0_9evaluatorINS_14TriangularViewINS_6MatrixIN11MetaPhysicL10DualNumberIdNS6_28SemiDynamicSparseNumberArrayIdmNS6_8NWrapperILm53EEEEELb1EEELi3ELi3ELi0ELi3ELi3EEELj1EEEEENS3_INS_13CwiseBinaryOpINS0_18scalar_quotient_opISC_SC_EEKSD_KNS_14CwiseNullaryOpINS0_18scalar_constant_opISC_EESJ_EEEEEENS0_9assign_opISC_SC_EELi0EEELj1ELi3ELb0EE3runERST_
FNDA:2595900,_ZN5Eigen8internal26triangular_assignment_loopINS0_34triangular_dense_assignment_kernelILi1ELi0ELi0ENS0_9evaluatorINS_14TriangularViewINS_6MatrixIN11MetaPhysicL10DualNumberIdNS6_28SemiDynamicSparseNumberArrayIdmNS6_8NWrapperILm53EEEEELb1EEELi3ELi3ELi0ELi3ELi3EEELj1EEEEENS3_INS_13CwiseBinaryOpINS0_18scalar_quotient_opISC_SC_EEKSD_KNS_14CwiseNullaryOpINS0_18scalar_constant_opISC_EESJ_EEEEEENS0_9assign_opISC_SC_EELi0EEELj1ELi3ELb0EE3runERST_
FN:869,_ZN5Eigen8internal26triangular_assignment_loopINS0_34triangular_dense_assignment_kernelILi1ELi0ELi1ENS0_9evaluatorINS_6MatrixIN11MetaPhysicL10DualNumberIdNS5_28SemiDynamicSparseNumberArrayIdmNS5_8NWrapperILm53EEEEELb1EEELi3ELi3ELi0ELi3ELi3EEEEENS3_INS_14TriangularViewIKSC_Lj1EEEEENS0_9assign_opISB_SB_EELi0EEELj1ELi5ELb1EE3runERSK_
FNDA:2595900,_ZN5Eigen8internal26triangular_assignment_loopINS0_34triangular_dense_assignment_kernelILi1ELi0ELi1ENS0_9evaluatorINS_6MatrixIN11MetaPhysicL10DualNumberIdNS5_28SemiDynamicSparseNumberArrayIdmNS5_8NWrapperILm53EEEEELb1EEELi3ELi3ELi0ELi3ELi3EEEEENS3_INS_14TriangularViewIKSC_Lj1EEEEENS0_9assign_opISB_SB_EELi0EEELj1ELi5ELb1EE3runERSK_
FN:869,_ZN5Eigen8internal26triangular_assignment_loopINS0_34triangular_dense_assignment_kernelILi1ELi0ELi0ENS0_9evaluatorINS_14TriangularViewINS_6MatrixIN11MetaPhysicL10DualNumberIdNS6_28SemiDynamicSparseNumberArrayIdmNS6_8NWrapperILm53EEEEELb1EEELi3ELi3ELi0ELi3ELi3EEELj1EEEEENS3_INS_13CwiseBinaryOpINS0_18scalar_quotient_opISC_SC_EEKSD_KNS_14CwiseNullaryOpINS0_18scalar_constant_opISC_EESJ_EEEEEENS0_9assign_opISC_SC_EELi0EEELj1ELi2ELb0EE3runERST_
FNDA:2595900,_ZN5Eigen8internal26triangular_assignment_loopINS0_34triangular_dense_assignment_kernelILi1ELi0ELi0ENS0_9evaluatorINS_14TriangularViewINS_6MatrixIN11MetaPhysicL10DualNumberIdNS6_28SemiDynamicSparseNumberArrayIdmNS6_8NWrapperILm53EEEEELb1EEELi3ELi3ELi0ELi3ELi3EEELj1EEEEENS3_INS_13CwiseBinaryOpINS0_18scalar_quotient_opISC_SC_EEKSD_KNS_14CwiseNullaryOpINS0_18scalar_constant_opISC_EESJ_EEEEEENS0_9assign_opISC_SC_EELi0EEELj1ELi2ELb0EE3runERST_
FN:869,_ZN5Eigen8internal26triangular_assignment_loopINS0_34triangular_dense_assignment_kernelILi1ELi0ELi1ENS0_9evaluatorINS_6MatrixIN11MetaPhysicL10DualNumberIdNS5_28SemiDynamicSparseNumberArrayIdmNS5_8NWrapperILm53EEEEELb1EEELi3ELi3ELi0ELi3ELi3EEEEENS3_INS_14TriangularViewIKSC_Lj1EEEEENS0_9assign_opISB_SB_EELi0EEELj1ELi4ELb1EE3runERSK_
FNDA:2595900,_ZN5Eigen8internal26triangular_assignment_loopINS0_34triangular_dense_assignment_kernelILi1ELi0ELi1ENS0_9evaluatorINS_6MatrixIN11MetaPhysicL10DualNumberIdNS5_28SemiDynamicSparseNumberArrayIdmNS5_8NWrapperILm53EEEEELb1EEELi3ELi3ELi0ELi3ELi3EEEEENS3_INS_14TriangularViewIKSC_Lj1EEEEENS0_9assign_opISB_SB_EELi0EEELj1ELi4ELb1EE3runERSK_
FN:869,_ZN5Eigen8internal26triangular_assignment_loopINS0_34triangular_dense_assignment_kernelILi1ELi0ELi1ENS0_9evaluatorINS_6MatrixIN11MetaPhysicL10DualNumberIdNS5_28SemiDynamicSparseNumberArrayIdmNS5_8NWrapperILm53EEEEELb1EEELi3ELi3ELi0ELi3ELi3EEEEENS3_INS_14TriangularViewIKSC_Lj1EEEEENS0_9assign_opISB_SB_EELi0EEELj1ELi3ELb1EE3runERSK_
FNDA:2595900,_ZN5Eigen8internal26triangular_assignment_loopINS0_34triangular_dense_assignment_kernelILi1ELi0ELi1ENS0_9evaluatorINS_6MatrixIN11MetaPhysicL10DualNumberIdNS5_28SemiDynamicSparseNumberArrayIdmNS5_8NWrapperILm53EEEEELb1EEELi3ELi3ELi0ELi3ELi3EEEEENS3_INS_14TriangularViewIKSC_Lj1EEEEENS0_9assign_opISB_SB_EELi0EEELj1ELi3ELb1EE3runERSK_
FNF:17
FNH:17
DA:231,2595900
DA:235,2595900
DA:384,2595900
DA:562,2595900
DA:773,10383600
DA:776,7787700
DA:780,7787700
DA:781,7787700
DA:786,2595900
DA:809,2595900
DA:810,2595900
DA:786,2595900
DA:809,2595900
DA:810,2595900
DA:840,2595900
DA:849,2595900
DA:869,2595900
DA:876,2595900
DA:879,2595900
DA:869,2595900
DA:871,2595900
DA:876,2595900
DA:879,2595900
DA:869,2595900
DA:871,2595900
DA:878,2595900
DA:879,2595900
DA:869,2595900
DA:876,2595900
DA:879,2595900
DA:869,2595900
DA:871,2595900
DA:879,2595900
DA:869,2595900
DA:871,2595900
DA:876,2595900
DA:879,2595900
DA:869,2595900
DA:871,2595900
DA:876,2595900
DA:879,2595900
DA:869,2595900
DA:871,2595900
DA:878,2595900
DA:879,2595900
DA:869,2595900
DA:871,2595900
DA:879,2595900
DA:869,2595900
DA:871,2595900
DA:878,2595900
DA:879,2595900
DA:869,2595900
DA:871,2595900
DA:876,2595900
DA:879,2595900
DA:869,2595900
DA:871,2595900
DA:879,2595900
DA:869,2595900
DA:871,2595900
DA:879,2595900
LF:62
LH:62
end_of_record
SF:/usr/share/miniconda/envs/moose/x86_64-conda-linux-gnu/include/c++/10.3.0/ostream
DA:113,0
DA:221,0
DA:518,0
LF:3
LH:0
end_of_record
SF:/usr/share/miniconda/envs/moose/x86_64-conda-linux-gnu/include/c++/10.3.0/bits/predefined_ops.h
DA:67,0
LF:1
LH:0
end_of_record
SF:/home/runner/work/raccoon/raccoon/moose/framework/build/header_symlinks/MooseUtils.h
DA:346,23363100
LF:1
LH:1
end_of_record
SF:/usr/share/miniconda/envs/moose/libmesh/include/metaphysicl/metaphysicl_exceptions.h
DA:45,0
LF:1
LH:0
end_of_record
SF:/home/runner/work/raccoon/raccoon/moose/framework/build/header_symlinks/Conversion.h
FN:61,_ZN5Moose9stringifyIdEENSt7__cxx1112basic_stringIcSt11char_traitsIcESaIcEEERKT_
FNDA:0,_ZN5Moose9stringifyIdEENSt7__cxx1112basic_stringIcSt11char_traitsIcESaIcEEERKT_
FN:138,_ZN5Moose9stringifyISt6vectorJdSaIdEEEENSt7__cxx1112basic_stringIcSt11char_traitsIcESaIcEEERKT_IJDpT0_EERKS8_SG_b
FNDA:0,_ZN5Moose9stringifyISt6vectorJdSaIdEEEENSt7__cxx1112basic_stringIcSt11char_traitsIcESaIcEEERKT_IJDpT0_EERKS8_SG_b
FNF:2
FNH:0
DA:61,0
DA:63,0
DA:64,0
DA:65,0
DA:138,0
DA:144,0
DA:148,0
DA:149,0
DA:150,0
DA:152,0
LF:10
LH:0
end_of_record
SF:/home/runner/work/raccoon/raccoon/moose/framework/build/header_symlinks/RankTwoTensor.h
FN:590,_ZNK18RankTwoTensorTemplIN11MetaPhysicL10DualNumberIdNS0_28SemiDynamicSparseNumberArrayIdmNS0_8NWrapperILm53EEEEELb1EEEEmlIS6_EES_IN7libMesh12CompareTypesIS6_T_E9supertypeEERKNS9_10TypeTensorISB_EE
FNDA:6959090,_ZNK18RankTwoTensorTemplIN11MetaPhysicL10DualNumberIdNS0_28SemiDynamicSparseNumberArrayIdmNS0_8NWrapperILm53EEEEELb1EEEEmlIS6_EES_IN7libMesh12CompareTypesIS6_T_E9supertypeEERKNS9_10TypeTensorISB_EE
FN:590,_ZNK18RankTwoTensorTemplIdEmlIdEES_IN7libMesh12CompareTypesIdT_E9supertypeEERKNS2_10TypeTensorIS4_EE
FNDA:0,_ZNK18RankTwoTensorTemplIdEmlIdEES_IN7libMesh12CompareTypesIdT_E9supertypeEERKNS2_10TypeTensorIS4_EE
FNF:2
FNH:1
DA:75,2595900
DA:590,6959090
DA:592,6959090
DA:590,0
DA:592,0
LF:5
LH:3
end_of_record
SF:/usr/share/miniconda/envs/moose/libmesh/include/Eigen/src/Core/SelfCwiseBinaryOp.h
FN:18,_ZN5Eigen9DenseBaseINS_6MatrixIN11MetaPhysicL10DualNumberIdNS2_28SemiDynamicSparseNumberArrayIdmNS2_8NWrapperILm53EEEEELb1EEELi3ELi1ELi0ELi3ELi1EEEEmLERKS8_
FNDA:2595900,_ZN5Eigen9DenseBaseINS_6MatrixIN11MetaPhysicL10DualNumberIdNS2_28SemiDynamicSparseNumberArrayIdmNS2_8NWrapperILm53EEEEELb1EEELi3ELi1ELi0ELi3ELi1EEEEmLERKS8_
FNF:1
FNH:1
DA:18,2595900
DA:20,2595900
DA:21,2595900
LF:3
LH:3
end_of_record
SF:/usr/share/miniconda/envs/moose/libmesh/include/timpi/message_tag.h
LF:0
LH:0
end_of_record
SF:/usr/share/miniconda/envs/moose/x86_64-conda-linux-gnu/include/c++/10.3.0/bits/stl_construct.h
DA:109,5486500
LF:1
LH:1
end_of_record
SF:/usr/share/miniconda/envs/moose/libmesh/include/Eigen/src/Core/Matrix.h
DA:178,2595900
DA:238,2595900
LF:2
LH:2
end_of_record
SF:/usr/share/miniconda/envs/moose/libmesh/include/Eigen/src/Core/CwiseBinaryOp.h
DA:105,2595900
DA:132,2595900
LF:2
LH:2
end_of_record
SF:/usr/share/miniconda/envs/moose/libmesh/include/Eigen/src/Core/Stride.h
DA:71,1442930
LF:1
LH:1
end_of_record
SF:/usr/share/miniconda/envs/moose/libmesh/include/Eigen/src/Core/CoreEvaluators.h
FN:711,_ZNK5Eigen8internal16binary_evaluatorINS_13CwiseBinaryOpINS0_18scalar_quotient_opIN11MetaPhysicL10DualNumberIdNS4_28SemiDynamicSparseNumberArrayIdmNS4_8NWrapperILm53EEEEELb1EEESA_EEKNS_6MatrixISA_Li3ELi3ELi0ELi3ELi3EEEKNS_14CwiseNullaryOpINS0_18scalar_constant_opISA_EESE_EEEENS0_10IndexBasedESL_SA_SA_E5coeffEll
FNDA:15575400,_ZNK5Eigen8internal16binary_evaluatorINS_13CwiseBinaryOpINS0_18scalar_quotient_opIN11MetaPhysicL10DualNumberIdNS4_28SemiDynamicSparseNumberArrayIdmNS4_8NWrapperILm53EEEEELb1EEESA_EEKNS_6MatrixISA_Li3ELi3ELi0ELi3ELi3EEEKNS_14CwiseNullaryOpINS0_18scalar_constant_opISA_EESE_EEEENS0_10IndexBasedESL_SA_SA_E5coeffEll
FNF:1
FNH:1
DA:154,10383600
DA:155,12974600
DA:166,51918000
DA:172,7787700
DA:181,83034400
DA:187,34478700
DA:367,23318800
DA:455,2590980
DA:472,7782780
DA:484,23318800
DA:530,2595900
DA:665,2595900
DA:699,2595900
DA:711,15575400
DA:713,15575400
DA:821,6779660
DA:824,6779660
DA:834,12979500
DA:840,4763580
DA:852,4763580
LF:20
LH:20
end_of_record
SF:/usr/share/miniconda/envs/moose/libmesh/include/Eigen/src/Core/MapBase.h
DA:172,9665520
DA:253,6779660
DA:255,1442930
DA:267,1442930
LF:4
LH:4
end_of_record
SF:/usr/share/miniconda/envs/moose/x86_64-conda-linux-gnu/include/c++/10.3.0/bits/stl_algobase.h
FN:560,_ZSt4copyIPKmPmET0_T_S4_S3_
FNDA:334318000,_ZSt4copyIPKmPmET0_T_S4_S3_
FN:560,_ZSt4copyIPKdPdET0_T_S4_S3_
FNDA:334318000,_ZSt4copyIPKdPdET0_T_S4_S3_
FN:1309,_ZSt13__lower_boundIPKmmN9__gnu_cxx5__ops14_Iter_less_valEET_S5_S5_RKT0_T1_
FNDA:0,_ZSt13__lower_boundIPKmmN9__gnu_cxx5__ops14_Iter_less_valEET_S5_S5_RKT0_T1_
FNF:3
FNH:2
DA:235,1433740
DA:236,502915
DA:259,25451800
DA:260,9857520
DA:424,668636000
DA:425,668636000
DA:426,465416000
DA:427,668636000
DA:560,334318000
DA:569,334318000
DA:560,334318000
DA:569,334318000
DA:872,32549200
DA:873,29752800
DA:1060,0
DA:1065,2796370
DA:1309,0
DA:1317,0
DA:1319,0
DA:1320,0
DA:1322,0
DA:1325,0
DA:1326,0
DA:1331,0
DA:1357,0
LF:25
LH:15
end_of_record
SF:/usr/share/miniconda/envs/moose/libmesh/include/metaphysicl/dynamicsparsenumberbase_decl.h
FN:71,_ZN11MetaPhysicL23DynamicSparseNumberBaseINS_22DynamicStdArrayWrapperIdNS_8NWrapperILm53EEEEENS1_ImS3_EENS_28SemiDynamicSparseNumberArrayEJdmS3_EEC2EOS7_
FNDA:0,_ZN11MetaPhysicL23DynamicSparseNumberBaseINS_22DynamicStdArrayWrapperIdNS_8NWrapperILm53EEEEENS1_ImS3_EENS_28SemiDynamicSparseNumberArrayEJdmS3_EEC2EOS7_
FN:74,_ZN11MetaPhysicL23DynamicSparseNumberBaseINS_22DynamicStdArrayWrapperIdNS_8NWrapperILm53EEEEENS1_ImS3_EENS_28SemiDynamicSparseNumberArrayEJdmS3_EEaSEOS7_
FNDA:192891000,_ZN11MetaPhysicL23DynamicSparseNumberBaseINS_22DynamicStdArrayWrapperIdNS_8NWrapperILm53EEEEENS1_ImS3_EENS_28SemiDynamicSparseNumberArrayEJdmS3_EEaSEOS7_
FN:78,_ZN11MetaPhysicL23DynamicSparseNumberBaseINS_22DynamicStdArrayWrapperIdNS_8NWrapperILm53EEEEENS1_ImS3_EENS_28SemiDynamicSparseNumberArrayEJdmS3_EEC2ERKS7_
FNDA:19389600,_ZN11MetaPhysicL23DynamicSparseNumberBaseINS_22DynamicStdArrayWrapperIdNS_8NWrapperILm53EEEEENS1_ImS3_EENS_28SemiDynamicSparseNumberArrayEJdmS3_EEC2ERKS7_
FN:80,_ZN11MetaPhysicL23DynamicSparseNumberBaseINS_22DynamicStdArrayWrapperIdNS_8NWrapperILm53EEEEENS1_ImS3_EENS_28SemiDynamicSparseNumberArrayEJdmS3_EEaSERKS7_
FNDA:314928000,_ZN11MetaPhysicL23DynamicSparseNumberBaseINS_22DynamicStdArrayWrapperIdNS_8NWrapperILm53EEEEENS1_ImS3_EENS_28SemiDynamicSparseNumberArrayEJdmS3_EEaSERKS7_
FNF:4
FNH:3
DA:71,0
DA:74,192891000
DA:78,19389600
DA:80,314928000
LF:4
LH:3
end_of_record
SF:/usr/share/miniconda/envs/moose/libmesh/include/libmesh/parameters.h
FN:132,_ZN7libMesh10Parameters14set_attributesERKNSt7__cxx1112basic_stringIcSt11char_traitsIcESaIcEEEb
FNDA:0,_ZN7libMesh10Parameters14set_attributesERKNSt7__cxx1112basic_stringIcSt11char_traitsIcESaIcEEEb
FN:316,_ZN7libMesh10Parameters5clearEv
FNDA:0,_ZN7libMesh10Parameters5clearEv
FN:332,_ZN7libMesh10ParametersaSERKS0_
FNDA:0,_ZN7libMesh10ParametersaSERKS0_
FN:341,_ZN7libMesh10ParameterspLERKS0_
FNDA:0,_ZN7libMesh10ParameterspLERKS0_
FN:362,_ZN7libMesh10ParametersD0Ev
FNDA:0,_ZN7libMesh10ParametersD0Ev
FN:362,_ZN7libMesh10ParametersD2Ev
FNDA:0,_ZN7libMesh10ParametersD2Ev
FNF:6
FNH:0
DA:132,0
DA:316,0
DA:318,0
DA:322,0
DA:323,0
DA:325,0
DA:327,0
DA:332,0
DA:334,0
DA:335,0
DA:337,0
DA:341,0
DA:343,0
DA:345,0
DA:346,0
DA:347,0
DA:350,0
DA:362,0
DA:365,0
DA:362,0
DA:364,0
DA:365,0
LF:22
LH:0
end_of_record
SF:/usr/share/miniconda/envs/moose/libmesh/include/libmesh/threads_pthread.h
FN:147,_ZN7libMesh7Threads10spin_mutexD2Ev
FNDA:0,_ZN7libMesh7Threads10spin_mutexD2Ev
FNF:1
FNH:0
DA:147,0
LF:1
LH:0
end_of_record
SF:/usr/share/miniconda/envs/moose/libmesh/include/metaphysicl/dynamic_std_array_wrapper.h
FN:54,_ZN11MetaPhysicL22DynamicStdArrayWrapperImNS_8NWrapperILm53EEEEC2ERKS3_
FNDA:19389600,_ZN11MetaPhysicL22DynamicStdArrayWrapperImNS_8NWrapperILm53EEEEC2ERKS3_
FN:54,_ZN11MetaPhysicL22DynamicStdArrayWrapperIdNS_8NWrapperILm53EEEEC2ERKS3_
FNDA:19389600,_ZN11MetaPhysicL22DynamicStdArrayWrapperIdNS_8NWrapperILm53EEEEC2ERKS3_
FN:71,_ZN11MetaPhysicL22DynamicStdArrayWrapperImNS_8NWrapperILm53EEEEaSERKS3_
FNDA:314928000,_ZN11MetaPhysicL22DynamicStdArrayWrapperImNS_8NWrapperILm53EEEEaSERKS3_
FN:71,_ZN11MetaPhysicL22DynamicStdArrayWrapperIdNS_8NWrapperILm53EEEEaSERKS3_
FNDA:314928000,_ZN11MetaPhysicL22DynamicStdArrayWrapperIdNS_8NWrapperILm53EEEEaSERKS3_
FN:122,_ZN11MetaPhysicL22DynamicStdArrayWrapperImNS_8NWrapperILm53EEEE6resizeEm
FNDA:0,_ZN11MetaPhysicL22DynamicStdArrayWrapperImNS_8NWrapperILm53EEEE6resizeEm
FN:122,_ZN11MetaPhysicL22DynamicStdArrayWrapperIdNS_8NWrapperILm53EEEE6resizeEm
FNDA:0,_ZN11MetaPhysicL22DynamicStdArrayWrapperIdNS_8NWrapperILm53EEEE6resizeEm
FNF:6
FNH:4
DA:54,19389600
DA:56,19389600
DA:58,19389600
DA:59,19389600
DA:54,19389600
DA:56,19389600
DA:58,19389600
DA:59,19389600
DA:62,0
DA:64,0
DA:67,0
DA:68,0
DA:71,314928000
DA:73,314928000
DA:75,314928000
DA:76,314928000
DA:71,314928000
DA:73,314928000
DA:75,314928000
DA:76,314928000
DA:82,385782000
DA:85,1333750000
DA:86,947969000
DA:90,765238000
DA:99,385782000
DA:105,1913010000
DA:120,93522600
DA:122,0
DA:124,0
DA:125,0
DA:126,0
DA:127,0
DA:122,0
DA:124,0
DA:125,0
DA:126,0
DA:127,0
DA:132,0
DA:138,0
DA:143,0
LF:40
LH:23
end_of_record
SF:/usr/share/miniconda/envs/moose/x86_64-conda-linux-gnu/include/c++/10.3.0/array
DA:56,0
DA:235,385782000
DA:239,815498000
LF:3
LH:2
end_of_record
SF:/usr/share/miniconda/envs/moose/x86_64-conda-linux-gnu/include/c++/10.3.0/bits/vector.tcc
FN:611,_ZNSt6vectorIN11MetaPhysicL10DualNumberIdNS0_28SemiDynamicSparseNumberArrayIdmNS0_8NWrapperILm53EEEEELb1EEESaIS6_EE17_M_default_appendEm
FNDA:769927,_ZNSt6vectorIN11MetaPhysicL10DualNumberIdNS0_28SemiDynamicSparseNumberArrayIdmNS0_8NWrapperILm53EEEEELb1EEESaIS6_EE17_M_default_appendEm
FN:611,_ZNSt6vectorIdSaIdEE17_M_default_appendEm
FNDA:2796370,_ZNSt6vectorIdSaIdEE17_M_default_appendEm
FNF:2
FNH:2
DA:611,769927
DA:614,769927
DA:617,769927
DA:618,769927
DA:620,769927
DA:621,0
DA:623,769927
DA:626,1659
DA:634,768268
DA:656,768268
DA:659,768268
DA:671,768268
DA:676,768268
DA:677,768268
DA:678,768268
DA:679,768268
DA:680,768268
DA:683,769927
DA:611,2796370
DA:614,2796370
DA:617,2796370
DA:618,2796370
DA:620,2796370
DA:621,0
DA:623,2796370
DA:626,313742
DA:634,2482630
DA:640,2482630
DA:648,2482630
DA:676,2482630
DA:677,2482630
DA:678,2482630
DA:679,2482630
DA:680,2482630
DA:683,2796370
LF:35
LH:33
end_of_record
SF:/usr/share/miniconda/envs/moose/libmesh/include/Eigen/src/Core/functors/AssignmentFunctors.h
DA:24,62257300
DA:92,7787700
DA:152,4763580
LF:3
LH:3
end_of_record
SF:/usr/share/miniconda/envs/moose/x86_64-conda-linux-gnu/include/c++/10.3.0/bits/stl_tree.h
FN:613,_ZNSt8_Rb_treeINSt7__cxx1112basic_stringIcSt11char_traitsIcESaIcEEESt4pairIKS5_PN7libMesh10Parameters5ValueEESt10_Select1stISC_ESt4lessIvESaISC_EE17_M_construct_nodeIJRKSt21piecewise_construct_tSt5tupleIJRS7_EESN_IJEEEEEvPSt13_Rb_tree_nodeISC_EDpOT_
FNDA:0,_ZNSt8_Rb_treeINSt7__cxx1112basic_stringIcSt11char_traitsIcESaIcEEESt4pairIKS5_PN7libMesh10Parameters5ValueEESt10_Select1stISC_ESt4lessIvESaISC_EE17_M_construct_nodeIJRKSt21piecewise_construct_tSt5tupleIJRS7_EESN_IJEEEEEvPSt13_Rb_tree_nodeISC_EDpOT_
FN:632,_ZNSt8_Rb_treeINSt7__cxx1112basic_stringIcSt11char_traitsIcESaIcEEESt4pairIKS5_PN7libMesh10Parameters5ValueEESt10_Select1stISC_ESt4lessIvESaISC_EE14_M_create_nodeIJRKSt21piecewise_construct_tSt5tupleIJRS7_EESN_IJEEEEEPSt13_Rb_tree_nodeISC_EDpOT_
FNDA:0,_ZNSt8_Rb_treeINSt7__cxx1112basic_stringIcSt11char_traitsIcESaIcEEESt4pairIKS5_PN7libMesh10Parameters5ValueEESt10_Select1stISC_ESt4lessIvESaISC_EE14_M_create_nodeIJRKSt21piecewise_construct_tSt5tupleIJRS7_EESN_IJEEEEEPSt13_Rb_tree_nodeISC_EDpOT_
FN:1211,_ZNSt8_Rb_treeINSt7__cxx1112basic_stringIcSt11char_traitsIcESaIcEEESt4pairIKS5_PN7libMesh10Parameters5ValueEESt10_Select1stISC_ESt4lessIvESaISC_EE5eraseB5cxx11ESt17_Rb_tree_iteratorISC_E
FNDA:0,_ZNSt8_Rb_treeINSt7__cxx1112basic_stringIcSt11char_traitsIcESaIcEEESt4pairIKS5_PN7libMesh10Parameters5ValueEESt10_Select1stISC_ESt4lessIvESaISC_EE5eraseB5cxx11ESt17_Rb_tree_iteratorISC_E
FN:1913,_ZNSt8_Rb_treeIssSt9_IdentityIsESt4lessIsESaIsEE8_M_eraseEPSt13_Rb_tree_nodeIsE
FNDA:0,_ZNSt8_Rb_treeIssSt9_IdentityIsESt4lessIsESaIsEE8_M_eraseEPSt13_Rb_tree_nodeIsE
FN:1913,_ZNSt8_Rb_treeIttSt9_IdentityItESt4lessItESaItEE8_M_eraseEPSt13_Rb_tree_nodeItE
FNDA:0,_ZNSt8_Rb_treeIttSt9_IdentityItESt4lessItESaItEE8_M_eraseEPSt13_Rb_tree_nodeItE
FN:1913,_ZNSt8_Rb_treeINSt7__cxx1112basic_stringIcSt11char_traitsIcESaIcEEESt4pairIKS5_PN7libMesh10Parameters5ValueEESt10_Select1stISC_ESt4lessIvESaISC_EE8_M_eraseEPSt13_Rb_tree_nodeISC_E
FNDA:0,_ZNSt8_Rb_treeINSt7__cxx1112basic_stringIcSt11char_traitsIcESaIcEEESt4pairIKS5_PN7libMesh10Parameters5ValueEESt10_Select1stISC_ESt4lessIvESaISC_EE8_M_eraseEPSt13_Rb_tree_nodeISC_E
FN:1930,_ZNSt8_Rb_treeINSt7__cxx1112basic_stringIcSt11char_traitsIcESaIcEEESt4pairIKS5_PN7libMesh10Parameters5ValueEESt10_Select1stISC_ESt4lessIvESaISC_EE14_M_lower_boundEPSt13_Rb_tree_nodeISC_EPSt18_Rb_tree_node_baseRS7_
FNDA:0,_ZNSt8_Rb_treeINSt7__cxx1112basic_stringIcSt11char_traitsIcESaIcEEESt4pairIKS5_PN7libMesh10Parameters5ValueEESt10_Select1stISC_ESt4lessIvESaISC_EE14_M_lower_boundEPSt13_Rb_tree_nodeISC_EPSt18_Rb_tree_node_baseRS7_
FN:2091,_ZNSt8_Rb_treeINSt7__cxx1112basic_stringIcSt11char_traitsIcESaIcEEESt4pairIKS5_PN7libMesh10Parameters5ValueEESt10_Select1stISC_ESt4lessIvESaISC_EE24_M_get_insert_unique_posERS7_
FNDA:0,_ZNSt8_Rb_treeINSt7__cxx1112basic_stringIcSt11char_traitsIcESaIcEEESt4pairIKS5_PN7libMesh10Parameters5ValueEESt10_Select1stISC_ESt4lessIvESaISC_EE24_M_get_insert_unique_posERS7_
FN:2193,_ZNSt8_Rb_treeINSt7__cxx1112basic_stringIcSt11char_traitsIcESaIcEEESt4pairIKS5_PN7libMesh10Parameters5ValueEESt10_Select1stISC_ESt4lessIvESaISC_EE29_M_get_insert_hint_unique_posESt23_Rb_tree_const_iteratorISC_ERS7_
FNDA:0,_ZNSt8_Rb_treeINSt7__cxx1112basic_stringIcSt11char_traitsIcESaIcEEESt4pairIKS5_PN7libMesh10Parameters5ValueEESt10_Select1stISC_ESt4lessIvESaISC_EE29_M_get_insert_hint_unique_posESt23_Rb_tree_const_iteratorISC_ERS7_
FN:2360,_ZNSt8_Rb_treeINSt7__cxx1112basic_stringIcSt11char_traitsIcESaIcEEESt4pairIKS5_PN7libMesh10Parameters5ValueEESt10_Select1stISC_ESt4lessIvESaISC_EE14_M_insert_nodeEPSt18_Rb_tree_node_baseSK_PSt13_Rb_tree_nodeISC_E
FNDA:0,_ZNSt8_Rb_treeINSt7__cxx1112basic_stringIcSt11char_traitsIcESaIcEEESt4pairIKS5_PN7libMesh10Parameters5ValueEESt10_Select1stISC_ESt4lessIvESaISC_EE14_M_insert_nodeEPSt18_Rb_tree_node_baseSK_PSt13_Rb_tree_nodeISC_E
FN:2458,_ZNSt8_Rb_treeINSt7__cxx1112basic_stringIcSt11char_traitsIcESaIcEEESt4pairIKS5_PN7libMesh10Parameters5ValueEESt10_Select1stISC_ESt4lessIvESaISC_EE22_M_emplace_hint_uniqueIJRKSt21piecewise_construct_tSt5tupleIJRS7_EESN_IJEEEEESt17_Rb_tree_iteratorISC_ESt23_Rb_tree_const_iteratorISC_EDpOT_
FNDA:0,_ZNSt8_Rb_treeINSt7__cxx1112basic_stringIcSt11char_traitsIcESaIcEEESt4pairIKS5_PN7libMesh10Parameters5ValueEESt10_Select1stISC_ESt4lessIvESaISC_EE22_M_emplace_hint_uniqueIJRKSt21piecewise_construct_tSt5tupleIJRS7_EESN_IJEEEEESt17_Rb_tree_iteratorISC_ESt23_Rb_tree_const_iteratorISC_EDpOT_
FN:2510,_ZNSt8_Rb_treeINSt7__cxx1112basic_stringIcSt11char_traitsIcESaIcEEESt4pairIKS5_PN7libMesh10Parameters5ValueEESt10_Select1stISC_ESt4lessIvESaISC_EE12_M_erase_auxESt23_Rb_tree_const_iteratorISC_E
FNDA:0,_ZNSt8_Rb_treeINSt7__cxx1112basic_stringIcSt11char_traitsIcESaIcEEESt4pairIKS5_PN7libMesh10Parameters5ValueEESt10_Select1stISC_ESt4lessIvESaISC_EE12_M_erase_auxESt23_Rb_tree_const_iteratorISC_E
FN:2550,_ZNSt8_Rb_treeINSt7__cxx1112basic_stringIcSt11char_traitsIcESaIcEEESt4pairIKS5_PN7libMesh10Parameters5ValueEESt10_Select1stISC_ESt4lessIvESaISC_EE4findERS7_
FNDA:0,_ZNSt8_Rb_treeINSt7__cxx1112basic_stringIcSt11char_traitsIcESaIcEEESt4pairIKS5_PN7libMesh10Parameters5ValueEESt10_Select1stISC_ESt4lessIvESaISC_EE4findERS7_
FNF:13
FNH:0
DA:287,0
DA:302,0
DA:303,0
DA:350,0
DA:351,0
DA:355,0
DA:368,0
DA:369,0
DA:613,0
DA:622,0
DA:624,0
DA:626,0
DA:628,0
DA:632,0
DA:635,0
DA:636,0
DA:647,0
DA:749,0
DA:760,0
DA:790,0
DA:798,0
DA:991,0
DA:1003,0
DA:1007,0
DA:1011,0
DA:1015,0
DA:1035,0
DA:1039,0
DA:1211,0
DA:1214,0
DA:1216,0
DA:1217,0
DA:1277,0
DA:1913,0
DA:1917,0
DA:1919,0
DA:1924,0
DA:1913,0
DA:1917,0
DA:1919,0
DA:1924,0
DA:1913,0
DA:1917,0
DA:1919,0
DA:1924,0
DA:1930,0
DA:1934,0
DA:1935,0
DA:1939,0
DA:2091,0
DA:2098,0
DA:2102,0
DA:2105,0
DA:2107,0
DA:2108,0
DA:2112,0
DA:2113,0
DA:2114,0
DA:2193,0
DA:2201,0
DA:2204,0
DA:2205,0
DA:2207,0
DA:2209,0
DA:2213,0
DA:2214,0
DA:2215,0
DA:2217,0
DA:2218,0
DA:2220,0
DA:2223,0
DA:2225,0
DA:2229,0
DA:2230,0
DA:2231,0
DA:2233,0
DA:2234,0
DA:2236,0
DA:2239,0
DA:2243,0
DA:2360,0
DA:2363,0
DA:2364,0
DA:2367,0
DA:2368,0
DA:2369,0
DA:2370,0
DA:2458,0
DA:2461,0
DA:2465,0
DA:2467,0
DA:2468,0
DA:2471,0
DA:2510,0
DA:2515,0
DA:2516,0
DA:2518,0
DA:2519,0
DA:2550,0
DA:2553,0
DA:2555,0
DA:2556,0
LF:102
LH:0
end_of_record
SF:/usr/share/miniconda/envs/moose/x86_64-conda-linux-gnu/include/c++/10.3.0/bits/ios_base.h
DA:754,0
LF:1
LH:0
end_of_record
SF:/usr/share/miniconda/envs/moose/libmesh/include/Eigen/src/Core/MathFunctionsImpl.h
FN:76,_ZN5Eigen8internal19positive_real_hypotIN11MetaPhysicL10DualNumberIdNS2_28SemiDynamicSparseNumberArrayIdmNS2_8NWrapperILm53EEEEELb1EEEEET_RKS9_SB_
FNDA:1433740,_ZN5Eigen8internal19positive_real_hypotIN11MetaPhysicL10DualNumberIdNS2_28SemiDynamicSparseNumberArrayIdmNS2_8NWrapperILm53EEEEELb1EEEEET_RKS9_SB_
FN:90,_ZN5Eigen8internal10hypot_implIN11MetaPhysicL10DualNumberIdNS2_28SemiDynamicSparseNumberArrayIdmNS2_8NWrapperILm53EEEEELb1EEEE3runERKS8_SB_
FNDA:1433740,_ZN5Eigen8internal10hypot_implIN11MetaPhysicL10DualNumberIdNS2_28SemiDynamicSparseNumberArrayIdmNS2_8NWrapperILm53EEEEELb1EEEE3runERKS8_SB_
FNF:2
FNH:2
DA:76,1433740
DA:80,1433740
DA:81,1433740
DA:82,1433740
DA:83,4301220
DA:90,1433740
DA:93,1433740
LF:7
LH:7
end_of_record
SF:/usr/share/miniconda/envs/moose/libmesh/include/libmesh/tensor_value.h
DA:215,10614900
DA:216,10614900
DA:305,13658300
LF:3
LH:3
end_of_record
SF:/usr/share/miniconda/envs/moose/libmesh/include/metaphysicl/dualnumber.h
FN:73,_ZNK11MetaPhysicL10DualNumberIdNS_28SemiDynamicSparseNumberArrayIdmNS_8NWrapperILm53EEEEELb1EEngEv
FNDA:9439970,_ZNK11MetaPhysicL10DualNumberIdNS_28SemiDynamicSparseNumberArrayIdmNS_8NWrapperILm53EEEEELb1EEngEv
FN:97,_ZN11MetaPhysicL10DualNumberIdNS_28SemiDynamicSparseNumberArrayIdmNS_8NWrapperILm53EEEEELb1EEaSERKS5_
FNDA:199500000,_ZN11MetaPhysicL10DualNumberIdNS_28SemiDynamicSparseNumberArrayIdmNS_8NWrapperILm53EEEEELb1EEaSERKS5_
FN:110,_ZN11MetaPhysicL10DualNumberIdNS_28SemiDynamicSparseNumberArrayIdmNS_8NWrapperILm53EEEEELb1EEaSEOS5_
FNDA:40515300,_ZN11MetaPhysicL10DualNumberIdNS_28SemiDynamicSparseNumberArrayIdmNS_8NWrapperILm53EEEEELb1EEaSEOS5_
FN:136,_ZN11MetaPhysicL10DualNumberIdNS_28SemiDynamicSparseNumberArrayIdmNS_8NWrapperILm53EEEEELb1EEC2ERKS5_
FNDA:365925000,_ZN11MetaPhysicL10DualNumberIdNS_28SemiDynamicSparseNumberArrayIdmNS_8NWrapperILm53EEEEELb1EEC2ERKS5_
FN:145,_ZN11MetaPhysicL10DualNumberIdNS_28SemiDynamicSparseNumberArrayIdmNS_8NWrapperILm53EEEEELb1EEC2EOS5_
FNDA:52658800,_ZN11MetaPhysicL10DualNumberIdNS_28SemiDynamicSparseNumberArrayIdmNS_8NWrapperILm53EEEEELb1EEC2EOS5_
FN:187,_ZN11MetaPhysicL10DualNumberIdNS_28SemiDynamicSparseNumberArrayIdmNS_8NWrapperILm53EEEEELb1EEaSIdEERS5_RKT_
FNDA:122497000,_ZN11MetaPhysicL10DualNumberIdNS_28SemiDynamicSparseNumberArrayIdmNS_8NWrapperILm53EEEEELb1EEaSIdEERS5_RKT_
FN:187,_ZN11MetaPhysicL10DualNumberIdNS_28SemiDynamicSparseNumberArrayIdmNS_8NWrapperILm53EEEEELb1EEaSIiEERS5_RKT_
FNDA:5191800,_ZN11MetaPhysicL10DualNumberIdNS_28SemiDynamicSparseNumberArrayIdmNS_8NWrapperILm53EEEEELb1EEaSIiEERS5_RKT_
FN:214,_ZN11MetaPhysicL10DualNumberIdNS_28SemiDynamicSparseNumberArrayIdmNS_8NWrapperILm53EEEEELb1EEC2IiEERKT_NSt9enable_ifIXsrSt14is_convertibleIS7_dE5valueEPvE4typeE
FNDA:59185500,_ZN11MetaPhysicL10DualNumberIdNS_28SemiDynamicSparseNumberArrayIdmNS_8NWrapperILm53EEEEELb1EEC2IiEERKT_NSt9enable_ifIXsrSt14is_convertibleIS7_dE5valueEPvE4typeE
FN:214,_ZN11MetaPhysicL10DualNumberIdNS_28SemiDynamicSparseNumberArrayIdmNS_8NWrapperILm53EEEEELb1EEC2IdEERKT_NSt9enable_ifIXsrSt14is_convertibleIS7_dE5valueEPvE4typeE
FNDA:24775700,_ZN11MetaPhysicL10DualNumberIdNS_28SemiDynamicSparseNumberArrayIdmNS_8NWrapperILm53EEEEELb1EEC2IdEERKT_NSt9enable_ifIXsrSt14is_convertibleIS7_dE5valueEPvE4typeE
FN:224,_ZN11MetaPhysicL10DualNumberIdNS_28SemiDynamicSparseNumberArrayIdmNS_8NWrapperILm53EEEEELb1EEC2IdS4_EERKT_RKT0_
FNDA:23634300,_ZN11MetaPhysicL10DualNumberIdNS_28SemiDynamicSparseNumberArrayIdmNS_8NWrapperILm53EEEEELb1EEC2IdS4_EERKT_RKT0_
FN:224,_ZN11MetaPhysicL10DualNumberIdNS_28SemiDynamicSparseNumberArrayIdmNS_8NWrapperILm53EEEEELb1EEC2IdiEERKT_RKT0_
FNDA:10270800,_ZN11MetaPhysicL10DualNumberIdNS_28SemiDynamicSparseNumberArrayIdmNS_8NWrapperILm53EEEEELb1EEC2IdiEERKT_RKT0_
FN:259,_ZN11MetaPhysicL26derivative_multiply_helperIdNS_28SemiDynamicSparseNumberArrayIdmNS_8NWrapperILm53EEEEELb1EEEvRNS_10DualNumberIT_T0_XT1_EEERKS8_
FNDA:0,_ZN11MetaPhysicL26derivative_multiply_helperIdNS_28SemiDynamicSparseNumberArrayIdmNS_8NWrapperILm53EEEEELb1EEEvRNS_10DualNumberIT_T0_XT1_EEERKS8_
FN:310,_ZN11MetaPhysicL26derivative_division_helperIdNS_28SemiDynamicSparseNumberArrayIdmNS_8NWrapperILm53EEEEELb1EEEvRNS_10DualNumberIT_T0_XT1_EEERKS8_
FNDA:20293100,_ZN11MetaPhysicL26derivative_division_helperIdNS_28SemiDynamicSparseNumberArrayIdmNS_8NWrapperILm53EEEEELb1EEEvRNS_10DualNumberIT_T0_XT1_EEERKS8_
FN:464,_ZN11MetaPhysicL10DualNumberIdNS_28SemiDynamicSparseNumberArrayIdmNS_8NWrapperILm53EEEEELb1EEpLIdS4_EERS5_RKNS0_IT_T0_Lb1EEE
FNDA:219608000,_ZN11MetaPhysicL10DualNumberIdNS_28SemiDynamicSparseNumberArrayIdmNS_8NWrapperILm53EEEEELb1EEpLIdS4_EERS5_RKNS0_IT_T0_Lb1EEE
FN:466,_ZN11MetaPhysicL10DualNumberIdNS_28SemiDynamicSparseNumberArrayIdmNS_8NWrapperILm53EEEEELb1EEmIIdS4_EERS5_RKNS0_IT_T0_Lb1EEE
FNDA:10097000,_ZN11MetaPhysicL10DualNumberIdNS_28SemiDynamicSparseNumberArrayIdmNS_8NWrapperILm53EEEEELb1EEmIIdS4_EERS5_RKNS0_IT_T0_Lb1EEE
FN:468,_ZN11MetaPhysicL10DualNumberIdNS_28SemiDynamicSparseNumberArrayIdmNS_8NWrapperILm53EEEEELb1EEmLIdS4_EERS5_RKNS0_IT_T0_Lb1EEE
FNDA:261493000,_ZN11MetaPhysicL10DualNumberIdNS_28SemiDynamicSparseNumberArrayIdmNS_8NWrapperILm53EEEEELb1EEmLIdS4_EERS5_RKNS0_IT_T0_Lb1EEE
FN:473,_ZN11MetaPhysicL10DualNumberIdNS_28SemiDynamicSparseNumberArrayIdmNS_8NWrapperILm53EEEEELb1EEdVIdS4_EERS5_RKNS0_IT_T0_Lb1EEE
FNDA:21333000,_ZN11MetaPhysicL10DualNumberIdNS_28SemiDynamicSparseNumberArrayIdmNS_8NWrapperILm53EEEEELb1EEdVIdS4_EERS5_RKNS0_IT_T0_Lb1EEE
FN:634,_ZSt4sqrtIdN11MetaPhysicL28SemiDynamicSparseNumberArrayIdmNS0_8NWrapperILm53EEEEELb1EENS0_10DualNumberIT_T0_XT1_EEEOS8_
FNDA:2881240,_ZSt4sqrtIdN11MetaPhysicL28SemiDynamicSparseNumberArrayIdmNS0_8NWrapperILm53EEEEELb1EENS0_10DualNumberIT_T0_XT1_EEEOS8_
FN:635,_ZSt3expIdN11MetaPhysicL28SemiDynamicSparseNumberArrayIdmNS0_8NWrapperILm53EEEEELb1EENS0_10DualNumberIT_T0_XT1_EEERKS8_
FNDA:718824,_ZSt3expIdN11MetaPhysicL28SemiDynamicSparseNumberArrayIdmNS0_8NWrapperILm53EEEEELb1EENS0_10DualNumberIT_T0_XT1_EEERKS8_
FN:636,_ZSt3logIdN11MetaPhysicL28SemiDynamicSparseNumberArrayIdmNS0_8NWrapperILm53EEEEELb1EENS0_10DualNumberIT_T0_XT1_EEERKS8_
FNDA:1582900,_ZSt3logIdN11MetaPhysicL28SemiDynamicSparseNumberArrayIdmNS0_8NWrapperILm53EEEEELb1EENS0_10DualNumberIT_T0_XT1_EEERKS8_
FN:647,_ZSt3absIdN11MetaPhysicL28SemiDynamicSparseNumberArrayIdmNS0_8NWrapperILm53EEEEELb1EENS0_10DualNumberIT_T0_XT1_EEERKS8_
FNDA:71498900,_ZSt3absIdN11MetaPhysicL28SemiDynamicSparseNumberArrayIdmNS0_8NWrapperILm53EEEEELb1EENS0_10DualNumberIT_T0_XT1_EEERKS8_
FN:861,_ZSt3maxIdN11MetaPhysicL28SemiDynamicSparseNumberArrayIdmNS0_8NWrapperILm53EEEEELb1EENS0_10DualNumberIT_T0_XT1_EEERKS8_SA_
FNDA:22200900,_ZSt3maxIdN11MetaPhysicL28SemiDynamicSparseNumberArrayIdmNS0_8NWrapperILm53EEEEELb1EENS0_10DualNumberIT_T0_XT1_EEERKS8_SA_
FN:863,_ZSt3minIdN11MetaPhysicL28SemiDynamicSparseNumberArrayIdmNS0_8NWrapperILm53EEEEELb1EENS0_10DualNumberIT_T0_XT1_EEERKS8_SA_
FNDA:1433740,_ZSt3minIdN11MetaPhysicL28SemiDynamicSparseNumberArrayIdmNS0_8NWrapperILm53EEEEELb1EENS0_10DualNumberIT_T0_XT1_EEERKS8_SA_
FNF:23
FNH:22
DA:48,0
DA:53,23634700
DA:63,13363900
DA:73,9439970
DA:97,199500000
DA:99,199500000
DA:101,199500000
DA:104,199500000
DA:110,40515300
DA:112,40515300
DA:114,40515300
DA:117,40515300
DA:136,365925000
DA:137,365925000
DA:139,365925000
DA:141,365925000
DA:145,52658800
DA:146,52658800
DA:148,52658800
DA:150,52658800
DA:187,5191800
DA:189,5191800
DA:190,5191800
DA:191,2928360
DA:192,5191800
DA:187,122497000
DA:189,122497000
DA:190,122497000
DA:191,69703100
DA:192,122497000
DA:214,59185500
DA:215,59185500
DA:217,59185500
DA:218,33601400
DA:219,59185500
DA:214,24775700
DA:215,24775700
DA:217,24775700
DA:218,14232500
DA:219,24775700
DA:224,10270800
DA:226,10270800
DA:228,10270800
DA:229,0
DA:230,10270800
DA:224,23634300
DA:226,23634300
DA:228,23634300
DA:229,19389600
DA:230,23634300
DA:259,0
DA:262,0
DA:265,0
DA:266,0
DA:269,0
DA:270,0
DA:310,20293100
DA:313,20293100
DA:316,20293100
DA:317,0
DA:318,0
DA:321,20293100
DA:322,20293100
DA:464,251320000
DA:466,18760200
DA:468,500751000
DA:473,42665900
DA:510,2876320
DA:512,9230630
DA:513,4038830
DA:514,17856700
DA:515,11363
DA:634,4536730
DA:635,718824
DA:636,1582900
DA:647,71498900
DA:861,41346300
DA:863,2761880
LF:78
LH:68
end_of_record
SF:/usr/share/miniconda/envs/moose/libmesh/include/Eigen/src/Core/CommaInitializer.h
FN:61,_ZN5Eigen16CommaInitializerINS_6MatrixIN11MetaPhysicL10DualNumberIdNS2_28SemiDynamicSparseNumberArrayIdmNS2_8NWrapperILm53EEEEELb1EEELi3ELi3ELi0ELi3ELi3EEEEcmERKS8_
FNDA:39368,_ZN5Eigen16CommaInitializerINS_6MatrixIN11MetaPhysicL10DualNumberIdNS2_28SemiDynamicSparseNumberArrayIdmNS2_8NWrapperILm53EEEEELb1EEELi3ELi3ELi0ELi3ELi3EEEEcmERKS8_
FNF:1
FNH:1
DA:34,4921
DA:36,4921
DA:61,39368
DA:63,39368
DA:65,9842
DA:66,9842
DA:67,9842
DA:74,39368
DA:75,39368
DA:107,4921
LF:10
LH:10
end_of_record
SF:/usr/share/miniconda/envs/moose/libmesh/include/Eigen/src/Core/Redux.h
FN:100,_ZN5Eigen8internal20redux_novec_unrollerINS0_13scalar_max_opIN11MetaPhysicL10DualNumberIdNS3_28SemiDynamicSparseNumberArrayIdmNS3_8NWrapperILm53EEEEELb1EEES9_EENS0_15redux_evaluatorINS_12CwiseUnaryOpINS0_13scalar_abs_opIS9_EEKNS_6MatrixIS9_Li3ELi3ELi0ELi3ELi3EEEEEEELi7ELi2EE3runERKSJ_RKSA_
FNDA:2595900,_ZN5Eigen8internal20redux_novec_unrollerINS0_13scalar_max_opIN11MetaPhysicL10DualNumberIdNS3_28SemiDynamicSparseNumberArrayIdmNS3_8NWrapperILm53EEEEELb1EEES9_EENS0_15redux_evaluatorINS_12CwiseUnaryOpINS0_13scalar_abs_opIS9_EEKNS_6MatrixIS9_Li3ELi3ELi0ELi3ELi3EEEEEEELi7ELi2EE3runERKSJ_RKSA_
FN:100,_ZN5Eigen8internal20redux_novec_unrollerINS0_13scalar_max_opIN11MetaPhysicL10DualNumberIdNS3_28SemiDynamicSparseNumberArrayIdmNS3_8NWrapperILm53EEEEELb1EEES9_EENS0_15redux_evaluatorINS_12CwiseUnaryOpINS0_13scalar_abs_opIS9_EEKNS_6MatrixIS9_Li3ELi3ELi0ELi3ELi3EEEEEEELi6ELi3EE3runERKSJ_RKSA_
FNDA:2595900,_ZN5Eigen8internal20redux_novec_unrollerINS0_13scalar_max_opIN11MetaPhysicL10DualNumberIdNS3_28SemiDynamicSparseNumberArrayIdmNS3_8NWrapperILm53EEEEELb1EEES9_EENS0_15redux_evaluatorINS_12CwiseUnaryOpINS0_13scalar_abs_opIS9_EEKNS_6MatrixIS9_Li3ELi3ELi0ELi3ELi3EEEEEEELi6ELi3EE3runERKSJ_RKSA_
FN:100,_ZN5Eigen8internal20redux_novec_unrollerINS0_13scalar_max_opIN11MetaPhysicL10DualNumberIdNS3_28SemiDynamicSparseNumberArrayIdmNS3_8NWrapperILm53EEEEELb1EEES9_EENS0_15redux_evaluatorINS_12CwiseUnaryOpINS0_13scalar_abs_opIS9_EEKNS_6MatrixIS9_Li3ELi3ELi0ELi3ELi3EEEEEEELi4ELi2EE3runERKSJ_RKSA_
FNDA:2595900,_ZN5Eigen8internal20redux_novec_unrollerINS0_13scalar_max_opIN11MetaPhysicL10DualNumberIdNS3_28SemiDynamicSparseNumberArrayIdmNS3_8NWrapperILm53EEEEELb1EEES9_EENS0_15redux_evaluatorINS_12CwiseUnaryOpINS0_13scalar_abs_opIS9_EEKNS_6MatrixIS9_Li3ELi3ELi0ELi3ELi3EEEEEEELi4ELi2EE3runERKSJ_RKSA_
FN:100,_ZN5Eigen8internal20redux_novec_unrollerINS0_13scalar_max_opIN11MetaPhysicL10DualNumberIdNS3_28SemiDynamicSparseNumberArrayIdmNS3_8NWrapperILm53EEEEELb1EEES9_EENS0_15redux_evaluatorINS_12CwiseUnaryOpINS0_13scalar_abs_opIS9_EEKNS_6MatrixIS9_Li3ELi3ELi0ELi3ELi3EEEEEEELi2ELi2EE3runERKSJ_RKSA_
FNDA:2595900,_ZN5Eigen8internal20redux_novec_unrollerINS0_13scalar_max_opIN11MetaPhysicL10DualNumberIdNS3_28SemiDynamicSparseNumberArrayIdmNS3_8NWrapperILm53EEEEELb1EEES9_EENS0_15redux_evaluatorINS_12CwiseUnaryOpINS0_13scalar_abs_opIS9_EEKNS_6MatrixIS9_Li3ELi3ELi0ELi3ELi3EEEEEEELi2ELi2EE3runERKSJ_RKSA_
FN:100,_ZN5Eigen8internal20redux_novec_unrollerINS0_13scalar_max_opIN11MetaPhysicL10DualNumberIdNS3_28SemiDynamicSparseNumberArrayIdmNS3_8NWrapperILm53EEEEELb1EEES9_EENS0_15redux_evaluatorINS_12CwiseUnaryOpINS0_13scalar_abs_opIS9_EEKNS_6MatrixIS9_Li3ELi3ELi0ELi3ELi3EEEEEEELi0ELi2EE3runERKSJ_RKSA_
FNDA:2595900,_ZN5Eigen8internal20redux_novec_unrollerINS0_13scalar_max_opIN11MetaPhysicL10DualNumberIdNS3_28SemiDynamicSparseNumberArrayIdmNS3_8NWrapperILm53EEEEELb1EEES9_EENS0_15redux_evaluatorINS_12CwiseUnaryOpINS0_13scalar_abs_opIS9_EEKNS_6MatrixIS9_Li3ELi3ELi0ELi3ELi3EEEEEEELi0ELi2EE3runERKSJ_RKSA_
FN:100,_ZN5Eigen8internal20redux_novec_unrollerINS0_13scalar_max_opIN11MetaPhysicL10DualNumberIdNS3_28SemiDynamicSparseNumberArrayIdmNS3_8NWrapperILm53EEEEELb1EEES9_EENS0_15redux_evaluatorINS_12CwiseUnaryOpINS0_13scalar_abs_opIS9_EEKNS_6MatrixIS9_Li3ELi3ELi0ELi3ELi3EEEEEEELi4ELi5EE3runERKSJ_RKSA_
FNDA:2595900,_ZN5Eigen8internal20redux_novec_unrollerINS0_13scalar_max_opIN11MetaPhysicL10DualNumberIdNS3_28SemiDynamicSparseNumberArrayIdmNS3_8NWrapperILm53EEEEELb1EEES9_EENS0_15redux_evaluatorINS_12CwiseUnaryOpINS0_13scalar_abs_opIS9_EEKNS_6MatrixIS9_Li3ELi3ELi0ELi3ELi3EEEEEEELi4ELi5EE3runERKSJ_RKSA_
FN:100,_ZN5Eigen8internal20redux_novec_unrollerINS0_13scalar_max_opIN11MetaPhysicL10DualNumberIdNS3_28SemiDynamicSparseNumberArrayIdmNS3_8NWrapperILm53EEEEELb1EEES9_EENS0_15redux_evaluatorINS_12CwiseUnaryOpINS0_13scalar_abs_opIS9_EEKNS_6MatrixIS9_Li3ELi3ELi0ELi3ELi3EEEEEEELi0ELi4EE3runERKSJ_RKSA_
FNDA:2595900,_ZN5Eigen8internal20redux_novec_unrollerINS0_13scalar_max_opIN11MetaPhysicL10DualNumberIdNS3_28SemiDynamicSparseNumberArrayIdmNS3_8NWrapperILm53EEEEELb1EEES9_EENS0_15redux_evaluatorINS_12CwiseUnaryOpINS0_13scalar_abs_opIS9_EEKNS_6MatrixIS9_Li3ELi3ELi0ELi3ELi3EEEEEEELi0ELi4EE3runERKSJ_RKSA_
FN:100,_ZN5Eigen8internal20redux_novec_unrollerINS0_13scalar_max_opIN11MetaPhysicL10DualNumberIdNS3_28SemiDynamicSparseNumberArrayIdmNS3_8NWrapperILm53EEEEELb1EEES9_EENS0_15redux_evaluatorINS_12CwiseUnaryOpINS0_13scalar_abs_opIS9_EEKNS_6MatrixIS9_Li3ELi3ELi0ELi3ELi3EEEEEEELi0ELi9EE3runERKSJ_RKSA_
FNDA:2595900,_ZN5Eigen8internal20redux_novec_unrollerINS0_13scalar_max_opIN11MetaPhysicL10DualNumberIdNS3_28SemiDynamicSparseNumberArrayIdmNS3_8NWrapperILm53EEEEELb1EEES9_EENS0_15redux_evaluatorINS_12CwiseUnaryOpINS0_13scalar_abs_opIS9_EEKNS_6MatrixIS9_Li3ELi3ELi0ELi3ELi3EEEEEEELi0ELi9EE3runERKSJ_RKSA_
FN:436,_ZNK5Eigen9DenseBaseINS_12CwiseUnaryOpINS_8internal13scalar_abs_opIN11MetaPhysicL10DualNumberIdNS4_28SemiDynamicSparseNumberArrayIdmNS4_8NWrapperILm53EEEEELb1EEEEEKNS_6MatrixISA_Li3ELi3ELi0ELi3ELi3EEEEEE8maxCoeffEv
FNDA:2595900,_ZNK5Eigen9DenseBaseINS_12CwiseUnaryOpINS_8internal13scalar_abs_opIN11MetaPhysicL10DualNumberIdNS4_28SemiDynamicSparseNumberArrayIdmNS4_8NWrapperILm53EEEEELb1EEEEEKNS_6MatrixISA_Li3ELi3ELi0ELi3ELi3EEEEEE8maxCoeffEv
FNF:9
FNH:9
DA:100,2595900
DA:103,2595900
DA:100,2595900
DA:103,2595900
DA:100,2595900
DA:103,2595900
DA:100,2595900
DA:103,2595900
DA:100,2595900
DA:103,2595900
DA:100,2595900
DA:103,2595900
DA:100,2595900
DA:103,2595900
DA:100,2595900
DA:103,2595900
DA:334,2595900
DA:338,2595900
DA:418,2595900
DA:436,2595900
DA:438,2595900
LF:21
LH:21
end_of_record
SF:/usr/share/miniconda/envs/moose/x86_64-conda-linux-gnu/include/c++/10.3.0/bits/stl_uninitialized.h
DA:90,8083430
DA:566,10394800
DA:991,2482630
DA:992,2482630
DA:993,18
LF:5
LH:5
end_of_record
SF:/usr/share/miniconda/envs/moose/libmesh/include/Eigen/src/Eigenvalues/SelfAdjointEigenSolver.h
FN:118,_ZN5Eigen22SelfAdjointEigenSolverINS_6MatrixIN11MetaPhysicL10DualNumberIdNS2_28SemiDynamicSparseNumberArrayIdmNS2_8NWrapperILm53EEEEELb1EEELi3ELi3ELi0ELi3ELi3EEEEC2Ev
FNDA:2595900,_ZN5Eigen22SelfAdjointEigenSolverINS_6MatrixIN11MetaPhysicL10DualNumberIdNS2_28SemiDynamicSparseNumberArrayIdmNS2_8NWrapperILm53EEEEELb1EEELi3ELi3ELi0ELi3ELi3EEEEC2Ev
FN:399,_ZN5Eigen22SelfAdjointEigenSolverINS_6MatrixIN11MetaPhysicL10DualNumberIdNS2_28SemiDynamicSparseNumberArrayIdmNS2_8NWrapperILm53EEEEELb1EEELi3ELi3ELi0ELi3ELi3EEEE7computeIS9_EERSA_RKNS_9EigenBaseIT_EEi
FNDA:2595900,_ZN5Eigen22SelfAdjointEigenSolverINS_6MatrixIN11MetaPhysicL10DualNumberIdNS2_28SemiDynamicSparseNumberArrayIdmNS2_8NWrapperILm53EEEEELb1EEELi3ELi3ELi0ELi3ELi3EEEE7computeIS9_EERSA_RKNS_9EigenBaseIT_EEi
FN:482,_ZN5Eigen8internal27computeFromTridiagonal_implINS_6MatrixIN11MetaPhysicL10DualNumberIdNS3_28SemiDynamicSparseNumberArrayIdmNS3_8NWrapperILm53EEEEELb1EEELi3ELi3ELi0ELi3ELi3EEENS2_IS9_Li3ELi1ELi0ELi3ELi1EEENS2_IS9_Li2ELi1ELi0ELi2ELi1EEEEENS_15ComputationInfoERT0_RT1_lbRT_
FNDA:2595900,_ZN5Eigen8internal27computeFromTridiagonal_implINS_6MatrixIN11MetaPhysicL10DualNumberIdNS3_28SemiDynamicSparseNumberArrayIdmNS3_8NWrapperILm53EEEEELb1EEELi3ELi3ELi0ELi3ELi3EEENS2_IS9_Li3ELi1ELi0ELi3ELi1EEENS2_IS9_Li2ELi1ELi0ELi2ELi1EEEEENS_15ComputationInfoERT0_RT1_lbRT_
FN:809,_ZN5Eigen8internalL19tridiagonal_qr_stepILi0EN11MetaPhysicL10DualNumberIdNS2_28SemiDynamicSparseNumberArrayIdmNS2_8NWrapperILm53EEEEELb1EEES8_lEEvPT0_SA_T2_SB_PT1_SB_
FNDA:1433790,_ZN5Eigen8internalL19tridiagonal_qr_stepILi0EN11MetaPhysicL10DualNumberIdNS2_28SemiDynamicSparseNumberArrayIdmNS2_8NWrapperILm53EEEEELb1EEES8_lEEvPT0_SA_T2_SB_PT1_SB_
FNF:4
FNH:4
DA:118,2595900
DA:122,2595900
DA:123,2595900
DA:399,2595900
DA:411,2595900
DA:428,2595900
DA:429,2595900
DA:432,2595900
DA:433,2595900
DA:434,2595900
DA:435,2595900
DA:437,2595900
DA:439,2595900
DA:442,2595900
DA:444,2595900
DA:445,2595900
DA:482,2595900
DA:496,5191800
DA:498,4029690
DA:500,10664400
DA:501,21347100
DA:502,5191800
DA:505,15847100
DA:507,5191800
DA:509,4029690
DA:513,1433790
DA:514,1433790
DA:516,1433790
DA:517,1442930
DA:520,2867580
DA:522,2595900
DA:532,7787700
DA:535,5191800
DA:536,5191800
DA:538,1587860
DA:539,1587860
DA:540,1587860
DA:544,2595900
DA:809,1433790
DA:812,1433790
DA:813,1433790
DA:819,1433790
DA:820,1433790
DA:821,52
DA:826,1433740
DA:827,2867480
DA:830,1433790
DA:831,1433790
DA:832,2876720
DA:838,2885860
DA:839,2885860
DA:841,1442930
DA:842,1442930
DA:843,1442930
DA:846,1442930
DA:847,18280
DA:849,1442930
DA:851,1442930
DA:853,18280
DA:854,9140
DA:858,1442930
DA:862,1442930
DA:865,1433790
LF:63
LH:63
end_of_record
SF:/usr/share/miniconda/envs/moose/x86_64-conda-linux-gnu/include/c++/10.3.0/sstream
DA:678,0
LF:1
LH:0
end_of_record
SF:/usr/share/miniconda/envs/moose/x86_64-conda-linux-gnu/include/c++/10.3.0/bits/locale_facets.h
FN:872,_ZNKSt5ctypeIcE5widenEc
FNDA:0,_ZNKSt5ctypeIcE5widenEc
FN:1084,_ZNKSt5ctypeIcE8do_widenEc
FNDA:0,_ZNKSt5ctypeIcE8do_widenEc
FNF:2
FNH:0
DA:872,0
DA:874,0
DA:875,0
DA:876,0
DA:877,0
DA:1084,0
DA:1085,0
LF:7
LH:0
end_of_record
SF:/usr/share/miniconda/envs/moose/libmesh/include/Eigen/src/Core/functors/NullaryFunctors.h
FN:34,_ZNK5Eigen8internal18scalar_identity_opIN11MetaPhysicL10DualNumberIdNS2_28SemiDynamicSparseNumberArrayIdmNS2_8NWrapperILm53EEEEELb1EEEEclIlEEKS8_T_SC_
FNDA:23318800,_ZNK5Eigen8internal18scalar_identity_opIN11MetaPhysicL10DualNumberIdNS2_28SemiDynamicSparseNumberArrayIdmNS2_8NWrapperILm53EEEEELb1EEEEclIlEEKS8_T_SC_
FNF:1
FNH:1
DA:18,2595900
DA:19,10383600
DA:20,5191800
DA:21,23363100
DA:34,23318800
LF:5
LH:5
end_of_record
SF:/usr/share/miniconda/envs/moose/libmesh/include/metaphysicl/semidynamicsparsenumberarray_decl.h
DA:34,160148000
DA:56,0
DA:58,192891000
DA:60,19389600
DA:62,314928000
LF:5
LH:4
end_of_record
SF:/usr/share/miniconda/envs/moose/libmesh/include/Eigen/src/Core/CwiseUnaryOp.h
DA:66,2595900
DA:80,2595900
LF:2
LH:2
end_of_record
SF:/usr/share/miniconda/envs/moose/x86_64-conda-linux-gnu/include/c++/10.3.0/bits/std_abs.h
DA:72,79286600
LF:1
LH:1
end_of_record
SF:/usr/share/miniconda/envs/moose/libmesh/include/Eigen/src/Eigenvalues/Tridiagonalization.h
FN:466,_ZN5Eigen8internal35tridiagonalization_inplace_selectorINS_6MatrixIN11MetaPhysicL10DualNumberIdNS3_28SemiDynamicSparseNumberArrayIdmNS3_8NWrapperILm53EEEEELb1EEELi3ELi3ELi0ELi3ELi3EEELi3ELb0EE3runINS2_IS9_Li3ELi1ELi0ELi3ELi1EEENS2_IS9_Li2ELi1ELi0ELi2ELi1EEEEEvRSA_RT_RT0_b
FNDA:2595900,_ZN5Eigen8internal35tridiagonalization_inplace_selectorINS_6MatrixIN11MetaPhysicL10DualNumberIdNS3_28SemiDynamicSparseNumberArrayIdmNS3_8NWrapperILm53EEEEELb1EEELi3ELi3ELi0ELi3ELi3EEELi3ELb0EE3runINS2_IS9_Li3ELi1ELi0ELi3ELi1EEENS2_IS9_Li2ELi1ELi0ELi2ELi1EEEEEvRSA_RT_RT0_b
FNF:1
FNH:1
DA:430,2595900
DA:431,2595900
DA:466,2595900
DA:470,2595900
DA:472,2595900
DA:474,2590980
DA:475,2590980
DA:476,2590980
DA:477,2590980
DA:478,2590980
DA:483,4921
DA:484,9842
DA:487,9842
DA:488,4921
DA:489,4921
DA:490,4921
DA:491,4921
DA:492,4921
DA:494,14763
DA:495,14763
DA:496,9842
DA:499,2595900
LF:22
LH:22
end_of_record
SF:/usr/share/miniconda/envs/moose/libmesh/include/Eigen/src/Core/CwiseNullaryOp.h
DA:60,5191800
DA:68,2595900
DA:176,2595900
DA:747,2590980
DA:776,2590980
LF:5
LH:5
end_of_record
SF:/usr/share/miniconda/envs/moose/libmesh/include/Eigen/src/plugins/CommonCwiseBinaryOps.h
FN:69,_ZNK5Eigen10MatrixBaseINS_6MatrixIN11MetaPhysicL10DualNumberIdNS2_28SemiDynamicSparseNumberArrayIdmNS2_8NWrapperILm53EEEEELb1EEELi3ELi3ELi0ELi3ELi3EEEEdvIS8_EENS_8internal9enable_ifILb1EKNS_13CwiseBinaryOpINSC_18scalar_quotient_opIS8_NSC_18promote_scalar_argIS8_T_XsrNSC_14has_ReturnTypeINS_20ScalarBinaryOpTraitsIS8_SH_NSF_IS8_SH_EEEEEE5valueEE4typeEEEKS9_KNSC_19plain_constant_typeIS9_SO_E4typeEEEE4typeERKSH_
FNDA:2595900,_ZNK5Eigen10MatrixBaseINS_6MatrixIN11MetaPhysicL10DualNumberIdNS2_28SemiDynamicSparseNumberArrayIdmNS2_8NWrapperILm53EEEEELb1EEELi3ELi3ELi0ELi3ELi3EEEEdvIS8_EENS_8internal9enable_ifILb1EKNS_13CwiseBinaryOpINSC_18scalar_quotient_opIS8_NSC_18promote_scalar_argIS8_T_XsrNSC_14has_ReturnTypeINS_20ScalarBinaryOpTraitsIS8_SH_NSF_IS8_SH_EEEEEE5valueEE4typeEEEKS9_KNSC_19plain_constant_typeIS9_SO_E4typeEEEE4typeERKSH_
FNF:1
FNH:1
DA:69,2595900
LF:1
LH:1
end_of_record
SF:/usr/share/miniconda/envs/moose/libmesh/include/Eigen/src/Core/Block.h
DA:347,3030790
DA:353,3030790
DA:374,5191800
DA:375,5191800
DA:437,8222590
LF:5
LH:5
end_of_record
SF:/home/runner/work/raccoon/raccoon/moose/framework/build/header_symlinks/RankTwoTensorImplementation.h
FN:69,_ZN18RankTwoTensorTemplIN11MetaPhysicL10DualNumberIdNS0_28SemiDynamicSparseNumberArrayIdmNS0_8NWrapperILm53EEEEELb1EEEEC2Ev
FNDA:10614900,_ZN18RankTwoTensorTemplIN11MetaPhysicL10DualNumberIdNS0_28SemiDynamicSparseNumberArrayIdmNS0_8NWrapperILm53EEEEELb1EEEEC2Ev
FN:69,_ZN18RankTwoTensorTemplIdEC2Ev
FNDA:1157620,_ZN18RankTwoTensorTemplIdEC2Ev
FN:165,_ZN18RankTwoTensorTemplIN11MetaPhysicL10DualNumberIdNS0_28SemiDynamicSparseNumberArrayIdmNS0_8NWrapperILm53EEEEELb1EEEE19fillFromInputVectorERKSt6vectorIS6_SaIS6_EENS7_10FillMethodE
FNDA:2995900,_ZN18RankTwoTensorTemplIN11MetaPhysicL10DualNumberIdNS0_28SemiDynamicSparseNumberArrayIdmNS0_8NWrapperILm53EEEEELb1EEEE19fillFromInputVectorERKSt6vectorIS6_SaIS6_EENS7_10FillMethodE
FN:318,_ZNK18RankTwoTensorTemplIN11MetaPhysicL10DualNumberIdNS0_28SemiDynamicSparseNumberArrayIdmNS0_8NWrapperILm53EEEEELb1EEEE9transposeEv
FNDA:6699230,_ZNK18RankTwoTensorTemplIN11MetaPhysicL10DualNumberIdNS0_28SemiDynamicSparseNumberArrayIdmNS0_8NWrapperILm53EEEEELb1EEEE9transposeEv
FN:637,_ZNK18RankTwoTensorTemplIdE7inverseEv
FNDA:0,_ZNK18RankTwoTensorTemplIdE7inverseEv
FN:801,_ZNK18RankTwoTensorTemplIdE5printERSo
FNDA:0,_ZNK18RankTwoTensorTemplIdE5printERSo
FN:814,_ZNK18RankTwoTensorTemplIdE9printRealERSo
FNDA:0,_ZNK18RankTwoTensorTemplIdE9printRealERSo
FN:821,_ZNK18RankTwoTensorTemplIN11MetaPhysicL10DualNumberIdNS0_28SemiDynamicSparseNumberArrayIdmNS0_8NWrapperILm53EEEEELb1EEEE9printRealERSo
FNDA:0,_ZNK18RankTwoTensorTemplIN11MetaPhysicL10DualNumberIdNS0_28SemiDynamicSparseNumberArrayIdmNS0_8NWrapperILm53EEEEELb1EEEE9printRealERSo
FN:834,_ZNK18RankTwoTensorTemplIN11MetaPhysicL10DualNumberIdNS0_28SemiDynamicSparseNumberArrayIdmNS0_8NWrapperILm53EEEEELb1EEEE13printDualRealEjRSo
FNDA:0,_ZNK18RankTwoTensorTemplIN11MetaPhysicL10DualNumberIdNS0_28SemiDynamicSparseNumberArrayIdmNS0_8NWrapperILm53EEEEELb1EEEE13printDualRealEjRSo
FN:898,_ZNK18RankTwoTensorTemplIdE4syevEPKcRSt6vectorIdSaIdEES6_
FNDA:0,_ZNK18RankTwoTensorTemplIdE4syevEPKcRSt6vectorIdSaIdEES6_
FN:939,_ZNK18RankTwoTensorTemplIdE20symmetricEigenvaluesERSt6vectorIdSaIdEE
FNDA:0,_ZNK18RankTwoTensorTemplIdE20symmetricEigenvaluesERSt6vectorIdSaIdEE
FN:956,_ZNK18RankTwoTensorTemplIdE32symmetricEigenvaluesEigenvectorsERSt6vectorIdSaIdEERS0_
FNDA:0,_ZNK18RankTwoTensorTemplIdE32symmetricEigenvaluesEigenvectorsERSt6vectorIdSaIdEERS0_
FN:969,_ZNK18RankTwoTensorTemplIN11MetaPhysicL10DualNumberIdNS0_28SemiDynamicSparseNumberArrayIdmNS0_8NWrapperILm53EEEEELb1EEEE32symmetricEigenvaluesEigenvectorsERSt6vectorIS6_SaIS6_EERS7_
FNDA:2595900,_ZNK18RankTwoTensorTemplIN11MetaPhysicL10DualNumberIdNS0_28SemiDynamicSparseNumberArrayIdmNS0_8NWrapperILm53EEEEELb1EEEE32symmetricEigenvaluesEigenvectorsERSt6vectorIS6_SaIS6_EERS7_
FN:1082,_ZNK18RankTwoTensorTemplIdE26getRUDecompositionRotationERS0_
FNDA:0,_ZNK18RankTwoTensorTemplIdE26getRUDecompositionRotationERS0_
FNF:14
FNH:5
DA:69,10614900
DA:73,106149000
DA:74,95534200
DA:75,10614900
DA:69,1157620
DA:73,11576200
DA:74,10418500
DA:75,1157620
DA:165,2995900
DA:167,2995900
DA:168,0
DA:170,2995900
DA:172,0
DA:173,0
DA:174,0
DA:175,0
DA:176,0
DA:177,0
DA:179,2995900
DA:180,2995900
DA:181,2995900
DA:182,2995900
DA:183,2995900
DA:184,2995900
DA:187,0
DA:188,0
DA:189,0
DA:190,0
DA:191,0
DA:192,0
DA:193,0
DA:196,0
DA:197,0
DA:198,0
DA:199,0
DA:200,0
DA:201,0
DA:202,0
DA:203,0
DA:204,0
DA:205,0
DA:207,0
DA:208,0
DA:211,2995900
DA:318,6699230
DA:320,6699230
DA:327,0
DA:637,0
DA:639,0
DA:801,0
DA:804,0
DA:806,0
DA:807,0
DA:810,0
DA:814,0
DA:816,0
DA:817,0
DA:821,0
DA:824,0
DA:826,0
DA:827,0
DA:830,0
DA:834,0
DA:837,0
DA:839,0
DA:841,0
DA:842,0
DA:843,0
DA:844,0
DA:848,0
DA:898,0
DA:902,0
DA:903,0
DA:906,0
DA:907,0
DA:909,0
DA:911,0
DA:912,0
DA:915,0
DA:920,0
DA:922,0
DA:923,0
DA:924,0
DA:927,0
DA:939,0
DA:942,0
DA:943,0
DA:956,0
DA:960,0
DA:962,0
DA:963,0
DA:964,0
DA:965,0
DA:969,2595900
DA:974,10383600
DA:975,23363100
DA:977,15575400
DA:978,15575400
DA:979,23363100
DA:980,6352900
DA:983,2595900
DA:984,2595900
DA:987,2595900
DA:988,10383600
DA:989,7787700
DA:992,10383600
DA:993,31150800
DA:994,23363100
DA:995,2595900
DA:1082,0
DA:1085,0
DA:1090,0
DA:1092,0
DA:1094,0
DA:1095,0
DA:1096,0
DA:1098,0
DA:1100,0
DA:1101,0
DA:1107,0
DA:1108,0
DA:1110,0
DA:1111,0
DA:1112,0
DA:1114,0
DA:1115,0
LF:126
LH:36
end_of_record
SF:/usr/share/miniconda/envs/moose/x86_64-conda-linux-gnu/include/c++/10.3.0/streambuf
LF:0
LH:0
end_of_record
SF:/usr/share/miniconda/envs/moose/x86_64-conda-linux-gnu/include/c++/10.3.0/ext/new_allocator.h
DA:105,6908220
DA:106,0
DA:115,6908220
DA:133,4424650
LF:4
LH:3
end_of_record
SF:/usr/share/miniconda/envs/moose/libmesh/include/Eigen/src/Core/MathFunctions.h
FN:1303,_ZN5Eigen8internal25scalar_fuzzy_default_implIN11MetaPhysicL10DualNumberIdNS2_28SemiDynamicSparseNumberArrayIdmNS2_8NWrapperILm53EEEEELb1EEELb0ELb0EE17isMuchSmallerThanIS8_EEbRKS8_RKT_SC_
FNDA:6634730,_ZN5Eigen8internal25scalar_fuzzy_default_implIN11MetaPhysicL10DualNumberIdNS2_28SemiDynamicSparseNumberArrayIdmNS2_8NWrapperILm53EEEEELb1EEELb0ELb0EE17isMuchSmallerThanIS8_EEbRKS8_RKT_SC_
FNF:1
FNH:1
DA:247,10100500
DA:821,1433740
DA:829,22200900
DA:919,1438660
DA:936,1433740
DA:1057,19614200
DA:1303,6634730
DA:1305,6634730
DA:1363,6634730
LF:9
LH:9
end_of_record
SF:/usr/share/miniconda/envs/moose/libmesh/include/libmesh/type_tensor.h
FN:521,_ZN7libMesh10TypeTensorIN11MetaPhysicL10DualNumberIdNS1_28SemiDynamicSparseNumberArrayIdmNS1_8NWrapperILm53EEEEELb1EEEEC2Ev
FNDA:0,_ZN7libMesh10TypeTensorIN11MetaPhysicL10DualNumberIdNS1_28SemiDynamicSparseNumberArrayIdmNS1_8NWrapperILm53EEEEELb1EEEEC2Ev
FN:544,_ZN7libMesh10TypeTensorIN11MetaPhysicL10DualNumberIdNS1_28SemiDynamicSparseNumberArrayIdmNS1_8NWrapperILm53EEEEELb1EEEEC2ERKS7_SA_SA_SA_SA_SA_SA_SA_SA_
FNDA:6699230,_ZN7libMesh10TypeTensorIN11MetaPhysicL10DualNumberIdNS1_28SemiDynamicSparseNumberArrayIdmNS1_8NWrapperILm53EEEEELb1EEEEC2ERKS7_SA_SA_SA_SA_SA_SA_SA_SA_
FN:1046,_ZNK7libMesh10TypeTensorIN11MetaPhysicL10DualNumberIdNS1_28SemiDynamicSparseNumberArrayIdmNS1_8NWrapperILm53EEEEELb1EEEE9transposeEv
FNDA:6699230,_ZNK7libMesh10TypeTensorIN11MetaPhysicL10DualNumberIdNS1_28SemiDynamicSparseNumberArrayIdmNS1_8NWrapperILm53EEEEELb1EEEE9transposeEv
FN:1076,_ZNK7libMesh10TypeTensorIdE7inverseEv
FNDA:0,_ZNK7libMesh10TypeTensorIdE7inverseEv
FN:1229,_ZNK7libMesh10TypeTensorIN11MetaPhysicL10DualNumberIdNS1_28SemiDynamicSparseNumberArrayIdmNS1_8NWrapperILm53EEEEELb1EEEEmlIS7_EENS0_INS_12CompareTypesIS7_T_E9supertypeEEERKNS0_ISB_EE
FNDA:6959090,_ZNK7libMesh10TypeTensorIN11MetaPhysicL10DualNumberIdNS1_28SemiDynamicSparseNumberArrayIdmNS1_8NWrapperILm53EEEEELb1EEEEmlIS7_EENS0_INS_12CompareTypesIS7_T_E9supertypeEEERKNS0_ISB_EE
FN:1229,_ZNK7libMesh10TypeTensorIdEmlIdEENS0_INS_12CompareTypesIdT_E9supertypeEEERKNS0_IS4_EE
FNDA:0,_ZNK7libMesh10TypeTensorIdEmlIdEENS0_INS_12CompareTypesIdT_E9supertypeEEERKNS0_IS4_EE
FN:1334,_ZN7libMesh10TypeTensorIN11MetaPhysicL10DualNumberIdNS1_28SemiDynamicSparseNumberArrayIdmNS1_8NWrapperILm53EEEEELb1EEEE4zeroEv
FNDA:2995900,_ZN7libMesh10TypeTensorIN11MetaPhysicL10DualNumberIdNS1_28SemiDynamicSparseNumberArrayIdmNS1_8NWrapperILm53EEEEELb1EEEE4zeroEv
FNF:7
FNH:4
DA:521,0
DA:523,0
DA:526,0
DA:527,0
DA:528,0
DA:532,0
DA:533,0
DA:534,0
DA:535,0
DA:536,1157620
DA:538,0
DA:544,6699230
DA:552,66992300
DA:554,6699230
DA:568,6699230
DA:569,6699230
DA:570,6699230
DA:571,6699230
DA:572,6699230
DA:573,6699230
DA:574,6699230
DA:575,6699230
DA:584,6699230
DA:700,13658300
DA:729,203471000
DA:749,26359000
DA:1046,6699230
DA:1060,6699230
DA:1061,6699230
DA:1062,6699230
DA:1063,6699230
DA:1064,6699230
DA:1065,6699230
DA:1066,6699230
DA:1067,6699230
DA:1068,6699230
DA:1076,0
DA:1105,0
DA:1106,0
DA:1107,0
DA:1109,0
DA:1111,0
DA:1112,0
DA:1115,0
DA:1116,0
DA:1117,0
DA:1229,6959090
DA:1231,6959090
DA:1232,27836400
DA:1233,83509100
DA:1234,250527000
DA:1235,187895000
DA:1237,6959090
DA:1229,0
DA:1232,0
DA:1233,0
DA:1234,0
DA:1235,0
DA:1237,0
DA:1334,2995900
DA:1336,29959000
DA:1337,26963100
DA:1338,2995900
LF:63
LH:37
end_of_record
SF:/usr/share/miniconda/envs/moose/libmesh/include/Eigen/src/Jacobi/Jacobi.h
FN:59,_ZNK5Eigen14JacobiRotationIN11MetaPhysicL10DualNumberIdNS1_28SemiDynamicSparseNumberArrayIdmNS1_8NWrapperILm53EEEEELb1EEEE9transposeEv
FNDA:1442930,_ZNK5Eigen14JacobiRotationIN11MetaPhysicL10DualNumberIdNS1_28SemiDynamicSparseNumberArrayIdmNS1_8NWrapperILm53EEEEELb1EEEE9transposeEv
FN:215,_ZN5Eigen14JacobiRotationIN11MetaPhysicL10DualNumberIdNS1_28SemiDynamicSparseNumberArrayIdmNS1_8NWrapperILm53EEEEELb1EEEE10makeGivensERKS7_SA_PS7_NS_8internal10false_typeE
FNDA:1442930,_ZN5Eigen14JacobiRotationIN11MetaPhysicL10DualNumberIdNS1_28SemiDynamicSparseNumberArrayIdmNS1_8NWrapperILm53EEEEELb1EEEE10makeGivensERKS7_SA_PS7_NS_8internal10false_typeE
FN:292,_ZN5Eigen10MatrixBaseINS_3MapINS_6MatrixIN11MetaPhysicL10DualNumberIdNS3_28SemiDynamicSparseNumberArrayIdmNS3_8NWrapperILm53EEEEELb1EEELin1ELin1ELi0ELin1ELin1EEELi0ENS_6StrideILi0ELi0EEEEEE15applyOnTheRightIS9_EEvllRKNS_14JacobiRotationIT_EE
FNDA:1442930,_ZN5Eigen10MatrixBaseINS_3MapINS_6MatrixIN11MetaPhysicL10DualNumberIdNS3_28SemiDynamicSparseNumberArrayIdmNS3_8NWrapperILm53EEEEELb1EEELin1ELin1ELi0ELin1ELin1EEELi0ENS_6StrideILi0ELi0EEEEEE15applyOnTheRightIS9_EEvllRKNS_14JacobiRotationIT_EE
FN:305,_ZN5Eigen8internal36apply_rotation_in_the_plane_selectorIN11MetaPhysicL10DualNumberIdNS2_28SemiDynamicSparseNumberArrayIdmNS2_8NWrapperILm53EEEEELb1EEES8_Lin1ELi0ELb0EE3runEPS8_lSA_llS8_S8_
FNDA:1442930,_ZN5Eigen8internal36apply_rotation_in_the_plane_selectorIN11MetaPhysicL10DualNumberIdNS2_28SemiDynamicSparseNumberArrayIdmNS2_8NWrapperILm53EEEEELb1EEES8_Lin1ELi0ELb0EE3runEPS8_lSA_llS8_S8_
FN:432,_ZN5Eigen8internal27apply_rotation_in_the_planeINS_5BlockINS_3MapINS_6MatrixIN11MetaPhysicL10DualNumberIdNS5_28SemiDynamicSparseNumberArrayIdmNS5_8NWrapperILm53EEEEELb1EEELin1ELin1ELi0ELin1ELin1EEELi0ENS_6StrideILi0ELi0EEEEELin1ELi1ELb1EEESG_SB_EEvRNS_9DenseBaseIT_EERNSH_IT0_EERKNS_14JacobiRotationIT1_EE
FNDA:1442930,_ZN5Eigen8internal27apply_rotation_in_the_planeINS_5BlockINS_3MapINS_6MatrixIN11MetaPhysicL10DualNumberIdNS5_28SemiDynamicSparseNumberArrayIdmNS5_8NWrapperILm53EEEEELb1EEELin1ELin1ELi0ELin1ELin1EEELi0ENS_6StrideILi0ELi0EEEEELin1ELi1ELb1EEESG_SB_EEvRNS_9DenseBaseIT_EERNSH_IT0_EERKNS_14JacobiRotationIT1_EE
FNF:5
FNH:5
DA:34,1442930
DA:40,1442930
DA:43,1442930
DA:46,1442930
DA:48,1442930
DA:59,1442930
DA:150,1442930
DA:151,1442930
DA:215,1442930
DA:219,1442930
DA:221,0
DA:222,0
DA:223,0
DA:225,1442930
DA:227,346
DA:228,346
DA:229,346
DA:231,1442580
DA:234,2878250
DA:235,1439120
DA:236,846473
DA:237,2878250
DA:238,2878250
DA:239,1439120
DA:244,6924
DA:245,3462
DA:246,741
DA:247,6924
DA:248,6924
DA:249,3462
DA:252,1442930
DA:292,1442930
DA:296,1442930
DA:297,1442930
DA:305,1442930
DA:307,5771720
DA:309,4328790
DA:310,4328790
DA:311,4328790
DA:312,8657590
DA:313,4328790
DA:314,4328790
DA:316,1442930
DA:432,1442930
DA:448,1448060
DA:455,1442930
LF:46
LH:43
end_of_record
SF:/usr/share/miniconda/envs/moose/x86_64-conda-linux-gnu/include/c++/10.3.0/bits/stl_map.h
FN:492,_ZNSt3mapINSt7__cxx1112basic_stringIcSt11char_traitsIcESaIcEEEPN7libMesh10Parameters5ValueESt4lessIvESaISt4pairIKS5_S9_EEEixERSD_
FNDA:0,_ZNSt3mapINSt7__cxx1112basic_stringIcSt11char_traitsIcESaIcEEEPN7libMesh10Parameters5ValueESt4lessIvESaISt4pairIKS5_S9_EEEixERSD_
FN:1258,_ZNSt3mapINSt7__cxx1112basic_stringIcSt11char_traitsIcESaIcEEEPN7libMesh10Parameters5ValueESt4lessIvESaISt4pairIKS5_S9_EEE11lower_boundERSD_
FNDA:0,_ZNSt3mapINSt7__cxx1112basic_stringIcSt11char_traitsIcESaIcEEEPN7libMesh10Parameters5ValueESt4lessIvESaISt4pairIKS5_S9_EEE11lower_boundERSD_
FNF:2
FNH:0
DA:302,0
DA:492,0
DA:497,0
DA:499,0
DA:501,0
DA:502,0
DA:503,0
DA:507,0
DA:1038,0
DA:1170,0
DA:1258,0
DA:1259,0
LF:12
LH:0
end_of_record
SF:/usr/share/miniconda/envs/moose/x86_64-conda-linux-gnu/include/c++/10.3.0/iomanip
DA:240,0
LF:1
LH:0
end_of_record
SF:/usr/share/miniconda/envs/moose/libmesh/include/Eigen/src/Core/Map.h
DA:162,1442930
LF:1
LH:1
end_of_record
SF:/home/runner/work/raccoon/raccoon/moose/framework/build/header_symlinks/MooseTypes.h
LF:0
LH:0
end_of_record
SF:/usr/share/miniconda/envs/moose/x86_64-conda-linux-gnu/include/c++/10.3.0/tuple
DA:129,0
DA:130,0
DA:166,0
DA:1689,0
DA:1693,0
LF:5
LH:0
end_of_record
SF:/usr/share/miniconda/envs/moose/libmesh/include/Eigen/src/Core/DenseStorage.h
DA:49,2595900
DA:50,59705700
DA:107,2595900
DA:108,7787700
DA:215,38072800
DA:216,8252820
LF:6
LH:6
end_of_record
SF:/usr/share/miniconda/envs/moose/libmesh/include/Eigen/src/Core/util/XprHelper.h
DA:137,9665520
DA:138,15865400
LF:2
LH:2
end_of_record
SF:/usr/share/miniconda/envs/moose/x86_64-conda-linux-gnu/include/c++/10.3.0/bits/stl_vector.h
FN:333,_ZNSt12_Vector_baseIN11MetaPhysicL10DualNumberIdNS0_28SemiDynamicSparseNumberArrayIdmNS0_8NWrapperILm53EEEEELb1EEESaIS6_EED2Ev
FNDA:4424560,_ZNSt12_Vector_baseIN11MetaPhysicL10DualNumberIdNS0_28SemiDynamicSparseNumberArrayIdmNS0_8NWrapperILm53EEEEELb1EEESaIS6_EED2Ev
FN:333,_ZNSt12_Vector_baseIdSaIdEED2Ev
FNDA:0,_ZNSt12_Vector_baseIdSaIdEED2Ev
FN:359,_ZNSt12_Vector_baseIN11MetaPhysicL10DualNumberIdNS0_28SemiDynamicSparseNumberArrayIdmNS0_8NWrapperILm53EEEEELb1EEESaIS6_EE17_M_create_storageEm
FNDA:3657320,_ZNSt12_Vector_baseIN11MetaPhysicL10DualNumberIdNS0_28SemiDynamicSparseNumberArrayIdmNS0_8NWrapperILm53EEEEELb1EEESaIS6_EE17_M_create_storageEm
FN:359,_ZNSt12_Vector_baseIdSaIdEE17_M_create_storageEm
FNDA:0,_ZNSt12_Vector_baseIdSaIdEE17_M_create_storageEm
FN:510,_ZNSt6vectorIN11MetaPhysicL10DualNumberIdNS0_28SemiDynamicSparseNumberArrayIdmNS0_8NWrapperILm53EEEEELb1EEESaIS6_EEC2EmRKS7_
FNDA:1828660,_ZNSt6vectorIN11MetaPhysicL10DualNumberIdNS0_28SemiDynamicSparseNumberArrayIdmNS0_8NWrapperILm53EEEEELb1EEESaIS6_EEC2EmRKS7_
FN:510,_ZNSt6vectorIdSaIdEEC2EmRKS0_
FNDA:0,_ZNSt6vectorIdSaIdEEC2EmRKS0_
FN:553,_ZNSt6vectorIN11MetaPhysicL10DualNumberIdNS0_28SemiDynamicSparseNumberArrayIdmNS0_8NWrapperILm53EEEEELb1EEESaIS6_EEC2ERKS8_
FNDA:1828660,_ZNSt6vectorIN11MetaPhysicL10DualNumberIdNS0_28SemiDynamicSparseNumberArrayIdmNS0_8NWrapperILm53EEEEELb1EEESaIS6_EEC2ERKS8_
FN:937,_ZNSt6vectorIN11MetaPhysicL10DualNumberIdNS0_28SemiDynamicSparseNumberArrayIdmNS0_8NWrapperILm53EEEEELb1EEESaIS6_EE6resizeEm
FNDA:2595900,_ZNSt6vectorIN11MetaPhysicL10DualNumberIdNS0_28SemiDynamicSparseNumberArrayIdmNS0_8NWrapperILm53EEEEELb1EEESaIS6_EE6resizeEm
FN:937,_ZNSt6vectorIdSaIdEE6resizeEm
FNDA:0,_ZNSt6vectorIdSaIdEE6resizeEm
FN:1603,_ZNSt6vectorIN11MetaPhysicL10DualNumberIdNS0_28SemiDynamicSparseNumberArrayIdmNS0_8NWrapperILm53EEEEELb1EEESaIS6_EE21_M_default_initializeEm
FNDA:1828660,_ZNSt6vectorIN11MetaPhysicL10DualNumberIdNS0_28SemiDynamicSparseNumberArrayIdmNS0_8NWrapperILm53EEEEELb1EEESaIS6_EE21_M_default_initializeEm
FN:1756,_ZNKSt6vectorIN11MetaPhysicL10DualNumberIdNS0_28SemiDynamicSparseNumberArrayIdmNS0_8NWrapperILm53EEEEELb1EEESaIS6_EE12_M_check_lenEmPKc
FNDA:768268,_ZNKSt6vectorIN11MetaPhysicL10DualNumberIdNS0_28SemiDynamicSparseNumberArrayIdmNS0_8NWrapperILm53EEEEELb1EEESaIS6_EE12_M_check_lenEmPKc
FN:1756,_ZNKSt6vectorIdSaIdEE12_M_check_lenEmPKc
FNDA:2482630,_ZNKSt6vectorIdSaIdEE12_M_check_lenEmPKc
FNF:12
FNH:8
DA:97,4424560
DA:98,767240
DA:305,1828660
DA:333,4424560
DA:336,4424560
DA:337,4424560
DA:333,0
DA:336,0
DA:337,0
DA:346,6908220
DA:353,7675460
DA:359,3657320
DA:361,3657320
DA:362,3657320
DA:363,3657320
DA:364,3657320
DA:359,0
DA:361,0
DA:362,0
DA:363,0
DA:364,0
DA:510,1828660
DA:511,1828660
DA:512,1828660
DA:510,0
DA:511,0
DA:512,0
DA:553,1828660
DA:555,1828660
DA:557,1828660
DA:558,1828660
DA:561,1828660
DA:683,4424560
DA:919,8390860
DA:937,2595900
DA:939,2595900
DA:940,767240
DA:941,1828660
DA:942,0
DA:943,2595900
DA:937,0
DA:939,0
DA:940,0
DA:941,0
DA:942,0
DA:943,0
DA:1046,7787700
DA:1064,2995900
DA:1603,1828660
DA:1605,1828660
DA:1606,1828660
DA:1608,1828660
DA:1756,768268
DA:1758,768268
DA:1759,0
DA:1761,768268
DA:1762,768268
DA:1756,2482630
DA:1758,2482630
DA:1759,0
DA:1761,2482630
DA:1762,2482630
DA:1769,1828660
DA:1770,0
DA:1794,0
DA:1798,0
LF:66
LH:43
end_of_record
SF:/usr/share/miniconda/envs/moose/x86_64-conda-linux-gnu/include/c++/10.3.0/bits/alloc_traits.h
FN:459,_ZNSt16allocator_traitsISaIN11MetaPhysicL10DualNumberIdNS0_28SemiDynamicSparseNumberArrayIdmNS0_8NWrapperILm53EEEEELb1EEEEE8allocateERS7_m
FNDA:4425590,_ZNSt16allocator_traitsISaIN11MetaPhysicL10DualNumberIdNS0_28SemiDynamicSparseNumberArrayIdmNS0_8NWrapperILm53EEEEELb1EEEEE8allocateERS7_m
FN:459,_ZNSt16allocator_traitsISaIdEE8allocateERS0_m
FNDA:2482630,_ZNSt16allocator_traitsISaIdEE8allocateERS0_m
FNF:2
FNH:2
DA:459,4425590
DA:460,4425590
DA:459,2482630
DA:460,2482630
DA:492,4424650
LF:5
LH:5
end_of_record
SF:/usr/share/miniconda/envs/moose/libmesh/include/Eigen/src/Core/Visitor.h
FN:47,_ZN5Eigen8internal12visitor_implINS0_17min_coeff_visitorINS_5BlockINS_6MatrixIN11MetaPhysicL10DualNumberIdNS5_28SemiDynamicSparseNumberArrayIdmNS5_8NWrapperILm53EEEEELb1EEELi3ELi1ELi0ELi3ELi1EEELin1ELi1ELb0EEEEENS0_17visitor_evaluatorISD_EELin1EE3runERKSG_RSE_
FNDA:5191800,_ZN5Eigen8internal12visitor_implINS0_17min_coeff_visitorINS_5BlockINS_6MatrixIN11MetaPhysicL10DualNumberIdNS5_28SemiDynamicSparseNumberArrayIdmNS5_8NWrapperILm53EEEEELb1EEELi3ELi1ELi0ELi3ELi1EEELin1ELi1ELb0EEEEENS0_17visitor_evaluatorISD_EELin1EE3runERKSG_RSE_
FN:225,_ZNK5Eigen9DenseBaseINS_5BlockINS_6MatrixIN11MetaPhysicL10DualNumberIdNS3_28SemiDynamicSparseNumberArrayIdmNS3_8NWrapperILm53EEEEELb1EEELi3ELi1ELi0ELi3ELi1EEELin1ELi1ELb0EEEE8minCoeffIlEES9_PT_
FNDA:5191800,_ZNK5Eigen9DenseBaseINS_5BlockINS_6MatrixIN11MetaPhysicL10DualNumberIdNS3_28SemiDynamicSparseNumberArrayIdmNS3_8NWrapperILm53EEEEELb1EEELi3ELi1ELi0ELi3ELi1EEELin1ELi1ELb0EEEE8minCoeffIlEES9_PT_
FNF:2
FNH:2
DA:47,5191800
DA:50,12979500
DA:55,5191800
DA:60,5191800
DA:64,5191800
DA:74,12979500
DA:116,5191800
DA:133,5191800
DA:134,5191800
DA:135,5191800
DA:145,5191800
DA:151,7787700
DA:153,1592000
DA:154,1592000
DA:155,1592000
DA:225,5191800
DA:230,5191800
DA:231,5191800
LF:18
LH:18
end_of_record
SF:/home/runner/work/raccoon/raccoon/moose/framework/build/header_symlinks/MooseError.h
FN:155,_ZN5moose8internal14mooseStreamAllIRN18RankTwoTensorTemplIN11MetaPhysicL10DualNumberIdNS3_28SemiDynamicSparseNumberArrayIdmNS3_8NWrapperILm53EEEEELb1EEEE10FillMethodEJRA32_KcEEEvRNSt7__cxx1119basic_ostringstreamIcSt11char_traitsIcESaIcEEEOT_DpOT0_
FNDA:0,_ZN5moose8internal14mooseStreamAllIRN18RankTwoTensorTemplIN11MetaPhysicL10DualNumberIdNS3_28SemiDynamicSparseNumberArrayIdmNS3_8NWrapperILm53EEEEELb1EEEE10FillMethodEJRA32_KcEEEvRNSt7__cxx1119basic_ostringstreamIcSt11char_traitsIcESaIcEEEOT_DpOT0_
FN:155,_ZN5moose8internal14mooseStreamAllIRiJEEEvRNSt7__cxx1119basic_ostringstreamIcSt11char_traitsIcESaIcEEEOT_DpOT0_
FNDA:0,_ZN5moose8internal14mooseStreamAllIRiJEEEvRNSt7__cxx1119basic_ostringstreamIcSt11char_traitsIcESaIcEEEOT_DpOT0_
FN:155,_ZN5moose8internal14mooseStreamAllINSt7__cxx1112basic_stringIcSt11char_traitsIcESaIcEEEJRA54_KcRiEEEvRNS2_19basic_ostringstreamIcS5_S6_EEOT_DpOT0_
FNDA:0,_ZN5moose8internal14mooseStreamAllINSt7__cxx1112basic_stringIcSt11char_traitsIcESaIcEEEJRA54_KcRiEEEvRNS2_19basic_ostringstreamIcS5_S6_EEOT_DpOT0_
FN:254,_Z10mooseErrorIJRA115_KcEEvDpOT_
FNDA:0,_Z10mooseErrorIJRA115_KcEEvDpOT_
FN:254,_Z10mooseErrorIJRA34_KcRN18RankTwoTensorTemplIN11MetaPhysicL10DualNumberIdNS4_28SemiDynamicSparseNumberArrayIdmNS4_8NWrapperILm53EEEEELb1EEEE10FillMethodERA32_S0_EEvDpOT_
FNDA:0,_Z10mooseErrorIJRA34_KcRN18RankTwoTensorTemplIN11MetaPhysicL10DualNumberIdNS4_28SemiDynamicSparseNumberArrayIdmNS4_8NWrapperILm53EEEEELb1EEEE10FillMethodERA32_S0_EEvDpOT_
FN:254,_Z10mooseErrorIJRA127_KcRiEEvDpOT_
FNDA:0,_Z10mooseErrorIJRA127_KcRiEEvDpOT_
FN:254,_Z10mooseErrorIJRA80_KcNSt7__cxx1112basic_stringIcSt11char_traitsIcESaIcEEERA54_S0_RiEEvDpOT_
FNDA:0,_Z10mooseErrorIJRA80_KcNSt7__cxx1112basic_stringIcSt11char_traitsIcESaIcEEERA54_S0_RiEEvDpOT_
FNF:7
FNH:0
DA:155,0
DA:157,0
DA:158,0
DA:159,0
DA:155,0
DA:157,0
DA:158,0
DA:159,0
DA:155,0
DA:157,0
DA:158,0
DA:159,0
DA:157,0
DA:158,0
DA:159,0
DA:254,0
DA:256,0
DA:258,0
DA:254,0
DA:256,0
DA:258,0
DA:254,0
DA:256,0
DA:258,0
DA:254,0
DA:256,0
DA:258,0
LF:27
LH:0
end_of_record
SF:/usr/share/miniconda/envs/moose/libmesh/include/metaphysicl/dynamicsparsenumberbase.h
FN:46,_ZN11MetaPhysicL23DynamicSparseNumberBaseINS_22DynamicStdArrayWrapperIdNS_8NWrapperILm53EEEEENS1_ImS3_EENS_28SemiDynamicSparseNumberArrayEJdmS3_EE6resizeEm
FNDA:29733100,_ZN11MetaPhysicL23DynamicSparseNumberBaseINS_22DynamicStdArrayWrapperIdNS_8NWrapperILm53EEEEENS1_ImS3_EENS_28SemiDynamicSparseNumberArrayEJdmS3_EE6resizeEm
FN:136,_ZNK11MetaPhysicL23DynamicSparseNumberBaseINS_22DynamicStdArrayWrapperIdNS_8NWrapperILm53EEEEENS1_ImS3_EENS_28SemiDynamicSparseNumberArrayEJdmS3_EE19runtime_index_queryEm
FNDA:0,_ZNK11MetaPhysicL23DynamicSparseNumberBaseINS_22DynamicStdArrayWrapperIdNS_8NWrapperILm53EEEEENS1_ImS3_EENS_28SemiDynamicSparseNumberArrayEJdmS3_EE19runtime_index_queryEm
FN:262,_ZNK11MetaPhysicL23DynamicSparseNumberBaseINS_22DynamicStdArrayWrapperIdNS_8NWrapperILm53EEEEENS1_ImS3_EENS_28SemiDynamicSparseNumberArrayEJdmS3_EEngEv
FNDA:9439970,_ZNK11MetaPhysicL23DynamicSparseNumberBaseINS_22DynamicStdArrayWrapperIdNS_8NWrapperILm53EEEEENS1_ImS3_EENS_28SemiDynamicSparseNumberArrayEJdmS3_EEngEv
FN:280,_ZN11MetaPhysicL23DynamicSparseNumberBaseINS_22DynamicStdArrayWrapperIdNS_8NWrapperILm53EEEEENS1_ImS3_EENS_28SemiDynamicSparseNumberArrayEJdmS3_EE14sparsity_unionIS5_EEvRKT_
FNDA:0,_ZN11MetaPhysicL23DynamicSparseNumberBaseINS_22DynamicStdArrayWrapperIdNS_8NWrapperILm53EEEEENS1_ImS3_EENS_28SemiDynamicSparseNumberArrayEJdmS3_EE14sparsity_unionIS5_EEvRKT_
FN:551,_ZN11MetaPhysicL23DynamicSparseNumberBaseINS_22DynamicStdArrayWrapperIdNS_8NWrapperILm53EEEEENS1_ImS3_EENS_28SemiDynamicSparseNumberArrayEJdmS3_EEpLIJdmS3_EEERNS6_IdmS3_EERKNS6_IDpT_EE
FNDA:120770000,_ZN11MetaPhysicL23DynamicSparseNumberBaseINS_22DynamicStdArrayWrapperIdNS_8NWrapperILm53EEEEENS1_ImS3_EENS_28SemiDynamicSparseNumberArrayEJdmS3_EEpLIJdmS3_EEERNS6_IdmS3_EERKNS6_IDpT_EE
FN:586,_ZN11MetaPhysicL23DynamicSparseNumberBaseINS_22DynamicStdArrayWrapperIdNS_8NWrapperILm53EEEEENS1_ImS3_EENS_28SemiDynamicSparseNumberArrayEJdmS3_EEmIIJdmS3_EEERNS6_IdmS3_EERKNS6_IDpT_EE
FNDA:26092400,_ZN11MetaPhysicL23DynamicSparseNumberBaseINS_22DynamicStdArrayWrapperIdNS_8NWrapperILm53EEEEENS1_ImS3_EENS_28SemiDynamicSparseNumberArrayEJdmS3_EEmIIJdmS3_EEERNS6_IdmS3_EERKNS6_IDpT_EE
FN:948,_ZN11MetaPhysicLmlINS_28SemiDynamicSparseNumberArrayENS_22DynamicStdArrayWrapperIdNS_8NWrapperILm53EEEEENS2_ImS4_EEJdmS4_EdEENS_14MultipliesTypeIT_IJDpT2_EET3_Lb1EvE9supertypeERKSC_RKNS_23DynamicSparseNumberBaseIT0_T1_T_JSA_EEE
FNDA:20293100,_ZN11MetaPhysicLmlINS_28SemiDynamicSparseNumberArrayENS_22DynamicStdArrayWrapperIdNS_8NWrapperILm53EEEEENS2_ImS4_EEJdmS4_EdEENS_14MultipliesTypeIT_IJDpT2_EET3_Lb1EvE9supertypeERKSC_RKNS_23DynamicSparseNumberBaseIT0_T1_T_JSA_EEE
FN:970,_ZN11MetaPhysicLmlINS_28SemiDynamicSparseNumberArrayENS_22DynamicStdArrayWrapperIdNS_8NWrapperILm53EEEEENS2_ImS4_EEJdmS4_EdEENS_14MultipliesTypeIT_IJDpT2_EET3_Lb0EvE9supertypeERKNS_23DynamicSparseNumberBaseIT0_T1_T_JSA_EEERKSC_
FNDA:0,_ZN11MetaPhysicLmlINS_28SemiDynamicSparseNumberArrayENS_22DynamicStdArrayWrapperIdNS_8NWrapperILm53EEEEENS2_ImS4_EEJdmS4_EdEENS_14MultipliesTypeIT_IJDpT2_EET3_Lb0EvE9supertypeERKNS_23DynamicSparseNumberBaseIT0_T1_T_JSA_EEERKSC_
FN:991,_ZN11MetaPhysicLdvINS_28SemiDynamicSparseNumberArrayENS_22DynamicStdArrayWrapperIdNS_8NWrapperILm53EEEEENS2_ImS4_EEJdmS4_EdEENS_11DividesTypeIT_IJDpT2_EET3_Lb0EvE9supertypeERKNS_23DynamicSparseNumberBaseIT0_T1_T_JSA_EEERKSC_
FNDA:0,_ZN11MetaPhysicLdvINS_28SemiDynamicSparseNumberArrayENS_22DynamicStdArrayWrapperIdNS_8NWrapperILm53EEEEENS2_ImS4_EEJdmS4_EdEENS_11DividesTypeIT_IJDpT2_EET3_Lb0EvE9supertypeERKNS_23DynamicSparseNumberBaseIT0_T1_T_JSA_EEERKSC_
FNF:9
FNH:5
DA:46,29733100
DA:48,29733100
DA:49,29733100
DA:53,744945000
DA:95,112177000
DA:125,146862000
DA:136,0
DA:140,0
DA:142,0
DA:144,0
DA:185,0
DA:186,0
DA:188,0
DA:262,9439970
DA:265,9439970
DA:266,44863600
DA:268,35423600
DA:269,35423600
DA:271,9439970
DA:280,0
DA:302,0
DA:303,0
DA:304,0
DA:306,0
DA:307,0
DA:308,0
DA:311,0
DA:312,0
DA:313,0
DA:314,0
DA:315,0
DA:316,0
DA:319,0
DA:320,0
DA:321,0
DA:322,0
DA:324,0
DA:329,0
DA:334,0
DA:355,0
DA:356,0
DA:357,0
DA:358,0
DA:359,0
DA:360,0
DA:363,0
DA:364,0
DA:368,0
DA:369,0
DA:551,120770000
DA:554,120770000
DA:562,1066580000
DA:564,945806000
DA:565,945806000
DA:567,1810660000
DA:568,864853000
DA:569,864853000
DA:571,864853000
DA:575,945806000
DA:578,120770000
DA:586,26092400
DA:589,26092400
DA:597,177795000
DA:599,151702000
DA:600,151702000
DA:602,289264000
DA:603,137562000
DA:604,137562000
DA:606,137562000
DA:610,151702000
DA:613,26092400
DA:691,325468000
DA:692,281972000
DA:703,144550000
DA:704,124257000
DA:948,20293100
DA:950,20293100
DA:954,20293100
DA:956,132470000
DA:957,112177000
DA:958,112177000
DA:961,20293100
DA:970,0
DA:972,0
DA:976,0
DA:978,0
DA:979,0
DA:980,0
DA:982,0
DA:991,0
DA:993,0
DA:996,0
DA:998,0
DA:999,0
DA:1000,0
DA:1003,0
LF:96
LH:45
end_of_record
SF:/home/runner/work/raccoon/raccoon/src/utils/RaccoonUtils.C
FN:14,_ZN12RaccoonUtils8MacaulayEN11MetaPhysicL10DualNumberIdNS0_28SemiDynamicSparseNumberArrayIdmNS0_8NWrapperILm53EEEEELb1EEEb
FNDA:7766500,_ZN12RaccoonUtils8MacaulayEN11MetaPhysicL10DualNumberIdNS0_28SemiDynamicSparseNumberArrayIdmNS0_8NWrapperILm53EEEEELb1EEEb
FN:22,_ZN12RaccoonUtils8MacaulayERKSt6vectorIN11MetaPhysicL10DualNumberIdNS1_28SemiDynamicSparseNumberArrayIdmNS1_8NWrapperILm53EEEEELb1EEESaIS7_EEb
FNDA:1828660,_ZN12RaccoonUtils8MacaulayERKSt6vectorIN11MetaPhysicL10DualNumberIdNS1_28SemiDynamicSparseNumberArrayIdmNS1_8NWrapperILm53EEEEELb1EEESaIS7_EEb
FN:31,_ZN12RaccoonUtils21spectralDecompositionERK18RankTwoTensorTemplIN11MetaPhysicL10DualNumberIdNS1_28SemiDynamicSparseNumberArrayIdmNS1_8NWrapperILm53EEEEELb1EEEE
FNDA:1828660,_ZN12RaccoonUtils21spectralDecompositionERK18RankTwoTensorTemplIN11MetaPhysicL10DualNumberIdNS1_28SemiDynamicSparseNumberArrayIdmNS1_8NWrapperILm53EEEEELb1EEEE
FN:43,_ZN12RaccoonUtils3logERK18RankTwoTensorTemplIN11MetaPhysicL10DualNumberIdNS1_28SemiDynamicSparseNumberArrayIdmNS1_8NWrapperILm53EEEEELb1EEEE
FNDA:527632,_ZN12RaccoonUtils3logERK18RankTwoTensorTemplIN11MetaPhysicL10DualNumberIdNS1_28SemiDynamicSparseNumberArrayIdmNS1_8NWrapperILm53EEEEELb1EEEE
FN:55,_ZN12RaccoonUtils3expERK18RankTwoTensorTemplIN11MetaPhysicL10DualNumberIdNS1_28SemiDynamicSparseNumberArrayIdmNS1_8NWrapperILm53EEEEELb1EEEE
FNDA:239608,_ZN12RaccoonUtils3expERK18RankTwoTensorTemplIN11MetaPhysicL10DualNumberIdNS1_28SemiDynamicSparseNumberArrayIdmNS1_8NWrapperILm53EEEEELb1EEEE
FNF:5
FNH:5
DA:14,7766500
DA:16,7766500
DA:17,0
DA:18,23299500
DA:22,1828660
DA:24,1828660
DA:25,7314640
DA:26,5485980
DA:27,1828660
DA:31,1828660
DA:33,1828660
DA:34,1828660
DA:35,1828660
DA:37,1828660
DA:38,1828660
DA:39,1828660
DA:43,527632
DA:46,527632
DA:47,527632
DA:48,2110530
DA:49,1582900
DA:50,527632
DA:51,527632
DA:55,239608
DA:58,239608
DA:59,239608
DA:60,958432
DA:61,718824
DA:62,239608
DA:63,239608
LF:30
LH:29
end_of_record
SF:/usr/share/miniconda/envs/moose/x86_64-conda-linux-gnu/include/c++/10.3.0/bits/basic_string.tcc
FN:206,_ZNSt7__cxx1112basic_stringIcSt11char_traitsIcESaIcEE12_M_constructIPcEEvT_S7_St20forward_iterator_tag
FNDA:0,_ZNSt7__cxx1112basic_stringIcSt11char_traitsIcESaIcEE12_M_constructIPcEEvT_S7_St20forward_iterator_tag
FN:206,_ZNSt7__cxx1112basic_stringIcSt11char_traitsIcESaIcEE12_M_constructIPKcEEvT_S8_St20forward_iterator_tag
FNDA:1607,_ZNSt7__cxx1112basic_stringIcSt11char_traitsIcESaIcEE12_M_constructIPKcEEvT_S8_St20forward_iterator_tag
FNF:2
FNH:1
DA:206,0
DA:211,0
DA:212,0
DA:215,0
DA:217,0
DA:219,0
DA:220,0
DA:232,0
DA:233,0
DA:206,1607
DA:211,1607
DA:212,0
DA:215,1607
DA:217,1607
DA:219,711
DA:220,711
DA:232,1607
DA:233,1607
LF:18
LH:8
end_of_record
SF:/usr/share/miniconda/envs/moose/x86_64-conda-linux-gnu/include/c++/10.3.0/bits/stl_pair.h
DA:211,0
LF:1
LH:0
end_of_record
SF:/usr/share/miniconda/envs/moose/libmesh/include/Eigen/src/Core/DenseBase.h
DA:418,1587860
LF:1
LH:1
end_of_record
SF:/usr/share/miniconda/envs/moose/libmesh/include/Eigen/src/Core/PlainObjectBase.h
DA:188,39368
DA:714,2590980
LF:2
LH:2
end_of_record
SF:/usr/share/miniconda/envs/moose/x86_64-conda-linux-gnu/include/c++/10.3.0/bits/char_traits.h
DA:329,0
DA:371,1607
LF:2
LH:1
end_of_record
SF:/usr/share/miniconda/envs/moose/x86_64-conda-linux-gnu/include/c++/10.3.0/bits/basic_string.h
FN:525,_ZNSt7__cxx1112basic_stringIcSt11char_traitsIcESaIcEEC2IS3_EEPKcRKS3_
FNDA:1607,_ZNSt7__cxx1112basic_stringIcSt11char_traitsIcESaIcEEC2IS3_EEPKcRKS3_
FN:1470,_ZNSt7__cxx1112basic_stringIcSt11char_traitsIcESaIcEE6assignIPcvEERS4_T_S8_
FNDA:0,_ZNSt7__cxx1112basic_stringIcSt11char_traitsIcESaIcEE6assignIPcvEERS4_T_S8_
FN:6032,_ZStplIcSt11char_traitsIcESaIcEENSt7__cxx1112basic_stringIT_T0_T1_EERKS8_SA_
FNDA:0,_ZStplIcSt11char_traitsIcESaIcEENSt7__cxx1112basic_stringIT_T0_T1_EERKS8_SA_
FN:6097,_ZStplIcSt11char_traitsIcESaIcEENSt7__cxx1112basic_stringIT_T0_T1_EEOS8_RKS8_
FNDA:0,_ZStplIcSt11char_traitsIcESaIcEENSt7__cxx1112basic_stringIT_T0_T1_EEOS8_RKS8_
FN:6109,_ZStplIcSt11char_traitsIcESaIcEENSt7__cxx1112basic_stringIT_T0_T1_EEOS8_S9_
FNDA:0,_ZStplIcSt11char_traitsIcESaIcEENSt7__cxx1112basic_stringIT_T0_T1_EEOS8_S9_
FNF:5
FNH:1
DA:156,1607
DA:157,1607
DA:160,0
DA:179,711
DA:183,1607
DA:187,3214
DA:193,0
DA:203,0
DA:211,711
DA:217,1607
DA:247,1607
DA:393,0
DA:398,1607
DA:525,1607
DA:527,1607
DA:555,0
DA:563,0
DA:572,0
DA:658,0
DA:814,0
DA:902,0
DA:908,0
DA:966,0
DA:1140,0
DA:1149,0
DA:1193,0
DA:1470,0
DA:1471,0
DA:1640,0
DA:6032,0
DA:6035,0
DA:6037,0
DA:6097,0
DA:6099,0
DA:6109,0
DA:6122,0
DA:6123,0
DA:6280,0
DA:6473,0
LF:39
LH:11
end_of_record
SF:/usr/share/miniconda/envs/moose/x86_64-conda-linux-gnu/include/c++/10.3.0/bits/stl_set.h
FN:281,_ZNSt3setIsSt4lessIsESaIsEED2Ev
FNDA:0,_ZNSt3setIsSt4lessIsESaIsEED2Ev
FN:281,_ZNSt3setItSt4lessItESaItEED2Ev
FNDA:0,_ZNSt3setItSt4lessItESaItEED2Ev
FNF:2
FNH:0
DA:281,0
DA:281,0
LF:2
LH:0
end_of_record
SF:/usr/share/miniconda/envs/moose/x86_64-conda-linux-gnu/include/c++/10.3.0/iostream
LF:0
LH:0
end_of_record
SF:/usr/share/miniconda/envs/moose/x86_64-conda-linux-gnu/include/c++/10.3.0/bits/stl_iterator.h
DA:240,0
DA:241,0
DA:289,0
DA:311,0
DA:976,4424560
DA:981,0
DA:985,0
DA:1002,5485980
DA:1003,7787700
LF:9
LH:3
end_of_record
SF:/usr/share/miniconda/envs/moose/libmesh/include/metaphysicl/semidynamicsparsenumberarray.h
DA:84,0
DA:85,0
LF:2
LH:0
end_of_record
SF:/usr/share/miniconda/envs/moose/x86_64-conda-linux-gnu/include/c++/10.3.0/bits/stl_function.h
DA:1156,0
LF:1
LH:0
end_of_record
TN:
SF:/home/runner/work/raccoon/raccoon/moose/framework/build/header_symlinks/ElementIDInterface.h
LF:0
LH:0
end_of_record
SF:/home/runner/work/raccoon/raccoon/src/materials/ThinFilmInterfaceEnergyDensity.C
FN:10,_ZN30ThinFilmInterfaceEnergyDensity11validParamsEv
FNDA:161,_ZN30ThinFilmInterfaceEnergyDensity11validParamsEv
FN:33,_ZN30ThinFilmInterfaceEnergyDensityC2ERK15InputParameters
FNDA:3,_ZN30ThinFilmInterfaceEnergyDensityC2ERK15InputParameters
FN:63,_ZN30ThinFilmInterfaceEnergyDensity19computeQpPropertiesEv
FNDA:400000,_ZN30ThinFilmInterfaceEnergyDensity19computeQpPropertiesEv
FNF:3
FNH:3
DA:10,161
DA:12,161
DA:13,161
DA:14,161
DA:18,322
DA:21,322
DA:25,322
DA:26,322
DA:28,322
DA:30,161
DA:33,3
DA:37,6
DA:38,3
DA:41,6
DA:45,3
DA:46,3
DA:47,9
DA:51,3
DA:52,33
DA:54,9
DA:55,6
DA:58,6
DA:59,3
DA:60,3
DA:63,400000
DA:65,400000
DA:66,800000
DA:67,800000
DA:68,800000
DA:69,400000
LF:30
LH:30
end_of_record
SF:/home/runner/work/raccoon/raccoon/moose/framework/build/header_symlinks/InputParameters.h
FN:52,_ZN15InputParametersD2Ev
FNDA:0,_ZN15InputParametersD2Ev
FN:52,_ZN15InputParametersD0Ev
FNDA:0,_ZN15InputParametersD0Ev
FN:934,_ZNK15InputParameters2atERKNSt7__cxx1112basic_stringIcSt11char_traitsIcESaIcEEE
FNDA:0,_ZNK15InputParameters2atERKNSt7__cxx1112basic_stringIcSt11char_traitsIcESaIcEEE
FN:1033,_ZN15InputParameters3setI20MaterialPropertyNameEERT_RKNSt7__cxx1112basic_stringIcSt11char_traitsIcESaIcEEEb
FNDA:0,_ZN15InputParameters3setI20MaterialPropertyNameEERT_RKNSt7__cxx1112basic_stringIcSt11char_traitsIcESaIcEEEb
FN:1229,_ZN15InputParameters16addRequiredParamIdEEvRKNSt7__cxx1112basic_stringIcSt11char_traitsIcESaIcEEES8_
FNDA:0,_ZN15InputParameters16addRequiredParamIdEEvRKNSt7__cxx1112basic_stringIcSt11char_traitsIcESaIcEEES8_
FN:1229,_ZN15InputParameters16addRequiredParamI20MaterialPropertyNameEEvRKNSt7__cxx1112basic_stringIcSt11char_traitsIcESaIcEEES9_
FNDA:0,_ZN15InputParameters16addRequiredParamI20MaterialPropertyNameEEvRKNSt7__cxx1112basic_stringIcSt11char_traitsIcESaIcEEES9_
FN:1229,_ZN15InputParameters16addRequiredParamISt6vectorI12FunctionNameSaIS2_EEEEvRKNSt7__cxx1112basic_stringIcSt11char_traitsIcESaIcEEESC_
FNDA:2359,_ZN15InputParameters16addRequiredParamISt6vectorI12FunctionNameSaIS2_EEEEvRKNSt7__cxx1112basic_stringIcSt11char_traitsIcESaIcEEESC_
FN:1251,_ZN15InputParameters8addParamI20MaterialPropertyNameA2_cEEvRKNSt7__cxx1112basic_stringIcSt11char_traitsIcESaIcEEERKT0_SA_
FNDA:0,_ZN15InputParameters8addParamI20MaterialPropertyNameA2_cEEvRKNSt7__cxx1112basic_stringIcSt11char_traitsIcESaIcEEERKT0_SA_
FN:1251,_ZN15InputParameters8addParamI20MaterialPropertyNameA3_cEEvRKNSt7__cxx1112basic_stringIcSt11char_traitsIcESaIcEEERKT0_SA_
FNDA:0,_ZN15InputParameters8addParamI20MaterialPropertyNameA3_cEEvRKNSt7__cxx1112basic_stringIcSt11char_traitsIcESaIcEEERKT0_SA_
FN:1251,_ZN15InputParameters8addParamI20MaterialPropertyNameA6_cEEvRKNSt7__cxx1112basic_stringIcSt11char_traitsIcESaIcEEERKT0_SA_
FNDA:638,_ZN15InputParameters8addParamI20MaterialPropertyNameA6_cEEvRKNSt7__cxx1112basic_stringIcSt11char_traitsIcESaIcEEERKT0_SA_
FN:1251,_ZN15InputParameters8addParamI20MaterialPropertyNameA7_cEEvRKNSt7__cxx1112basic_stringIcSt11char_traitsIcESaIcEEERKT0_SA_
FNDA:632,_ZN15InputParameters8addParamI20MaterialPropertyNameA7_cEEvRKNSt7__cxx1112basic_stringIcSt11char_traitsIcESaIcEEERKT0_SA_
FN:1251,_ZN15InputParameters8addParamI20MaterialPropertyNameA11_cEEvRKNSt7__cxx1112basic_stringIcSt11char_traitsIcESaIcEEERKT0_SA_
FNDA:318,_ZN15InputParameters8addParamI20MaterialPropertyNameA11_cEEvRKNSt7__cxx1112basic_stringIcSt11char_traitsIcESaIcEEERKT0_SA_
FN:1251,_ZN15InputParameters8addParamI20MaterialPropertyNameA10_cEEvRKNSt7__cxx1112basic_stringIcSt11char_traitsIcESaIcEEERKT0_SA_
FNDA:954,_ZN15InputParameters8addParamI20MaterialPropertyNameA10_cEEvRKNSt7__cxx1112basic_stringIcSt11char_traitsIcESaIcEEERKT0_SA_
FN:1251,_ZN15InputParameters8addParamI20MaterialPropertyNameA5_cEEvRKNSt7__cxx1112basic_stringIcSt11char_traitsIcESaIcEEERKT0_SA_
FNDA:2527,_ZN15InputParameters8addParamI20MaterialPropertyNameA5_cEEvRKNSt7__cxx1112basic_stringIcSt11char_traitsIcESaIcEEERKT0_SA_
FN:1270,_ZN15InputParameters8addParamI20MaterialPropertyNameEEvRKNSt7__cxx1112basic_stringIcSt11char_traitsIcESaIcEEES9_
FNDA:0,_ZN15InputParameters8addParamI20MaterialPropertyNameEEvRKNSt7__cxx1112basic_stringIcSt11char_traitsIcESaIcEEES9_
FN:1281,_ZN15InputParameters14setParamHelperI20MaterialPropertyNameA5_cEEvRKNSt7__cxx1112basic_stringIcSt11char_traitsIcESaIcEEERT_RKT0_
FNDA:2527,_ZN15InputParameters14setParamHelperI20MaterialPropertyNameA5_cEEvRKNSt7__cxx1112basic_stringIcSt11char_traitsIcESaIcEEERT_RKT0_
FN:1281,_ZN15InputParameters14setParamHelperI20MaterialPropertyNameA2_cEEvRKNSt7__cxx1112basic_stringIcSt11char_traitsIcESaIcEEERT_RKT0_
FNDA:0,_ZN15InputParameters14setParamHelperI20MaterialPropertyNameA2_cEEvRKNSt7__cxx1112basic_stringIcSt11char_traitsIcESaIcEEERT_RKT0_
FN:1281,_ZN15InputParameters14setParamHelperI20MaterialPropertyNameA3_cEEvRKNSt7__cxx1112basic_stringIcSt11char_traitsIcESaIcEEERT_RKT0_
FNDA:0,_ZN15InputParameters14setParamHelperI20MaterialPropertyNameA3_cEEvRKNSt7__cxx1112basic_stringIcSt11char_traitsIcESaIcEEERT_RKT0_
FN:1281,_ZN15InputParameters14setParamHelperI20MaterialPropertyNameA6_cEEvRKNSt7__cxx1112basic_stringIcSt11char_traitsIcESaIcEEERT_RKT0_
FNDA:638,_ZN15InputParameters14setParamHelperI20MaterialPropertyNameA6_cEEvRKNSt7__cxx1112basic_stringIcSt11char_traitsIcESaIcEEERT_RKT0_
FN:1281,_ZN15InputParameters14setParamHelperI20MaterialPropertyNameA7_cEEvRKNSt7__cxx1112basic_stringIcSt11char_traitsIcESaIcEEERT_RKT0_
FNDA:632,_ZN15InputParameters14setParamHelperI20MaterialPropertyNameA7_cEEvRKNSt7__cxx1112basic_stringIcSt11char_traitsIcESaIcEEERT_RKT0_
FN:1281,_ZN15InputParameters14setParamHelperI20MaterialPropertyNameA11_cEEvRKNSt7__cxx1112basic_stringIcSt11char_traitsIcESaIcEEERT_RKT0_
FNDA:318,_ZN15InputParameters14setParamHelperI20MaterialPropertyNameA11_cEEvRKNSt7__cxx1112basic_stringIcSt11char_traitsIcESaIcEEERT_RKT0_
FN:1281,_ZN15InputParameters14setParamHelperI20MaterialPropertyNameA10_cEEvRKNSt7__cxx1112basic_stringIcSt11char_traitsIcESaIcEEERT_RKT0_
FNDA:954,_ZN15InputParameters14setParamHelperI20MaterialPropertyNameA10_cEEvRKNSt7__cxx1112basic_stringIcSt11char_traitsIcESaIcEEERT_RKT0_
FN:1404,_ZNK15InputParameters19checkConsistentTypeIdEEvRKNSt7__cxx1112basic_stringIcSt11char_traitsIcESaIcEEE
FNDA:0,_ZNK15InputParameters19checkConsistentTypeIdEEvRKNSt7__cxx1112basic_stringIcSt11char_traitsIcESaIcEEE
FN:1404,_ZNK15InputParameters19checkConsistentTypeI20MaterialPropertyNameEEvRKNSt7__cxx1112basic_stringIcSt11char_traitsIcESaIcEEE
FNDA:0,_ZNK15InputParameters19checkConsistentTypeI20MaterialPropertyNameEEvRKNSt7__cxx1112basic_stringIcSt11char_traitsIcESaIcEEE
FN:1404,_ZNK15InputParameters19checkConsistentTypeISt6vectorI12FunctionNameSaIS2_EEEEvRKNSt7__cxx1112basic_stringIcSt11char_traitsIcESaIcEEE
FNDA:3792,_ZNK15InputParameters19checkConsistentTypeISt6vectorI12FunctionNameSaIS2_EEEEvRKNSt7__cxx1112basic_stringIcSt11char_traitsIcESaIcEEE
FN:1584,_ZN15InputParameters14getParamHelperIdEERKT_RKNSt7__cxx1112basic_stringIcSt11char_traitsIcESaIcEEERKS_PS2_
FNDA:21,_ZN15InputParameters14getParamHelperIdEERKT_RKNSt7__cxx1112basic_stringIcSt11char_traitsIcESaIcEEERKS_PS2_
FN:1584,_ZN15InputParameters14getParamHelperI20MaterialPropertyNameEERKT_RKNSt7__cxx1112basic_stringIcSt11char_traitsIcESaIcEEERKS_PS3_
FNDA:6,_ZN15InputParameters14getParamHelperI20MaterialPropertyNameEERKT_RKNSt7__cxx1112basic_stringIcSt11char_traitsIcESaIcEEERKS_PS3_
FN:1691,_ZN5moose8internal15callValidParamsI12ArrheniusLawEE15InputParametersv
FNDA:173,_ZN5moose8internal15callValidParamsI12ArrheniusLawEE15InputParametersv
FN:1691,_ZN5moose8internal15callValidParamsI43ComputeEigenstrainFromFunctionInitialStressEE15InputParametersv
FNDA:161,_ZN5moose8internal15callValidParamsI43ComputeEigenstrainFromFunctionInitialStressEE15InputParametersv
FN:1691,_ZN5moose8internal15callValidParamsI19CrackSurfaceDensityEE15InputParametersv
FNDA:157,_ZN5moose8internal15callValidParamsI19CrackSurfaceDensityEE15InputParametersv
FN:1691,_ZN5moose8internal15callValidParamsI20NucleationMicroForceEE15InputParametersv
FNDA:161,_ZN5moose8internal15callValidParamsI20NucleationMicroForceEE15InputParametersv
FN:1691,_ZN5moose8internal15callValidParamsI15PressureDensityEE15InputParametersv
FNDA:165,_ZN5moose8internal15callValidParamsI15PressureDensityEE15InputParametersv
FN:1691,_ZN5moose8internal15callValidParamsI30ThinFilmInterfaceEnergyDensityEE15InputParametersv
FNDA:161,_ZN5moose8internal15callValidParamsI30ThinFilmInterfaceEnergyDensityEE15InputParametersv
FNF:33
FNH:20
DA:52,0
DA:52,0
DA:799,0
DA:934,0
DA:937,0
DA:938,0
DA:1033,0
DA:1035,0
DA:1036,0
DA:1038,0
DA:1040,0
DA:1041,0
DA:1045,0
DA:1229,2359
DA:1231,2359
DA:1232,2359
DA:1234,2359
DA:1235,2359
DA:1236,2359
DA:1237,2359
DA:1229,0
DA:1231,0
DA:1232,0
DA:1234,0
DA:1235,0
DA:1236,0
DA:1237,0
DA:1229,0
DA:1231,0
DA:1232,0
DA:1234,0
DA:1235,0
DA:1236,0
DA:1237,0
DA:1251,2527
DA:1253,2527
DA:1254,2527
DA:1256,2527
DA:1257,2527
DA:1260,2527
DA:1265,2527
DA:1266,2527
DA:1251,954
DA:1253,954
DA:1254,954
DA:1256,954
DA:1257,954
DA:1260,954
DA:1265,954
DA:1266,954
DA:1251,318
DA:1253,318
DA:1254,318
DA:1256,318
DA:1257,318
DA:1260,318
DA:1265,318
DA:1266,318
DA:1251,632
DA:1253,632
DA:1254,632
DA:1256,632
DA:1257,632
DA:1260,632
DA:1265,632
DA:1266,632
DA:1251,638
DA:1253,638
DA:1254,638
DA:1256,638
DA:1257,638
DA:1260,638
DA:1265,638
DA:1266,638
DA:1251,0
DA:1253,0
DA:1254,0
DA:1256,0
DA:1257,0
DA:1260,0
DA:1265,0
DA:1266,0
DA:1251,0
DA:1253,0
DA:1254,0
DA:1256,0
DA:1257,0
DA:1260,0
DA:1265,0
DA:1266,0
DA:1270,0
DA:1272,0
DA:1273,0
DA:1275,0
DA:1276,0
DA:1277,0
DA:1281,2527
DA:1283,2527
DA:1284,2527
DA:1281,954
DA:1283,954
DA:1284,954
DA:1281,318
DA:1283,318
DA:1284,318
DA:1281,632
DA:1283,632
DA:1284,632
DA:1281,638
DA:1283,638
DA:1284,638
DA:1281,0
DA:1283,0
DA:1284,0
DA:1281,0
DA:1283,0
DA:1284,0
DA:1404,3792
DA:1408,3792
DA:1413,0
DA:1414,0
DA:1419,0
DA:1404,0
DA:1408,0
DA:1413,0
DA:1414,0
DA:1419,0
DA:1404,0
DA:1408,0
DA:1413,0
DA:1414,0
DA:1419,0
DA:1584,6
DA:1586,6
DA:1587,0
DA:1589,6
DA:1584,21
DA:1586,21
DA:1587,0
DA:1589,21
DA:1611,3
DA:1666,978
DA:1671,978
DA:1691,161
DA:1693,161
DA:1691,165
DA:1693,165
DA:1691,161
DA:1693,161
DA:1691,157
DA:1693,157
DA:1691,161
DA:1693,161
DA:1691,173
DA:1693,173
LF:155
LH:85
end_of_record
SF:/usr/share/miniconda/envs/moose/x86_64-conda-linux-gnu/include/c++/10.3.0/bits/hashtable.h
FN:276,_ZNSt10_HashtableImSt4pairIKmSt6vectorIS0_IbN11MetaPhysicL10DualNumberIdNS3_28SemiDynamicSparseNumberArrayIdmNS3_8NWrapperILm53EEEEELb1EEEESaISA_EEESaISD_ENSt8__detail10_Select1stESt8equal_toImESt4hashImENSF_18_Mod_range_hashingENSF_20_Default_ranged_hashENSF_20_Prime_rehash_policyENSF_17_Hashtable_traitsILb0ELb0ELb1EEEE12_Scoped_nodeD2Ev
FNDA:0,_ZNSt10_HashtableImSt4pairIKmSt6vectorIS0_IbN11MetaPhysicL10DualNumberIdNS3_28SemiDynamicSparseNumberArrayIdmNS3_8NWrapperILm53EEEEELb1EEEESaISA_EEESaISD_ENSt8__detail10_Select1stESt8equal_toImESt4hashImENSF_18_Mod_range_hashingENSF_20_Default_ranged_hashENSF_20_Prime_rehash_policyENSF_17_Hashtable_traitsILb0ELb0ELb1EEEE12_Scoped_nodeD2Ev
FN:276,_ZNSt10_HashtableImSt4pairIKmSt6vectorIS2_IS0_IbN11MetaPhysicL10DualNumberIdNS3_28SemiDynamicSparseNumberArrayIdmNS3_8NWrapperILm53EEEEELb1EEEESaISA_EESaISC_EEESaISF_ENSt8__detail10_Select1stESt8equal_toImESt4hashImENSH_18_Mod_range_hashingENSH_20_Default_ranged_hashENSH_20_Prime_rehash_policyENSH_17_Hashtable_traitsILb0ELb0ELb1EEEE12_Scoped_nodeD2Ev
FNDA:0,_ZNSt10_HashtableImSt4pairIKmSt6vectorIS2_IS0_IbN11MetaPhysicL10DualNumberIdNS3_28SemiDynamicSparseNumberArrayIdmNS3_8NWrapperILm53EEEEELb1EEEESaISA_EESaISC_EEESaISF_ENSt8__detail10_Select1stESt8equal_toImESt4hashImENSH_18_Mod_range_hashingENSH_20_Default_ranged_hashENSH_20_Prime_rehash_policyENSH_17_Hashtable_traitsILb0ELb0ELb1EEEE12_Scoped_nodeD2Ev
FN:276,_ZNSt10_HashtableImSt4pairIKmSt6vectorIS0_IbdESaIS3_EEESaIS6_ENSt8__detail10_Select1stESt8equal_toImESt4hashImENS8_18_Mod_range_hashingENS8_20_Default_ranged_hashENS8_20_Prime_rehash_policyENS8_17_Hashtable_traitsILb0ELb0ELb1EEEE12_Scoped_nodeD2Ev
FNDA:0,_ZNSt10_HashtableImSt4pairIKmSt6vectorIS0_IbdESaIS3_EEESaIS6_ENSt8__detail10_Select1stESt8equal_toImESt4hashImENS8_18_Mod_range_hashingENS8_20_Default_ranged_hashENS8_20_Prime_rehash_policyENS8_17_Hashtable_traitsILb0ELb0ELb1EEEE12_Scoped_nodeD2Ev
FN:276,_ZNSt10_HashtableImSt4pairIKmSt6vectorIS2_IS0_IbdESaIS3_EESaIS5_EEESaIS8_ENSt8__detail10_Select1stESt8equal_toImESt4hashImENSA_18_Mod_range_hashingENSA_20_Default_ranged_hashENSA_20_Prime_rehash_policyENSA_17_Hashtable_traitsILb0ELb0ELb1EEEE12_Scoped_nodeD2Ev
FNDA:0,_ZNSt10_HashtableImSt4pairIKmSt6vectorIS2_IS0_IbdESaIS3_EESaIS5_EEESaIS8_ENSt8__detail10_Select1stESt8equal_toImESt4hashImENSA_18_Mod_range_hashingENSA_20_Default_ranged_hashENSA_20_Prime_rehash_policyENSA_17_Hashtable_traitsILb0ELb0ELb1EEEE12_Scoped_nodeD2Ev
FN:411,_ZNSt10_HashtableINSt7__cxx1112basic_stringIcSt11char_traitsIcESaIcEEESt4pairIKS5_St6vectorIP19MooseVariableScalarSaISA_EEESaISD_ENSt8__detail10_Select1stESt8equal_toIS5_ESt4hashIS5_ENSF_18_Mod_range_hashingENSF_20_Default_ranged_hashENSF_20_Prime_rehash_policyENSF_17_Hashtable_traitsILb1ELb0ELb1EEEE21_M_deallocate_bucketsEv
FNDA:0,_ZNSt10_HashtableINSt7__cxx1112basic_stringIcSt11char_traitsIcESaIcEEESt4pairIKS5_St6vectorIP19MooseVariableScalarSaISA_EEESaISD_ENSt8__detail10_Select1stESt8equal_toIS5_ESt4hashIS5_ENSF_18_Mod_range_hashingENSF_20_Default_ranged_hashENSF_20_Prime_rehash_policyENSF_17_Hashtable_traitsILb1ELb0ELb1EEEE21_M_deallocate_bucketsEv
FN:411,_ZNSt10_HashtableINSt7__cxx1112basic_stringIcSt11char_traitsIcESaIcEEESt4pairIKS5_St10unique_ptrI10MooseArrayIN7libMesh11VectorValueIN11MetaPhysicL10DualNumberIdNSC_28SemiDynamicSparseNumberArrayIdmNSC_8NWrapperILm53EEEEELb1EEEEEESt14default_deleteISK_EEESaISO_ENSt8__detail10_Select1stESt8equal_toIS5_ESt4hashIS5_ENSQ_18_Mod_range_hashingENSQ_20_Default_ranged_hashENSQ_20_Prime_rehash_policyENSQ_17_Hashtable_traitsILb1ELb0ELb1EEEE21_M_deallocate_bucketsEv
FNDA:0,_ZNSt10_HashtableINSt7__cxx1112basic_stringIcSt11char_traitsIcESaIcEEESt4pairIKS5_St10unique_ptrI10MooseArrayIN7libMesh11VectorValueIN11MetaPhysicL10DualNumberIdNSC_28SemiDynamicSparseNumberArrayIdmNSC_8NWrapperILm53EEEEELb1EEEEEESt14default_deleteISK_EEESaISO_ENSt8__detail10_Select1stESt8equal_toIS5_ESt4hashIS5_ENSQ_18_Mod_range_hashingENSQ_20_Default_ranged_hashENSQ_20_Prime_rehash_policyENSQ_17_Hashtable_traitsILb1ELb0ELb1EEEE21_M_deallocate_bucketsEv
FN:411,_ZNSt10_HashtableINSt7__cxx1112basic_stringIcSt11char_traitsIcESaIcEEESt4pairIKS5_St10unique_ptrI10MooseArrayIN5Eigen6MatrixIdLin1ELi1ELi0ELin1ELi1EEEESt14default_deleteISD_EEESaISH_ENSt8__detail10_Select1stESt8equal_toIS5_ESt4hashIS5_ENSJ_18_Mod_range_hashingENSJ_20_Default_ranged_hashENSJ_20_Prime_rehash_policyENSJ_17_Hashtable_traitsILb1ELb0ELb1EEEE21_M_deallocate_bucketsEv
FNDA:0,_ZNSt10_HashtableINSt7__cxx1112basic_stringIcSt11char_traitsIcESaIcEEESt4pairIKS5_St10unique_ptrI10MooseArrayIN5Eigen6MatrixIdLin1ELi1ELi0ELin1ELi1EEEESt14default_deleteISD_EEESaISH_ENSt8__detail10_Select1stESt8equal_toIS5_ESt4hashIS5_ENSJ_18_Mod_range_hashingENSJ_20_Default_ranged_hashENSJ_20_Prime_rehash_policyENSJ_17_Hashtable_traitsILb1ELb0ELb1EEEE21_M_deallocate_bucketsEv
FN:411,_ZNSt10_HashtableINSt7__cxx1112basic_stringIcSt11char_traitsIcESaIcEEESt4pairIKS5_St6vectorIjSaIjEEESaISB_ENSt8__detail10_Select1stESt8equal_toIS5_ESt4hashIS5_ENSD_18_Mod_range_hashingENSD_20_Default_ranged_hashENSD_20_Prime_rehash_policyENSD_17_Hashtable_traitsILb1ELb0ELb1EEEE21_M_deallocate_bucketsEv
FNDA:0,_ZNSt10_HashtableINSt7__cxx1112basic_stringIcSt11char_traitsIcESaIcEEESt4pairIKS5_St6vectorIjSaIjEEESaISB_ENSt8__detail10_Select1stESt8equal_toIS5_ESt4hashIS5_ENSD_18_Mod_range_hashingENSD_20_Default_ranged_hashENSD_20_Prime_rehash_policyENSD_17_Hashtable_traitsILb1ELb0ELb1EEEE21_M_deallocate_bucketsEv
FN:411,_ZNSt10_HashtableImSt4pairIKmSt6vectorIS0_IbdESaIS3_EEESaIS6_ENSt8__detail10_Select1stESt8equal_toImESt4hashImENS8_18_Mod_range_hashingENS8_20_Default_ranged_hashENS8_20_Prime_rehash_policyENS8_17_Hashtable_traitsILb0ELb0ELb1EEEE21_M_deallocate_bucketsEv
FNDA:0,_ZNSt10_HashtableImSt4pairIKmSt6vectorIS0_IbdESaIS3_EEESaIS6_ENSt8__detail10_Select1stESt8equal_toImESt4hashImENS8_18_Mod_range_hashingENS8_20_Default_ranged_hashENS8_20_Prime_rehash_policyENS8_17_Hashtable_traitsILb0ELb0ELb1EEEE21_M_deallocate_bucketsEv
FN:411,_ZNSt10_HashtableINSt7__cxx1112basic_stringIcSt11char_traitsIcESaIcEEESt4pairIKS5_St10unique_ptrI10MooseArrayIN7libMesh11VectorValueIdEEESt14default_deleteISD_EEESaISH_ENSt8__detail10_Select1stESt8equal_toIS5_ESt4hashIS5_ENSJ_18_Mod_range_hashingENSJ_20_Default_ranged_hashENSJ_20_Prime_rehash_policyENSJ_17_Hashtable_traitsILb1ELb0ELb1EEEE21_M_deallocate_bucketsEv
FNDA:0,_ZNSt10_HashtableINSt7__cxx1112basic_stringIcSt11char_traitsIcESaIcEEESt4pairIKS5_St10unique_ptrI10MooseArrayIN7libMesh11VectorValueIdEEESt14default_deleteISD_EEESaISH_ENSt8__detail10_Select1stESt8equal_toIS5_ESt4hashIS5_ENSJ_18_Mod_range_hashingENSJ_20_Default_ranged_hashENSJ_20_Prime_rehash_policyENSJ_17_Hashtable_traitsILb1ELb0ELb1EEEE21_M_deallocate_bucketsEv
FN:411,_ZNSt10_HashtableImSt4pairIKmSt6vectorIS2_IS0_IbdESaIS3_EESaIS5_EEESaIS8_ENSt8__detail10_Select1stESt8equal_toImESt4hashImENSA_18_Mod_range_hashingENSA_20_Default_ranged_hashENSA_20_Prime_rehash_policyENSA_17_Hashtable_traitsILb0ELb0ELb1EEEE21_M_deallocate_bucketsEv
FNDA:0,_ZNSt10_HashtableImSt4pairIKmSt6vectorIS2_IS0_IbdESaIS3_EESaIS5_EEESaIS8_ENSt8__detail10_Select1stESt8equal_toImESt4hashImENSA_18_Mod_range_hashingENSA_20_Default_ranged_hashENSA_20_Prime_rehash_policyENSA_17_Hashtable_traitsILb0ELb0ELb1EEEE21_M_deallocate_bucketsEv
FN:411,_ZNSt10_HashtableImSt4pairIKmSt6vectorIS0_IbN11MetaPhysicL10DualNumberIdNS3_28SemiDynamicSparseNumberArrayIdmNS3_8NWrapperILm53EEEEELb1EEEESaISA_EEESaISD_ENSt8__detail10_Select1stESt8equal_toImESt4hashImENSF_18_Mod_range_hashingENSF_20_Default_ranged_hashENSF_20_Prime_rehash_policyENSF_17_Hashtable_traitsILb0ELb0ELb1EEEE21_M_deallocate_bucketsEv
FNDA:0,_ZNSt10_HashtableImSt4pairIKmSt6vectorIS0_IbN11MetaPhysicL10DualNumberIdNS3_28SemiDynamicSparseNumberArrayIdmNS3_8NWrapperILm53EEEEELb1EEEESaISA_EEESaISD_ENSt8__detail10_Select1stESt8equal_toImESt4hashImENSF_18_Mod_range_hashingENSF_20_Default_ranged_hashENSF_20_Prime_rehash_policyENSF_17_Hashtable_traitsILb0ELb0ELb1EEEE21_M_deallocate_bucketsEv
FN:411,_ZNSt10_HashtableINSt7__cxx1112basic_stringIcSt11char_traitsIcESaIcEEESt4pairIKS5_St6vectorISt10unique_ptrI10MooseArrayIdESt14default_deleteISB_EESaISE_EEESaISH_ENSt8__detail10_Select1stESt8equal_toIS5_ESt4hashIS5_ENSJ_18_Mod_range_hashingENSJ_20_Default_ranged_hashENSJ_20_Prime_rehash_policyENSJ_17_Hashtable_traitsILb1ELb0ELb1EEEE21_M_deallocate_bucketsEv
FNDA:0,_ZNSt10_HashtableINSt7__cxx1112basic_stringIcSt11char_traitsIcESaIcEEESt4pairIKS5_St6vectorISt10unique_ptrI10MooseArrayIdESt14default_deleteISB_EESaISE_EEESaISH_ENSt8__detail10_Select1stESt8equal_toIS5_ESt4hashIS5_ENSJ_18_Mod_range_hashingENSJ_20_Default_ranged_hashENSJ_20_Prime_rehash_policyENSJ_17_Hashtable_traitsILb1ELb0ELb1EEEE21_M_deallocate_bucketsEv
FN:411,_ZNSt10_HashtableImSt4pairIKmSt6vectorIS2_IS0_IbN11MetaPhysicL10DualNumberIdNS3_28SemiDynamicSparseNumberArrayIdmNS3_8NWrapperILm53EEEEELb1EEEESaISA_EESaISC_EEESaISF_ENSt8__detail10_Select1stESt8equal_toImESt4hashImENSH_18_Mod_range_hashingENSH_20_Default_ranged_hashENSH_20_Prime_rehash_policyENSH_17_Hashtable_traitsILb0ELb0ELb1EEEE21_M_deallocate_bucketsEv
FNDA:0,_ZNSt10_HashtableImSt4pairIKmSt6vectorIS2_IS0_IbN11MetaPhysicL10DualNumberIdNS3_28SemiDynamicSparseNumberArrayIdmNS3_8NWrapperILm53EEEEELb1EEEESaISA_EESaISC_EEESaISF_ENSt8__detail10_Select1stESt8equal_toImESt4hashImENSH_18_Mod_range_hashingENSH_20_Default_ranged_hashENSH_20_Prime_rehash_policyENSH_17_Hashtable_traitsILb0ELb0ELb1EEEE21_M_deallocate_bucketsEv
FN:411,_ZNSt10_HashtableINSt7__cxx1112basic_stringIcSt11char_traitsIcESaIcEEESt4pairIKS5_S5_ESaIS8_ENSt8__detail10_Select1stESt8equal_toIS5_ESt4hashIS5_ENSA_18_Mod_range_hashingENSA_20_Default_ranged_hashENSA_20_Prime_rehash_policyENSA_17_Hashtable_traitsILb1ELb0ELb1EEEE21_M_deallocate_bucketsEv
FNDA:0,_ZNSt10_HashtableINSt7__cxx1112basic_stringIcSt11char_traitsIcESaIcEEESt4pairIKS5_S5_ESaIS8_ENSt8__detail10_Select1stESt8equal_toIS5_ESt4hashIS5_ENSA_18_Mod_range_hashingENSA_20_Default_ranged_hashENSA_20_Prime_rehash_policyENSA_17_Hashtable_traitsILb1ELb0ELb1EEEE21_M_deallocate_bucketsEv
FN:411,_ZNSt10_HashtableINSt7__cxx1112basic_stringIcSt11char_traitsIcESaIcEEESt4pairIKS5_St6vectorIP22MooseVariableFieldBaseSaISA_EEESaISD_ENSt8__detail10_Select1stESt8equal_toIS5_ESt4hashIS5_ENSF_18_Mod_range_hashingENSF_20_Default_ranged_hashENSF_20_Prime_rehash_policyENSF_17_Hashtable_traitsILb1ELb0ELb1EEEE21_M_deallocate_bucketsEv
FNDA:0,_ZNSt10_HashtableINSt7__cxx1112basic_stringIcSt11char_traitsIcESaIcEEESt4pairIKS5_St6vectorIP22MooseVariableFieldBaseSaISA_EEESaISD_ENSt8__detail10_Select1stESt8equal_toIS5_ESt4hashIS5_ENSF_18_Mod_range_hashingENSF_20_Default_ranged_hashENSF_20_Prime_rehash_policyENSF_17_Hashtable_traitsILb1ELb0ELb1EEEE21_M_deallocate_bucketsEv
FN:411,_ZNSt10_HashtableINSt7__cxx1112basic_stringIcSt11char_traitsIcESaIcEEESt4pairIKS5_St10unique_ptrI10MooseArrayIdESt14default_deleteISA_EEESaISE_ENSt8__detail10_Select1stESt8equal_toIS5_ESt4hashIS5_ENSG_18_Mod_range_hashingENSG_20_Default_ranged_hashENSG_20_Prime_rehash_policyENSG_17_Hashtable_traitsILb1ELb0ELb1EEEE21_M_deallocate_bucketsEv
FNDA:0,_ZNSt10_HashtableINSt7__cxx1112basic_stringIcSt11char_traitsIcESaIcEEESt4pairIKS5_St10unique_ptrI10MooseArrayIdESt14default_deleteISA_EEESaISE_ENSt8__detail10_Select1stESt8equal_toIS5_ESt4hashIS5_ENSG_18_Mod_range_hashingENSG_20_Default_ranged_hashENSG_20_Prime_rehash_policyENSG_17_Hashtable_traitsILb1ELb0ELb1EEEE21_M_deallocate_bucketsEv
FN:411,_ZNSt10_HashtableINSt7__cxx1112basic_stringIcSt11char_traitsIcESaIcEEESt4pairIKS5_St10unique_ptrI10MooseArrayIN11MetaPhysicL10DualNumberIdNSA_28SemiDynamicSparseNumberArrayIdmNSA_8NWrapperILm53EEEEELb1EEEESt14default_deleteISH_EEESaISL_ENSt8__detail10_Select1stESt8equal_toIS5_ESt4hashIS5_ENSN_18_Mod_range_hashingENSN_20_Default_ranged_hashENSN_20_Prime_rehash_policyENSN_17_Hashtable_traitsILb1ELb0ELb1EEEE21_M_deallocate_bucketsEv
FNDA:0,_ZNSt10_HashtableINSt7__cxx1112basic_stringIcSt11char_traitsIcESaIcEEESt4pairIKS5_St10unique_ptrI10MooseArrayIN11MetaPhysicL10DualNumberIdNSA_28SemiDynamicSparseNumberArrayIdmNSA_8NWrapperILm53EEEEELb1EEEESt14default_deleteISH_EEESaISL_ENSt8__detail10_Select1stESt8equal_toIS5_ESt4hashIS5_ENSN_18_Mod_range_hashingENSN_20_Default_ranged_hashENSN_20_Prime_rehash_policyENSN_17_Hashtable_traitsILb1ELb0ELb1EEEE21_M_deallocate_bucketsEv
FN:1567,_ZNKSt10_HashtableImSt4pairIKmSt6vectorIS0_IbN11MetaPhysicL10DualNumberIdNS3_28SemiDynamicSparseNumberArrayIdmNS3_8NWrapperILm53EEEEELb1EEEESaISA_EEESaISD_ENSt8__detail10_Select1stESt8equal_toImESt4hashImENSF_18_Mod_range_hashingENSF_20_Default_ranged_hashENSF_20_Prime_rehash_policyENSF_17_Hashtable_traitsILb0ELb0ELb1EEEE19_M_find_before_nodeEmRS1_m
FNDA:0,_ZNKSt10_HashtableImSt4pairIKmSt6vectorIS0_IbN11MetaPhysicL10DualNumberIdNS3_28SemiDynamicSparseNumberArrayIdmNS3_8NWrapperILm53EEEEELb1EEEESaISA_EEESaISD_ENSt8__detail10_Select1stESt8equal_toImESt4hashImENSF_18_Mod_range_hashingENSF_20_Default_ranged_hashENSF_20_Prime_rehash_policyENSF_17_Hashtable_traitsILb0ELb0ELb1EEEE19_M_find_before_nodeEmRS1_m
FN:1567,_ZNKSt10_HashtableImSt4pairIKmSt6vectorIS2_IS0_IbN11MetaPhysicL10DualNumberIdNS3_28SemiDynamicSparseNumberArrayIdmNS3_8NWrapperILm53EEEEELb1EEEESaISA_EESaISC_EEESaISF_ENSt8__detail10_Select1stESt8equal_toImESt4hashImENSH_18_Mod_range_hashingENSH_20_Default_ranged_hashENSH_20_Prime_rehash_policyENSH_17_Hashtable_traitsILb0ELb0ELb1EEEE19_M_find_before_nodeEmRS1_m
FNDA:0,_ZNKSt10_HashtableImSt4pairIKmSt6vectorIS2_IS0_IbN11MetaPhysicL10DualNumberIdNS3_28SemiDynamicSparseNumberArrayIdmNS3_8NWrapperILm53EEEEELb1EEEESaISA_EESaISC_EEESaISF_ENSt8__detail10_Select1stESt8equal_toImESt4hashImENSH_18_Mod_range_hashingENSH_20_Default_ranged_hashENSH_20_Prime_rehash_policyENSH_17_Hashtable_traitsILb0ELb0ELb1EEEE19_M_find_before_nodeEmRS1_m
FN:1567,_ZNKSt10_HashtableImSt4pairIKmSt6vectorIS2_IS0_IbdESaIS3_EESaIS5_EEESaIS8_ENSt8__detail10_Select1stESt8equal_toImESt4hashImENSA_18_Mod_range_hashingENSA_20_Default_ranged_hashENSA_20_Prime_rehash_policyENSA_17_Hashtable_traitsILb0ELb0ELb1EEEE19_M_find_before_nodeEmRS1_m
FNDA:0,_ZNKSt10_HashtableImSt4pairIKmSt6vectorIS2_IS0_IbdESaIS3_EESaIS5_EEESaIS8_ENSt8__detail10_Select1stESt8equal_toImESt4hashImENSA_18_Mod_range_hashingENSA_20_Default_ranged_hashENSA_20_Prime_rehash_policyENSA_17_Hashtable_traitsILb0ELb0ELb1EEEE19_M_find_before_nodeEmRS1_m
FN:1567,_ZNKSt10_HashtableImSt4pairIKmSt6vectorIS0_IbdESaIS3_EEESaIS6_ENSt8__detail10_Select1stESt8equal_toImESt4hashImENS8_18_Mod_range_hashingENS8_20_Default_ranged_hashENS8_20_Prime_rehash_policyENS8_17_Hashtable_traitsILb0ELb0ELb1EEEE19_M_find_before_nodeEmRS1_m
FNDA:0,_ZNKSt10_HashtableImSt4pairIKmSt6vectorIS0_IbdESaIS3_EEESaIS6_ENSt8__detail10_Select1stESt8equal_toImESt4hashImENS8_18_Mod_range_hashingENS8_20_Default_ranged_hashENS8_20_Prime_rehash_policyENS8_17_Hashtable_traitsILb0ELb0ELb1EEEE19_M_find_before_nodeEmRS1_m
FN:1595,_ZNSt10_HashtableImSt4pairIKmSt6vectorIS0_IbN11MetaPhysicL10DualNumberIdNS3_28SemiDynamicSparseNumberArrayIdmNS3_8NWrapperILm53EEEEELb1EEEESaISA_EEESaISD_ENSt8__detail10_Select1stESt8equal_toImESt4hashImENSF_18_Mod_range_hashingENSF_20_Default_ranged_hashENSF_20_Prime_rehash_policyENSF_17_Hashtable_traitsILb0ELb0ELb1EEEE22_M_insert_bucket_beginEmPNSF_10_Hash_nodeISD_Lb0EEE
FNDA:0,_ZNSt10_HashtableImSt4pairIKmSt6vectorIS0_IbN11MetaPhysicL10DualNumberIdNS3_28SemiDynamicSparseNumberArrayIdmNS3_8NWrapperILm53EEEEELb1EEEESaISA_EEESaISD_ENSt8__detail10_Select1stESt8equal_toImESt4hashImENSF_18_Mod_range_hashingENSF_20_Default_ranged_hashENSF_20_Prime_rehash_policyENSF_17_Hashtable_traitsILb0ELb0ELb1EEEE22_M_insert_bucket_beginEmPNSF_10_Hash_nodeISD_Lb0EEE
FN:1595,_ZNSt10_HashtableImSt4pairIKmSt6vectorIS2_IS0_IbdESaIS3_EESaIS5_EEESaIS8_ENSt8__detail10_Select1stESt8equal_toImESt4hashImENSA_18_Mod_range_hashingENSA_20_Default_ranged_hashENSA_20_Prime_rehash_policyENSA_17_Hashtable_traitsILb0ELb0ELb1EEEE22_M_insert_bucket_beginEmPNSA_10_Hash_nodeIS8_Lb0EEE
FNDA:0,_ZNSt10_HashtableImSt4pairIKmSt6vectorIS2_IS0_IbdESaIS3_EESaIS5_EEESaIS8_ENSt8__detail10_Select1stESt8equal_toImESt4hashImENSA_18_Mod_range_hashingENSA_20_Default_ranged_hashENSA_20_Prime_rehash_policyENSA_17_Hashtable_traitsILb0ELb0ELb1EEEE22_M_insert_bucket_beginEmPNSA_10_Hash_nodeIS8_Lb0EEE
FN:1595,_ZNSt10_HashtableImSt4pairIKmSt6vectorIS0_IbdESaIS3_EEESaIS6_ENSt8__detail10_Select1stESt8equal_toImESt4hashImENS8_18_Mod_range_hashingENS8_20_Default_ranged_hashENS8_20_Prime_rehash_policyENS8_17_Hashtable_traitsILb0ELb0ELb1EEEE22_M_insert_bucket_beginEmPNS8_10_Hash_nodeIS6_Lb0EEE
FNDA:0,_ZNSt10_HashtableImSt4pairIKmSt6vectorIS0_IbdESaIS3_EEESaIS6_ENSt8__detail10_Select1stESt8equal_toImESt4hashImENS8_18_Mod_range_hashingENS8_20_Default_ranged_hashENS8_20_Prime_rehash_policyENS8_17_Hashtable_traitsILb0ELb0ELb1EEEE22_M_insert_bucket_beginEmPNS8_10_Hash_nodeIS6_Lb0EEE
FN:1595,_ZNSt10_HashtableImSt4pairIKmSt6vectorIS2_IS0_IbN11MetaPhysicL10DualNumberIdNS3_28SemiDynamicSparseNumberArrayIdmNS3_8NWrapperILm53EEEEELb1EEEESaISA_EESaISC_EEESaISF_ENSt8__detail10_Select1stESt8equal_toImESt4hashImENSH_18_Mod_range_hashingENSH_20_Default_ranged_hashENSH_20_Prime_rehash_policyENSH_17_Hashtable_traitsILb0ELb0ELb1EEEE22_M_insert_bucket_beginEmPNSH_10_Hash_nodeISF_Lb0EEE
FNDA:0,_ZNSt10_HashtableImSt4pairIKmSt6vectorIS2_IS0_IbN11MetaPhysicL10DualNumberIdNS3_28SemiDynamicSparseNumberArrayIdmNS3_8NWrapperILm53EEEEELb1EEEESaISA_EESaISC_EEESaISF_ENSt8__detail10_Select1stESt8equal_toImESt4hashImENSH_18_Mod_range_hashingENSH_20_Default_ranged_hashENSH_20_Prime_rehash_policyENSH_17_Hashtable_traitsILb0ELb0ELb1EEEE22_M_insert_bucket_beginEmPNSH_10_Hash_nodeISF_Lb0EEE
FN:1714,_ZNSt10_HashtableImSt4pairIKmSt6vectorIS2_IS0_IbdESaIS3_EESaIS5_EEESaIS8_ENSt8__detail10_Select1stESt8equal_toImESt4hashImENSA_18_Mod_range_hashingENSA_20_Default_ranged_hashENSA_20_Prime_rehash_policyENSA_17_Hashtable_traitsILb0ELb0ELb1EEEE21_M_insert_unique_nodeERS1_mmPNSA_10_Hash_nodeIS8_Lb0EEEm
FNDA:0,_ZNSt10_HashtableImSt4pairIKmSt6vectorIS2_IS0_IbdESaIS3_EESaIS5_EEESaIS8_ENSt8__detail10_Select1stESt8equal_toImESt4hashImENSA_18_Mod_range_hashingENSA_20_Default_ranged_hashENSA_20_Prime_rehash_policyENSA_17_Hashtable_traitsILb0ELb0ELb1EEEE21_M_insert_unique_nodeERS1_mmPNSA_10_Hash_nodeIS8_Lb0EEEm
FN:1714,_ZNSt10_HashtableImSt4pairIKmSt6vectorIS0_IbN11MetaPhysicL10DualNumberIdNS3_28SemiDynamicSparseNumberArrayIdmNS3_8NWrapperILm53EEEEELb1EEEESaISA_EEESaISD_ENSt8__detail10_Select1stESt8equal_toImESt4hashImENSF_18_Mod_range_hashingENSF_20_Default_ranged_hashENSF_20_Prime_rehash_policyENSF_17_Hashtable_traitsILb0ELb0ELb1EEEE21_M_insert_unique_nodeERS1_mmPNSF_10_Hash_nodeISD_Lb0EEEm
FNDA:0,_ZNSt10_HashtableImSt4pairIKmSt6vectorIS0_IbN11MetaPhysicL10DualNumberIdNS3_28SemiDynamicSparseNumberArrayIdmNS3_8NWrapperILm53EEEEELb1EEEESaISA_EEESaISD_ENSt8__detail10_Select1stESt8equal_toImESt4hashImENSF_18_Mod_range_hashingENSF_20_Default_ranged_hashENSF_20_Prime_rehash_policyENSF_17_Hashtable_traitsILb0ELb0ELb1EEEE21_M_insert_unique_nodeERS1_mmPNSF_10_Hash_nodeISD_Lb0EEEm
FN:1714,_ZNSt10_HashtableImSt4pairIKmSt6vectorIS2_IS0_IbN11MetaPhysicL10DualNumberIdNS3_28SemiDynamicSparseNumberArrayIdmNS3_8NWrapperILm53EEEEELb1EEEESaISA_EESaISC_EEESaISF_ENSt8__detail10_Select1stESt8equal_toImESt4hashImENSH_18_Mod_range_hashingENSH_20_Default_ranged_hashENSH_20_Prime_rehash_policyENSH_17_Hashtable_traitsILb0ELb0ELb1EEEE21_M_insert_unique_nodeERS1_mmPNSH_10_Hash_nodeISF_Lb0EEEm
FNDA:0,_ZNSt10_HashtableImSt4pairIKmSt6vectorIS2_IS0_IbN11MetaPhysicL10DualNumberIdNS3_28SemiDynamicSparseNumberArrayIdmNS3_8NWrapperILm53EEEEELb1EEEESaISA_EESaISC_EEESaISF_ENSt8__detail10_Select1stESt8equal_toImESt4hashImENSH_18_Mod_range_hashingENSH_20_Default_ranged_hashENSH_20_Prime_rehash_policyENSH_17_Hashtable_traitsILb0ELb0ELb1EEEE21_M_insert_unique_nodeERS1_mmPNSH_10_Hash_nodeISF_Lb0EEEm
FN:1714,_ZNSt10_HashtableImSt4pairIKmSt6vectorIS0_IbdESaIS3_EEESaIS6_ENSt8__detail10_Select1stESt8equal_toImESt4hashImENS8_18_Mod_range_hashingENS8_20_Default_ranged_hashENS8_20_Prime_rehash_policyENS8_17_Hashtable_traitsILb0ELb0ELb1EEEE21_M_insert_unique_nodeERS1_mmPNS8_10_Hash_nodeIS6_Lb0EEEm
FNDA:0,_ZNSt10_HashtableImSt4pairIKmSt6vectorIS0_IbdESaIS3_EEESaIS6_ENSt8__detail10_Select1stESt8equal_toImESt4hashImENS8_18_Mod_range_hashingENS8_20_Default_ranged_hashENS8_20_Prime_rehash_policyENS8_17_Hashtable_traitsILb0ELb0ELb1EEEE21_M_insert_unique_nodeERS1_mmPNS8_10_Hash_nodeIS6_Lb0EEEm
FN:2026,_ZNSt10_HashtableINSt7__cxx1112basic_stringIcSt11char_traitsIcESaIcEEESt4pairIKS5_St6vectorISt10unique_ptrI10MooseArrayIdESt14default_deleteISB_EESaISE_EEESaISH_ENSt8__detail10_Select1stESt8equal_toIS5_ESt4hashIS5_ENSJ_18_Mod_range_hashingENSJ_20_Default_ranged_hashENSJ_20_Prime_rehash_policyENSJ_17_Hashtable_traitsILb1ELb0ELb1EEEE5clearEv
FNDA:0,_ZNSt10_HashtableINSt7__cxx1112basic_stringIcSt11char_traitsIcESaIcEEESt4pairIKS5_St6vectorISt10unique_ptrI10MooseArrayIdESt14default_deleteISB_EESaISE_EEESaISH_ENSt8__detail10_Select1stESt8equal_toIS5_ESt4hashIS5_ENSJ_18_Mod_range_hashingENSJ_20_Default_ranged_hashENSJ_20_Prime_rehash_policyENSJ_17_Hashtable_traitsILb1ELb0ELb1EEEE5clearEv
FN:2026,_ZNSt10_HashtableINSt7__cxx1112basic_stringIcSt11char_traitsIcESaIcEEESt4pairIKS5_St6vectorIP22MooseVariableFieldBaseSaISA_EEESaISD_ENSt8__detail10_Select1stESt8equal_toIS5_ESt4hashIS5_ENSF_18_Mod_range_hashingENSF_20_Default_ranged_hashENSF_20_Prime_rehash_policyENSF_17_Hashtable_traitsILb1ELb0ELb1EEEE5clearEv
FNDA:0,_ZNSt10_HashtableINSt7__cxx1112basic_stringIcSt11char_traitsIcESaIcEEESt4pairIKS5_St6vectorIP22MooseVariableFieldBaseSaISA_EEESaISD_ENSt8__detail10_Select1stESt8equal_toIS5_ESt4hashIS5_ENSF_18_Mod_range_hashingENSF_20_Default_ranged_hashENSF_20_Prime_rehash_policyENSF_17_Hashtable_traitsILb1ELb0ELb1EEEE5clearEv
FN:2026,_ZNSt10_HashtableINSt7__cxx1112basic_stringIcSt11char_traitsIcESaIcEEESt4pairIKS5_St10unique_ptrI10MooseArrayIN7libMesh11VectorValueIdEEESt14default_deleteISD_EEESaISH_ENSt8__detail10_Select1stESt8equal_toIS5_ESt4hashIS5_ENSJ_18_Mod_range_hashingENSJ_20_Default_ranged_hashENSJ_20_Prime_rehash_policyENSJ_17_Hashtable_traitsILb1ELb0ELb1EEEE5clearEv
FNDA:0,_ZNSt10_HashtableINSt7__cxx1112basic_stringIcSt11char_traitsIcESaIcEEESt4pairIKS5_St10unique_ptrI10MooseArrayIN7libMesh11VectorValueIdEEESt14default_deleteISD_EEESaISH_ENSt8__detail10_Select1stESt8equal_toIS5_ESt4hashIS5_ENSJ_18_Mod_range_hashingENSJ_20_Default_ranged_hashENSJ_20_Prime_rehash_policyENSJ_17_Hashtable_traitsILb1ELb0ELb1EEEE5clearEv
FN:2026,_ZNSt10_HashtableINSt7__cxx1112basic_stringIcSt11char_traitsIcESaIcEEESt4pairIKS5_St10unique_ptrI10MooseArrayIN11MetaPhysicL10DualNumberIdNSA_28SemiDynamicSparseNumberArrayIdmNSA_8NWrapperILm53EEEEELb1EEEESt14default_deleteISH_EEESaISL_ENSt8__detail10_Select1stESt8equal_toIS5_ESt4hashIS5_ENSN_18_Mod_range_hashingENSN_20_Default_ranged_hashENSN_20_Prime_rehash_policyENSN_17_Hashtable_traitsILb1ELb0ELb1EEEE5clearEv
FNDA:0,_ZNSt10_HashtableINSt7__cxx1112basic_stringIcSt11char_traitsIcESaIcEEESt4pairIKS5_St10unique_ptrI10MooseArrayIN11MetaPhysicL10DualNumberIdNSA_28SemiDynamicSparseNumberArrayIdmNSA_8NWrapperILm53EEEEELb1EEEESt14default_deleteISH_EEESaISL_ENSt8__detail10_Select1stESt8equal_toIS5_ESt4hashIS5_ENSN_18_Mod_range_hashingENSN_20_Default_ranged_hashENSN_20_Prime_rehash_policyENSN_17_Hashtable_traitsILb1ELb0ELb1EEEE5clearEv
FN:2026,_ZNSt10_HashtableINSt7__cxx1112basic_stringIcSt11char_traitsIcESaIcEEESt4pairIKS5_St10unique_ptrI10MooseArrayIN5Eigen6MatrixIdLin1ELi1ELi0ELin1ELi1EEEESt14default_deleteISD_EEESaISH_ENSt8__detail10_Select1stESt8equal_toIS5_ESt4hashIS5_ENSJ_18_Mod_range_hashingENSJ_20_Default_ranged_hashENSJ_20_Prime_rehash_policyENSJ_17_Hashtable_traitsILb1ELb0ELb1EEEE5clearEv
FNDA:0,_ZNSt10_HashtableINSt7__cxx1112basic_stringIcSt11char_traitsIcESaIcEEESt4pairIKS5_St10unique_ptrI10MooseArrayIN5Eigen6MatrixIdLin1ELi1ELi0ELin1ELi1EEEESt14default_deleteISD_EEESaISH_ENSt8__detail10_Select1stESt8equal_toIS5_ESt4hashIS5_ENSJ_18_Mod_range_hashingENSJ_20_Default_ranged_hashENSJ_20_Prime_rehash_policyENSJ_17_Hashtable_traitsILb1ELb0ELb1EEEE5clearEv
FN:2026,_ZNSt10_HashtableINSt7__cxx1112basic_stringIcSt11char_traitsIcESaIcEEESt4pairIKS5_St10unique_ptrI10MooseArrayIdESt14default_deleteISA_EEESaISE_ENSt8__detail10_Select1stESt8equal_toIS5_ESt4hashIS5_ENSG_18_Mod_range_hashingENSG_20_Default_ranged_hashENSG_20_Prime_rehash_policyENSG_17_Hashtable_traitsILb1ELb0ELb1EEEE5clearEv
FNDA:0,_ZNSt10_HashtableINSt7__cxx1112basic_stringIcSt11char_traitsIcESaIcEEESt4pairIKS5_St10unique_ptrI10MooseArrayIdESt14default_deleteISA_EEESaISE_ENSt8__detail10_Select1stESt8equal_toIS5_ESt4hashIS5_ENSG_18_Mod_range_hashingENSG_20_Default_ranged_hashENSG_20_Prime_rehash_policyENSG_17_Hashtable_traitsILb1ELb0ELb1EEEE5clearEv
FN:2026,_ZNSt10_HashtableINSt7__cxx1112basic_stringIcSt11char_traitsIcESaIcEEESt4pairIKS5_St6vectorIP19MooseVariableScalarSaISA_EEESaISD_ENSt8__detail10_Select1stESt8equal_toIS5_ESt4hashIS5_ENSF_18_Mod_range_hashingENSF_20_Default_ranged_hashENSF_20_Prime_rehash_policyENSF_17_Hashtable_traitsILb1ELb0ELb1EEEE5clearEv
FNDA:0,_ZNSt10_HashtableINSt7__cxx1112basic_stringIcSt11char_traitsIcESaIcEEESt4pairIKS5_St6vectorIP19MooseVariableScalarSaISA_EEESaISD_ENSt8__detail10_Select1stESt8equal_toIS5_ESt4hashIS5_ENSF_18_Mod_range_hashingENSF_20_Default_ranged_hashENSF_20_Prime_rehash_policyENSF_17_Hashtable_traitsILb1ELb0ELb1EEEE5clearEv
FN:2026,_ZNSt10_HashtableINSt7__cxx1112basic_stringIcSt11char_traitsIcESaIcEEESt4pairIKS5_St10unique_ptrI10MooseArrayIN7libMesh11VectorValueIN11MetaPhysicL10DualNumberIdNSC_28SemiDynamicSparseNumberArrayIdmNSC_8NWrapperILm53EEEEELb1EEEEEESt14default_deleteISK_EEESaISO_ENSt8__detail10_Select1stESt8equal_toIS5_ESt4hashIS5_ENSQ_18_Mod_range_hashingENSQ_20_Default_ranged_hashENSQ_20_Prime_rehash_policyENSQ_17_Hashtable_traitsILb1ELb0ELb1EEEE5clearEv
FNDA:0,_ZNSt10_HashtableINSt7__cxx1112basic_stringIcSt11char_traitsIcESaIcEEESt4pairIKS5_St10unique_ptrI10MooseArrayIN7libMesh11VectorValueIN11MetaPhysicL10DualNumberIdNSC_28SemiDynamicSparseNumberArrayIdmNSC_8NWrapperILm53EEEEELb1EEEEEESt14default_deleteISK_EEESaISO_ENSt8__detail10_Select1stESt8equal_toIS5_ESt4hashIS5_ENSQ_18_Mod_range_hashingENSQ_20_Default_ranged_hashENSQ_20_Prime_rehash_policyENSQ_17_Hashtable_traitsILb1ELb0ELb1EEEE5clearEv
FN:2026,_ZNSt10_HashtableINSt7__cxx1112basic_stringIcSt11char_traitsIcESaIcEEESt4pairIKS5_St6vectorIjSaIjEEESaISB_ENSt8__detail10_Select1stESt8equal_toIS5_ESt4hashIS5_ENSD_18_Mod_range_hashingENSD_20_Default_ranged_hashENSD_20_Prime_rehash_policyENSD_17_Hashtable_traitsILb1ELb0ELb1EEEE5clearEv
FNDA:0,_ZNSt10_HashtableINSt7__cxx1112basic_stringIcSt11char_traitsIcESaIcEEESt4pairIKS5_St6vectorIjSaIjEEESaISB_ENSt8__detail10_Select1stESt8equal_toIS5_ESt4hashIS5_ENSD_18_Mod_range_hashingENSD_20_Default_ranged_hashENSD_20_Prime_rehash_policyENSD_17_Hashtable_traitsILb1ELb0ELb1EEEE5clearEv
FN:2026,_ZNSt10_HashtableImSt4pairIKmSt6vectorIS0_IbdESaIS3_EEESaIS6_ENSt8__detail10_Select1stESt8equal_toImESt4hashImENS8_18_Mod_range_hashingENS8_20_Default_ranged_hashENS8_20_Prime_rehash_policyENS8_17_Hashtable_traitsILb0ELb0ELb1EEEE5clearEv
FNDA:0,_ZNSt10_HashtableImSt4pairIKmSt6vectorIS0_IbdESaIS3_EEESaIS6_ENSt8__detail10_Select1stESt8equal_toImESt4hashImENS8_18_Mod_range_hashingENS8_20_Default_ranged_hashENS8_20_Prime_rehash_policyENS8_17_Hashtable_traitsILb0ELb0ELb1EEEE5clearEv
FN:2026,_ZNSt10_HashtableImSt4pairIKmSt6vectorIS2_IS0_IbdESaIS3_EESaIS5_EEESaIS8_ENSt8__detail10_Select1stESt8equal_toImESt4hashImENSA_18_Mod_range_hashingENSA_20_Default_ranged_hashENSA_20_Prime_rehash_policyENSA_17_Hashtable_traitsILb0ELb0ELb1EEEE5clearEv
FNDA:0,_ZNSt10_HashtableImSt4pairIKmSt6vectorIS2_IS0_IbdESaIS3_EESaIS5_EEESaIS8_ENSt8__detail10_Select1stESt8equal_toImESt4hashImENSA_18_Mod_range_hashingENSA_20_Default_ranged_hashENSA_20_Prime_rehash_policyENSA_17_Hashtable_traitsILb0ELb0ELb1EEEE5clearEv
FN:2026,_ZNSt10_HashtableImSt4pairIKmSt6vectorIS0_IbN11MetaPhysicL10DualNumberIdNS3_28SemiDynamicSparseNumberArrayIdmNS3_8NWrapperILm53EEEEELb1EEEESaISA_EEESaISD_ENSt8__detail10_Select1stESt8equal_toImESt4hashImENSF_18_Mod_range_hashingENSF_20_Default_ranged_hashENSF_20_Prime_rehash_policyENSF_17_Hashtable_traitsILb0ELb0ELb1EEEE5clearEv
FNDA:0,_ZNSt10_HashtableImSt4pairIKmSt6vectorIS0_IbN11MetaPhysicL10DualNumberIdNS3_28SemiDynamicSparseNumberArrayIdmNS3_8NWrapperILm53EEEEELb1EEEESaISA_EEESaISD_ENSt8__detail10_Select1stESt8equal_toImESt4hashImENSF_18_Mod_range_hashingENSF_20_Default_ranged_hashENSF_20_Prime_rehash_policyENSF_17_Hashtable_traitsILb0ELb0ELb1EEEE5clearEv
FN:2026,_ZNSt10_HashtableImSt4pairIKmSt6vectorIS2_IS0_IbN11MetaPhysicL10DualNumberIdNS3_28SemiDynamicSparseNumberArrayIdmNS3_8NWrapperILm53EEEEELb1EEEESaISA_EESaISC_EEESaISF_ENSt8__detail10_Select1stESt8equal_toImESt4hashImENSH_18_Mod_range_hashingENSH_20_Default_ranged_hashENSH_20_Prime_rehash_policyENSH_17_Hashtable_traitsILb0ELb0ELb1EEEE5clearEv
FNDA:0,_ZNSt10_HashtableImSt4pairIKmSt6vectorIS2_IS0_IbN11MetaPhysicL10DualNumberIdNS3_28SemiDynamicSparseNumberArrayIdmNS3_8NWrapperILm53EEEEELb1EEEESaISA_EESaISC_EEESaISF_ENSt8__detail10_Select1stESt8equal_toImESt4hashImENSH_18_Mod_range_hashingENSH_20_Default_ranged_hashENSH_20_Prime_rehash_policyENSH_17_Hashtable_traitsILb0ELb0ELb1EEEE5clearEv
FN:2026,_ZNSt10_HashtableINSt7__cxx1112basic_stringIcSt11char_traitsIcESaIcEEESt4pairIKS5_S5_ESaIS8_ENSt8__detail10_Select1stESt8equal_toIS5_ESt4hashIS5_ENSA_18_Mod_range_hashingENSA_20_Default_ranged_hashENSA_20_Prime_rehash_policyENSA_17_Hashtable_traitsILb1ELb0ELb1EEEE5clearEv
FNDA:0,_ZNSt10_HashtableINSt7__cxx1112basic_stringIcSt11char_traitsIcESaIcEEESt4pairIKS5_S5_ESaIS8_ENSt8__detail10_Select1stESt8equal_toIS5_ESt4hashIS5_ENSA_18_Mod_range_hashingENSA_20_Default_ranged_hashENSA_20_Prime_rehash_policyENSA_17_Hashtable_traitsILb1ELb0ELb1EEEE5clearEv
FN:2064,_ZNSt10_HashtableImSt4pairIKmSt6vectorIS0_IbN11MetaPhysicL10DualNumberIdNS3_28SemiDynamicSparseNumberArrayIdmNS3_8NWrapperILm53EEEEELb1EEEESaISA_EEESaISD_ENSt8__detail10_Select1stESt8equal_toImESt4hashImENSF_18_Mod_range_hashingENSF_20_Default_ranged_hashENSF_20_Prime_rehash_policyENSF_17_Hashtable_traitsILb0ELb0ELb1EEEE9_M_rehashEmRS1_
FNDA:0,_ZNSt10_HashtableImSt4pairIKmSt6vectorIS0_IbN11MetaPhysicL10DualNumberIdNS3_28SemiDynamicSparseNumberArrayIdmNS3_8NWrapperILm53EEEEELb1EEEESaISA_EEESaISD_ENSt8__detail10_Select1stESt8equal_toImESt4hashImENSF_18_Mod_range_hashingENSF_20_Default_ranged_hashENSF_20_Prime_rehash_policyENSF_17_Hashtable_traitsILb0ELb0ELb1EEEE9_M_rehashEmRS1_
FN:2064,_ZNSt10_HashtableImSt4pairIKmSt6vectorIS2_IS0_IbN11MetaPhysicL10DualNumberIdNS3_28SemiDynamicSparseNumberArrayIdmNS3_8NWrapperILm53EEEEELb1EEEESaISA_EESaISC_EEESaISF_ENSt8__detail10_Select1stESt8equal_toImESt4hashImENSH_18_Mod_range_hashingENSH_20_Default_ranged_hashENSH_20_Prime_rehash_policyENSH_17_Hashtable_traitsILb0ELb0ELb1EEEE9_M_rehashEmRS1_
FNDA:0,_ZNSt10_HashtableImSt4pairIKmSt6vectorIS2_IS0_IbN11MetaPhysicL10DualNumberIdNS3_28SemiDynamicSparseNumberArrayIdmNS3_8NWrapperILm53EEEEELb1EEEESaISA_EESaISC_EEESaISF_ENSt8__detail10_Select1stESt8equal_toImESt4hashImENSH_18_Mod_range_hashingENSH_20_Default_ranged_hashENSH_20_Prime_rehash_policyENSH_17_Hashtable_traitsILb0ELb0ELb1EEEE9_M_rehashEmRS1_
FN:2064,_ZNSt10_HashtableImSt4pairIKmSt6vectorIS0_IbdESaIS3_EEESaIS6_ENSt8__detail10_Select1stESt8equal_toImESt4hashImENS8_18_Mod_range_hashingENS8_20_Default_ranged_hashENS8_20_Prime_rehash_policyENS8_17_Hashtable_traitsILb0ELb0ELb1EEEE9_M_rehashEmRS1_
FNDA:0,_ZNSt10_HashtableImSt4pairIKmSt6vectorIS0_IbdESaIS3_EEESaIS6_ENSt8__detail10_Select1stESt8equal_toImESt4hashImENS8_18_Mod_range_hashingENS8_20_Default_ranged_hashENS8_20_Prime_rehash_policyENS8_17_Hashtable_traitsILb0ELb0ELb1EEEE9_M_rehashEmRS1_
FN:2064,_ZNSt10_HashtableImSt4pairIKmSt6vectorIS2_IS0_IbdESaIS3_EESaIS5_EEESaIS8_ENSt8__detail10_Select1stESt8equal_toImESt4hashImENSA_18_Mod_range_hashingENSA_20_Default_ranged_hashENSA_20_Prime_rehash_policyENSA_17_Hashtable_traitsILb0ELb0ELb1EEEE9_M_rehashEmRS1_
FNDA:0,_ZNSt10_HashtableImSt4pairIKmSt6vectorIS2_IS0_IbdESaIS3_EESaIS5_EEESaIS8_ENSt8__detail10_Select1stESt8equal_toImESt4hashImENSA_18_Mod_range_hashingENSA_20_Default_ranged_hashENSA_20_Prime_rehash_policyENSA_17_Hashtable_traitsILb0ELb0ELb1EEEE9_M_rehashEmRS1_
FN:2087,_ZNSt10_HashtableImSt4pairIKmSt6vectorIS0_IbN11MetaPhysicL10DualNumberIdNS3_28SemiDynamicSparseNumberArrayIdmNS3_8NWrapperILm53EEEEELb1EEEESaISA_EEESaISD_ENSt8__detail10_Select1stESt8equal_toImESt4hashImENSF_18_Mod_range_hashingENSF_20_Default_ranged_hashENSF_20_Prime_rehash_policyENSF_17_Hashtable_traitsILb0ELb0ELb1EEEE13_M_rehash_auxEmSt17integral_constantIbLb1EE
FNDA:0,_ZNSt10_HashtableImSt4pairIKmSt6vectorIS0_IbN11MetaPhysicL10DualNumberIdNS3_28SemiDynamicSparseNumberArrayIdmNS3_8NWrapperILm53EEEEELb1EEEESaISA_EEESaISD_ENSt8__detail10_Select1stESt8equal_toImESt4hashImENSF_18_Mod_range_hashingENSF_20_Default_ranged_hashENSF_20_Prime_rehash_policyENSF_17_Hashtable_traitsILb0ELb0ELb1EEEE13_M_rehash_auxEmSt17integral_constantIbLb1EE
FN:2087,_ZNSt10_HashtableImSt4pairIKmSt6vectorIS2_IS0_IbN11MetaPhysicL10DualNumberIdNS3_28SemiDynamicSparseNumberArrayIdmNS3_8NWrapperILm53EEEEELb1EEEESaISA_EESaISC_EEESaISF_ENSt8__detail10_Select1stESt8equal_toImESt4hashImENSH_18_Mod_range_hashingENSH_20_Default_ranged_hashENSH_20_Prime_rehash_policyENSH_17_Hashtable_traitsILb0ELb0ELb1EEEE13_M_rehash_auxEmSt17integral_constantIbLb1EE
FNDA:0,_ZNSt10_HashtableImSt4pairIKmSt6vectorIS2_IS0_IbN11MetaPhysicL10DualNumberIdNS3_28SemiDynamicSparseNumberArrayIdmNS3_8NWrapperILm53EEEEELb1EEEESaISA_EESaISC_EEESaISF_ENSt8__detail10_Select1stESt8equal_toImESt4hashImENSH_18_Mod_range_hashingENSH_20_Default_ranged_hashENSH_20_Prime_rehash_policyENSH_17_Hashtable_traitsILb0ELb0ELb1EEEE13_M_rehash_auxEmSt17integral_constantIbLb1EE
FN:2087,_ZNSt10_HashtableImSt4pairIKmSt6vectorIS0_IbdESaIS3_EEESaIS6_ENSt8__detail10_Select1stESt8equal_toImESt4hashImENS8_18_Mod_range_hashingENS8_20_Default_ranged_hashENS8_20_Prime_rehash_policyENS8_17_Hashtable_traitsILb0ELb0ELb1EEEE13_M_rehash_auxEmSt17integral_constantIbLb1EE
FNDA:0,_ZNSt10_HashtableImSt4pairIKmSt6vectorIS0_IbdESaIS3_EEESaIS6_ENSt8__detail10_Select1stESt8equal_toImESt4hashImENS8_18_Mod_range_hashingENS8_20_Default_ranged_hashENS8_20_Prime_rehash_policyENS8_17_Hashtable_traitsILb0ELb0ELb1EEEE13_M_rehash_auxEmSt17integral_constantIbLb1EE
FN:2087,_ZNSt10_HashtableImSt4pairIKmSt6vectorIS2_IS0_IbdESaIS3_EESaIS5_EEESaIS8_ENSt8__detail10_Select1stESt8equal_toImESt4hashImENSA_18_Mod_range_hashingENSA_20_Default_ranged_hashENSA_20_Prime_rehash_policyENSA_17_Hashtable_traitsILb0ELb0ELb1EEEE13_M_rehash_auxEmSt17integral_constantIbLb1EE
FNDA:0,_ZNSt10_HashtableImSt4pairIKmSt6vectorIS2_IS0_IbdESaIS3_EESaIS5_EEESaIS8_ENSt8__detail10_Select1stESt8equal_toImESt4hashImENSA_18_Mod_range_hashingENSA_20_Default_ranged_hashENSA_20_Prime_rehash_policyENSA_17_Hashtable_traitsILb0ELb0ELb1EEEE13_M_rehash_auxEmSt17integral_constantIbLb1EE
FNF:52
FNH:0
DA:270,0
DA:272,0
DA:276,0
DA:276,0
DA:276,0
DA:276,0
DA:380,0
DA:392,0
DA:394,0
DA:395,0
DA:398,0
DA:404,0
DA:411,0
DA:412,0
DA:411,0
DA:412,0
DA:411,0
DA:412,0
DA:411,0
DA:412,0
DA:411,0
DA:412,0
DA:411,0
DA:412,0
DA:411,0
DA:412,0
DA:411,0
DA:412,0
DA:411,0
DA:412,0
DA:411,0
DA:412,0
DA:411,0
DA:412,0
DA:411,0
DA:412,0
DA:411,0
DA:412,0
DA:411,0
DA:412,0
DA:421,0
DA:678,0
DA:682,0
DA:693,0
DA:694,0
DA:695,0
DA:1387,0
DA:1388,0
DA:1567,0
DA:1573,0
DA:1574,0
DA:1577,0
DA:1581,0
DA:1583,0
DA:1567,0
DA:1573,0
DA:1574,0
DA:1577,0
DA:1581,0
DA:1583,0
DA:1567,0
DA:1573,0
DA:1574,0
DA:1577,0
DA:1581,0
DA:1583,0
DA:1567,0
DA:1573,0
DA:1574,0
DA:1577,0
DA:1581,0
DA:1583,0
DA:1595,0
DA:1599,0
DA:1603,0
DA:1604,0
DA:1611,0
DA:1612,0
DA:1613,0
DA:1616,0
DA:1617,0
DA:1619,0
DA:1595,0
DA:1599,0
DA:1603,0
DA:1604,0
DA:1611,0
DA:1612,0
DA:1613,0
DA:1616,0
DA:1617,0
DA:1619,0
DA:1595,0
DA:1599,0
DA:1603,0
DA:1604,0
DA:1611,0
DA:1612,0
DA:1613,0
DA:1616,0
DA:1617,0
DA:1619,0
DA:1595,0
DA:1599,0
DA:1603,0
DA:1604,0
DA:1611,0
DA:1612,0
DA:1613,0
DA:1616,0
DA:1617,0
DA:1619,0
DA:1714,0
DA:1721,0
DA:1723,0
DA:1726,0
DA:1728,0
DA:1735,0
DA:1736,0
DA:1737,0
DA:1714,0
DA:1721,0
DA:1723,0
DA:1726,0
DA:1728,0
DA:1735,0
DA:1736,0
DA:1737,0
DA:1714,0
DA:1721,0
DA:1723,0
DA:1726,0
DA:1728,0
DA:1735,0
DA:1736,0
DA:1737,0
DA:1714,0
DA:1721,0
DA:1723,0
DA:1726,0
DA:1728,0
DA:1735,0
DA:1736,0
DA:1737,0
DA:2026,0
DA:2031,0
DA:2032,0
DA:2033,0
DA:2034,0
DA:2026,0
DA:2030,0
DA:2031,0
DA:2032,0
DA:2033,0
DA:2034,0
DA:2026,0
DA:2030,0
DA:2031,0
DA:2032,0
DA:2033,0
DA:2034,0
DA:2026,0
DA:2030,0
DA:2031,0
DA:2032,0
DA:2033,0
DA:2034,0
DA:2026,0
DA:2030,0
DA:2031,0
DA:2032,0
DA:2033,0
DA:2034,0
DA:2026,0
DA:2031,0
DA:2032,0
DA:2033,0
DA:2034,0
DA:2026,0
DA:2031,0
DA:2032,0
DA:2033,0
DA:2034,0
DA:2026,0
DA:2031,0
DA:2032,0
DA:2033,0
DA:2034,0
DA:2026,0
DA:2031,0
DA:2032,0
DA:2033,0
DA:2034,0
DA:2026,0
DA:2031,0
DA:2032,0
DA:2033,0
DA:2034,0
DA:2026,0
DA:2031,0
DA:2032,0
DA:2033,0
DA:2034,0
DA:2026,0
DA:2031,0
DA:2032,0
DA:2033,0
DA:2034,0
DA:2026,0
DA:2031,0
DA:2032,0
DA:2033,0
DA:2034,0
DA:2026,0
DA:2031,0
DA:2032,0
DA:2033,0
DA:2034,0
DA:2064,0
DA:2070,0
DA:2072,0
DA:2076,0
DA:2077,0
DA:2079,0
DA:2064,0
DA:2070,0
DA:2072,0
DA:2076,0
DA:2077,0
DA:2079,0
DA:2064,0
DA:2070,0
DA:2072,0
DA:2076,0
DA:2077,0
DA:2079,0
DA:2064,0
DA:2070,0
DA:2072,0
DA:2076,0
DA:2077,0
DA:2079,0
DA:2087,0
DA:2093,0
DA:2095,0
DA:2100,0
DA:2102,0
DA:2103,0
DA:2104,0
DA:2105,0
DA:2106,0
DA:2111,0
DA:2112,0
DA:2117,0
DA:2118,0
DA:2119,0
DA:2120,0
DA:2087,0
DA:2093,0
DA:2095,0
DA:2100,0
DA:2102,0
DA:2103,0
DA:2104,0
DA:2105,0
DA:2106,0
DA:2111,0
DA:2112,0
DA:2117,0
DA:2118,0
DA:2119,0
DA:2120,0
DA:2087,0
DA:2093,0
DA:2095,0
DA:2100,0
DA:2102,0
DA:2103,0
DA:2104,0
DA:2105,0
DA:2106,0
DA:2111,0
DA:2112,0
DA:2117,0
DA:2118,0
DA:2119,0
DA:2120,0
DA:2087,0
DA:2093,0
DA:2095,0
DA:2100,0
DA:2102,0
DA:2103,0
DA:2104,0
DA:2105,0
DA:2106,0
DA:2111,0
DA:2112,0
DA:2117,0
DA:2118,0
DA:2119,0
DA:2120,0
LF:302
LH:0
end_of_record
SF:/usr/share/miniconda/envs/moose/x86_64-conda-linux-gnu/include/c++/10.3.0/bits/unordered_map.h
DA:102,0
DA:984,0
LF:2
LH:0
end_of_record
SF:/usr/share/miniconda/envs/moose/x86_64-conda-linux-gnu/include/c++/10.3.0/bits/stl_function.h
FN:600,_ZNSt4lessIvE6_S_cmpIRKNSt7__cxx1112basic_stringIcSt11char_traitsIcESaIcEEERKSt17basic_string_viewIcS5_EEEDcOT_OT0_St17integral_constantIbLb0EE
FNDA:0,_ZNSt4lessIvE6_S_cmpIRKNSt7__cxx1112basic_stringIcSt11char_traitsIcESaIcEEERKSt17basic_string_viewIcS5_EEEDcOT_OT0_St17integral_constantIbLb0EE
FN:600,_ZNSt4lessIvE6_S_cmpIRKSt17basic_string_viewIcSt11char_traitsIcEERKNSt7__cxx1112basic_stringIcS4_SaIcEEEEEDcOT_OT0_St17integral_constantIbLb0EE
FNDA:0,_ZNSt4lessIvE6_S_cmpIRKSt17basic_string_viewIcSt11char_traitsIcEERKNSt7__cxx1112basic_stringIcS4_SaIcEEEEEDcOT_OT0_St17integral_constantIbLb0EE
FNF:2
FNH:0
DA:356,0
DA:386,0
DA:586,0
DA:600,0
DA:601,0
DA:600,0
DA:601,0
DA:1156,0
LF:8
LH:0
end_of_record
SF:/home/runner/work/raccoon/raccoon/moose/framework/build/header_symlinks/Function.h
FN:140,_ZNK13FunctionTemplIdE9hasBlocksERKt
FNDA:0,_ZNK13FunctionTemplIdE9hasBlocksERKt
FNF:1
FNH:0
DA:140,0
LF:1
LH:0
end_of_record
SF:/home/runner/work/raccoon/raccoon/moose/framework/build/header_symlinks/MooseObject.h
FN:66,_ZNK11MooseObject4nameB5cxx11Ev
FNDA:0,_ZNK11MooseObject4nameB5cxx11Ev
FN:119,_ZNK11MooseObject7enabledEv
FNDA:0,_ZNK11MooseObject7enabledEv
FN:153,_ZNK11MooseObject10mooseErrorIJRA117_KcEEEvDpOT_
FNDA:0,_ZNK11MooseObject10mooseErrorIJRA117_KcEEEvDpOT_
FN:153,_ZNK11MooseObject10mooseErrorIJRA105_KcEEEvDpOT_
FNDA:0,_ZNK11MooseObject10mooseErrorIJRA105_KcEEEvDpOT_
FN:229,_ZNK11MooseObject13paramErrorMsgIJNSt7__cxx1112basic_stringIcSt11char_traitsIcESaIcEEEEEES6_RKS6_DpT_
FNDA:0,_ZNK11MooseObject13paramErrorMsgIJNSt7__cxx1112basic_stringIcSt11char_traitsIcESaIcEEEEEES6_RKS6_DpT_
FN:258,_ZNK11MooseObject8getParamISt6vectorI12FunctionNameSaIS2_EEEERKT_RKNSt7__cxx1112basic_stringIcSt11char_traitsIcESaIcEEE
FNDA:3,_ZNK11MooseObject8getParamISt6vectorI12FunctionNameSaIS2_EEEERKT_RKNSt7__cxx1112basic_stringIcSt11char_traitsIcESaIcEEE
FN:265,_ZNK11MooseObject10paramErrorIJNSt7__cxx1112basic_stringIcSt11char_traitsIcESaIcEEEEEEvRKS6_DpT_
FNDA:0,_ZNK11MooseObject10paramErrorIJNSt7__cxx1112basic_stringIcSt11char_traitsIcESaIcEEEEEEvRKS6_DpT_
FNF:7
FNH:1
DA:66,0
DA:119,0
DA:153,0
DA:155,0
DA:156,0
DA:158,0
DA:153,0
DA:155,0
DA:156,0
DA:158,0
DA:229,0
DA:231,0
DA:234,0
DA:235,0
DA:237,0
DA:238,0
DA:245,0
DA:246,0
DA:248,0
DA:250,0
DA:252,0
DA:258,3
DA:260,30
DA:265,0
DA:267,0
DA:268,0
DA:269,0
LF:27
LH:2
end_of_record
SF:/home/runner/work/raccoon/raccoon/build/header_symlinks/ArrheniusLaw.h
LF:0
LH:0
end_of_record
SF:/home/runner/work/raccoon/raccoon/build/header_symlinks/BaseNameInterface.h
FN:15,_ZN17BaseNameInterfaceD0Ev
FNDA:0,_ZN17BaseNameInterfaceD0Ev
FN:15,_ZN17BaseNameInterfaceD2Ev
FNDA:0,_ZN17BaseNameInterfaceD2Ev
FNF:2
FNH:0
DA:15,0
DA:15,0
DA:15,0
LF:3
LH:0
end_of_record
SF:/home/runner/work/raccoon/raccoon/moose/framework/build/header_symlinks/MooseError.h
FN:155,_ZN5moose8internal14mooseStreamAllINSt7__cxx1112basic_stringIcSt11char_traitsIcESaIcEEEJRA2_KcEEEvRNS2_19basic_ostringstreamIcS5_S6_EEOT_DpOT0_
FNDA:0,_ZN5moose8internal14mooseStreamAllINSt7__cxx1112basic_stringIcSt11char_traitsIcESaIcEEEJRA2_KcEEEvRNS2_19basic_ostringstreamIcS5_S6_EEOT_DpOT0_
FN:155,_ZN5moose8internal14mooseStreamAllINSt7__cxx1112basic_stringIcSt11char_traitsIcESaIcEEEJRA45_KcS7_RA2_S8_EEEvRNS2_19basic_ostringstreamIcS5_S6_EEOT_DpOT0_
FNDA:0,_ZN5moose8internal14mooseStreamAllINSt7__cxx1112basic_stringIcSt11char_traitsIcESaIcEEEJRA45_KcS7_RA2_S8_EEEvRNS2_19basic_ostringstreamIcS5_S6_EEOT_DpOT0_
FN:155,_ZN5moose8internal14mooseStreamAllIRKNSt7__cxx1112basic_stringIcSt11char_traitsIcESaIcEEEJRA40_KcEEEvRNS2_19basic_ostringstreamIcS5_S6_EEOT_DpOT0_
FNDA:0,_ZN5moose8internal14mooseStreamAllIRKNSt7__cxx1112basic_stringIcSt11char_traitsIcESaIcEEEJRA40_KcEEEvRNS2_19basic_ostringstreamIcS5_S6_EEOT_DpOT0_
FN:155,_ZN5moose8internal14mooseStreamAllIRKNSt7__cxx1112basic_stringIcSt11char_traitsIcESaIcEEEJRA14_KcS7_RA45_SA_S7_RA2_SA_EEEvRNS2_19basic_ostringstreamIcS5_S6_EEOT_DpOT0_
FNDA:0,_ZN5moose8internal14mooseStreamAllIRKNSt7__cxx1112basic_stringIcSt11char_traitsIcESaIcEEEJRA14_KcS7_RA45_SA_S7_RA2_SA_EEEvRNS2_19basic_ostringstreamIcS5_S6_EEOT_DpOT0_
FN:155,_ZN5moose8internal14mooseStreamAllINSt7__cxx1112basic_stringIcSt11char_traitsIcESaIcEEEJEEEvRNS2_19basic_ostringstreamIcS5_S6_EEOT_DpOT0_
FNDA:0,_ZN5moose8internal14mooseStreamAllINSt7__cxx1112basic_stringIcSt11char_traitsIcESaIcEEEJEEEvRNS2_19basic_ostringstreamIcS5_S6_EEOT_DpOT0_
FN:155,_ZN5moose8internal14mooseStreamAllIRKNSt7__cxx1112basic_stringIcSt11char_traitsIcESaIcEEEJRA29_KcEEEvRNS2_19basic_ostringstreamIcS5_S6_EEOT_DpOT0_
FNDA:0,_ZN5moose8internal14mooseStreamAllIRKNSt7__cxx1112basic_stringIcSt11char_traitsIcESaIcEEEJRA29_KcEEEvRNS2_19basic_ostringstreamIcS5_S6_EEOT_DpOT0_
FN:155,_ZN5moose8internal14mooseStreamAllINSt7__cxx1112basic_stringIcSt11char_traitsIcESaIcEEEJRA117_KcEEEvRNS2_19basic_ostringstreamIcS5_S6_EEOT_DpOT0_
FNDA:0,_ZN5moose8internal14mooseStreamAllINSt7__cxx1112basic_stringIcSt11char_traitsIcESaIcEEEJRA117_KcEEEvRNS2_19basic_ostringstreamIcS5_S6_EEOT_DpOT0_
FN:155,_ZN5moose8internal14mooseStreamAllINSt7__cxx1112basic_stringIcSt11char_traitsIcESaIcEEEJRA105_KcEEEvRNS2_19basic_ostringstreamIcS5_S6_EEOT_DpOT0_
FNDA:0,_ZN5moose8internal14mooseStreamAllINSt7__cxx1112basic_stringIcSt11char_traitsIcESaIcEEEJRA105_KcEEEvRNS2_19basic_ostringstreamIcS5_S6_EEOT_DpOT0_
FN:254,_Z10mooseErrorIJRA16_KcEEvDpOT_
FNDA:0,_Z10mooseErrorIJRA16_KcEEvDpOT_
FN:254,_Z10mooseErrorIJNSt7__cxx1112basic_stringIcSt11char_traitsIcESaIcEEEEEvDpOT_
FNDA:0,_Z10mooseErrorIJNSt7__cxx1112basic_stringIcSt11char_traitsIcESaIcEEEEEvDpOT_
FN:254,_Z10mooseErrorIJRA16_KcRKNSt7__cxx1112basic_stringIcSt11char_traitsIcESaIcEEERA40_S0_EEvDpOT_
FNDA:0,_Z10mooseErrorIJRA16_KcRKNSt7__cxx1112basic_stringIcSt11char_traitsIcESaIcEEERA40_S0_EEvDpOT_
FN:254,_Z10mooseErrorIJRA30_KcRKNSt7__cxx1112basic_stringIcSt11char_traitsIcESaIcEEERA14_S0_S8_RA45_S0_S8_RA2_S0_EEvDpOT_
FNDA:0,_Z10mooseErrorIJRA30_KcRKNSt7__cxx1112basic_stringIcSt11char_traitsIcESaIcEEERA14_S0_S8_RA45_S0_S8_RA2_S0_EEvDpOT_
FN:254,_Z10mooseErrorIJRA8_KcRKNSt7__cxx1112basic_stringIcSt11char_traitsIcESaIcEEERA29_S0_EEvDpOT_
FNDA:0,_Z10mooseErrorIJRA8_KcRKNSt7__cxx1112basic_stringIcSt11char_traitsIcESaIcEEERA29_S0_EEvDpOT_
FNF:13
FNH:0
DA:155,0
DA:157,0
DA:158,0
DA:159,0
DA:155,0
DA:157,0
DA:158,0
DA:159,0
DA:155,0
DA:157,0
DA:158,0
DA:159,0
DA:155,0
DA:157,0
DA:158,0
DA:159,0
DA:155,0
DA:157,0
DA:158,0
DA:159,0
DA:155,0
DA:157,0
DA:158,0
DA:159,0
DA:155,0
DA:157,0
DA:158,0
DA:159,0
DA:155,0
DA:157,0
DA:158,0
DA:159,0
DA:157,0
DA:158,0
DA:159,0
DA:254,0
DA:256,0
DA:258,0
DA:254,0
DA:256,0
DA:257,0
DA:258,0
DA:254,0
DA:256,0
DA:258,0
DA:254,0
DA:256,0
DA:258,0
DA:254,0
DA:256,0
DA:258,0
LF:51
LH:0
end_of_record
SF:/usr/share/miniconda/envs/moose/x86_64-conda-linux-gnu/include/c++/10.3.0/cmath
DA:418,83712
LF:1
LH:1
end_of_record
SF:/usr/share/miniconda/envs/moose/x86_64-conda-linux-gnu/include/c++/10.3.0/bits/stl_pair.h
DA:211,1677
DA:314,0
DA:315,0
DA:337,0
DA:353,1197
DA:395,0
DA:396,0
DA:408,0
DA:409,0
LF:9
LH:2
end_of_record
SF:/usr/share/miniconda/envs/moose/x86_64-conda-linux-gnu/include/c++/10.3.0/bits/basic_string.tcc
FN:206,_ZNSt7__cxx1112basic_stringIcSt11char_traitsIcESaIcEE12_M_constructIPcEEvT_S7_St20forward_iterator_tag
FNDA:15528,_ZNSt7__cxx1112basic_stringIcSt11char_traitsIcESaIcEE12_M_constructIPcEEvT_S7_St20forward_iterator_tag
FN:206,_ZNSt7__cxx1112basic_stringIcSt11char_traitsIcESaIcEE12_M_constructIPKcEEvT_S8_St20forward_iterator_tag
FNDA:17861,_ZNSt7__cxx1112basic_stringIcSt11char_traitsIcESaIcEE12_M_constructIPKcEEvT_S8_St20forward_iterator_tag
FN:1152,_ZStplIcSt11char_traitsIcESaIcEENSt7__cxx1112basic_stringIT_T0_T1_EEPKS5_RKS8_
FNDA:0,_ZStplIcSt11char_traitsIcESaIcEENSt7__cxx1112basic_stringIT_T0_T1_EEPKS5_RKS8_
FNF:3
FNH:2
DA:206,15528
DA:211,15528
DA:212,0
DA:215,15528
DA:217,15528
DA:219,1932
DA:220,1932
DA:232,15528
DA:233,15528
DA:206,17861
DA:211,17861
DA:212,0
DA:215,17861
DA:217,17861
DA:219,9050
DA:220,9050
DA:232,17861
DA:233,17861
DA:1152,0
DA:1164,0
DA:1165,0
DA:1167,0
LF:22
LH:16
end_of_record
SF:/home/runner/work/raccoon/raccoon/moose/framework/build/header_symlinks/MooseVariableBase.h
FN:67,_ZNK17MooseVariableBase4nameB5cxx11Ev
FNDA:0,_ZNK17MooseVariableBase4nameB5cxx11Ev
FNF:1
FNH:0
DA:67,0
LF:1
LH:0
end_of_record
SF:/usr/share/miniconda/envs/moose/libmesh/include/libmesh/parallel_object.h
LF:0
LH:0
end_of_record
SF:/home/runner/work/raccoon/raccoon/moose/framework/build/header_symlinks/Restartable.h
FN:64,_ZN11RestartableD0Ev
FNDA:0,_ZN11RestartableD0Ev
FN:64,_ZN11RestartableD2Ev
FNDA:609,_ZN11RestartableD2Ev
FNF:2
FNH:1
DA:64,0
DA:64,609
LF:2
LH:1
end_of_record
SF:/usr/share/miniconda/envs/moose/x86_64-conda-linux-gnu/include/c++/10.3.0/bits/stl_map.h
FN:492,_ZNSt3mapINSt7__cxx1112basic_stringIcSt11char_traitsIcESaIcEEEPN7libMesh10Parameters5ValueESt4lessIvESaISt4pairIKS5_S9_EEEixERSD_
FNDA:0,_ZNSt3mapINSt7__cxx1112basic_stringIcSt11char_traitsIcESaIcEEEPN7libMesh10Parameters5ValueESt4lessIvESaISt4pairIKS5_S9_EEEixERSD_
FN:492,_ZNSt3mapINSt7__cxx1112basic_stringIcSt11char_traitsIcESaIcEEEN15InputParameters8MetadataESt4lessIS5_ESaISt4pairIKS5_S7_EEEixERSB_
FNDA:0,_ZNSt3mapINSt7__cxx1112basic_stringIcSt11char_traitsIcESaIcEEEN15InputParameters8MetadataESt4lessIS5_ESaISt4pairIKS5_S7_EEEixERSB_
FN:546,_ZNKSt3mapINSt7__cxx1112basic_stringIcSt11char_traitsIcESaIcEEEN15InputParameters8MetadataESt4lessIS5_ESaISt4pairIKS5_S7_EEE2atERSB_
FNDA:0,_ZNKSt3mapINSt7__cxx1112basic_stringIcSt11char_traitsIcESaIcEEEN15InputParameters8MetadataESt4lessIS5_ESaISt4pairIKS5_S7_EEE2atERSB_
FN:691,_ZNSt3mapIN5Moose7ElemArgEdSt4lessIS1_ESaISt4pairIKS1_dEEE11try_emplaceIJdEEES4_ISt17_Rb_tree_iteratorIS6_EbERS5_DpOT_
FNDA:0,_ZNSt3mapIN5Moose7ElemArgEdSt4lessIS1_ESaISt4pairIKS1_dEEE11try_emplaceIJdEEES4_ISt17_Rb_tree_iteratorIS6_EbERS5_DpOT_
FN:691,_ZNSt3mapIN5Moose7ElemArgEN11MetaPhysicL10DualNumberIdNS2_28SemiDynamicSparseNumberArrayIdmNS2_8NWrapperILm53EEEEELb1EEESt4lessIS1_ESaISt4pairIKS1_S8_EEE11try_emplaceIJS8_EEESB_ISt17_Rb_tree_iteratorISD_EbERSC_DpOT_
FNDA:0,_ZNSt3mapIN5Moose7ElemArgEN11MetaPhysicL10DualNumberIdNS2_28SemiDynamicSparseNumberArrayIdmNS2_8NWrapperILm53EEEEELb1EEESt4lessIS1_ESaISt4pairIKS1_S8_EEE11try_emplaceIJS8_EEESB_ISt17_Rb_tree_iteratorISD_EbERSC_DpOT_
FN:691,_ZNSt3mapIN5Moose15ElemFromFaceArgEN11MetaPhysicL10DualNumberIdNS2_28SemiDynamicSparseNumberArrayIdmNS2_8NWrapperILm53EEEEELb1EEESt4lessIS1_ESaISt4pairIKS1_S8_EEE11try_emplaceIJS8_EEESB_ISt17_Rb_tree_iteratorISD_EbERSC_DpOT_
FNDA:0,_ZNSt3mapIN5Moose15ElemFromFaceArgEN11MetaPhysicL10DualNumberIdNS2_28SemiDynamicSparseNumberArrayIdmNS2_8NWrapperILm53EEEEELb1EEESt4lessIS1_ESaISt4pairIKS1_S8_EEE11try_emplaceIJS8_EEESB_ISt17_Rb_tree_iteratorISD_EbERSC_DpOT_
FN:691,_ZNSt3mapIN5Moose7FaceArgEN11MetaPhysicL10DualNumberIdNS2_28SemiDynamicSparseNumberArrayIdmNS2_8NWrapperILm53EEEEELb1EEESt4lessIS1_ESaISt4pairIKS1_S8_EEE11try_emplaceIJS8_EEESB_ISt17_Rb_tree_iteratorISD_EbERSC_DpOT_
FNDA:0,_ZNSt3mapIN5Moose7FaceArgEN11MetaPhysicL10DualNumberIdNS2_28SemiDynamicSparseNumberArrayIdmNS2_8NWrapperILm53EEEEELb1EEESt4lessIS1_ESaISt4pairIKS1_S8_EEE11try_emplaceIJS8_EEESB_ISt17_Rb_tree_iteratorISD_EbERSC_DpOT_
FN:691,_ZNSt3mapIN5Moose18SingleSidedFaceArgEN11MetaPhysicL10DualNumberIdNS2_28SemiDynamicSparseNumberArrayIdmNS2_8NWrapperILm53EEEEELb1EEESt4lessIS1_ESaISt4pairIKS1_S8_EEE11try_emplaceIJS8_EEESB_ISt17_Rb_tree_iteratorISD_EbERSC_DpOT_
FNDA:0,_ZNSt3mapIN5Moose18SingleSidedFaceArgEN11MetaPhysicL10DualNumberIdNS2_28SemiDynamicSparseNumberArrayIdmNS2_8NWrapperILm53EEEEELb1EEESt4lessIS1_ESaISt4pairIKS1_S8_EEE11try_emplaceIJS8_EEESB_ISt17_Rb_tree_iteratorISD_EbERSC_DpOT_
FN:691,_ZNSt3mapIN5Moose15ElemFromFaceArgEdSt4lessIS1_ESaISt4pairIKS1_dEEE11try_emplaceIJdEEES4_ISt17_Rb_tree_iteratorIS6_EbERS5_DpOT_
FNDA:0,_ZNSt3mapIN5Moose15ElemFromFaceArgEdSt4lessIS1_ESaISt4pairIKS1_dEEE11try_emplaceIJdEEES4_ISt17_Rb_tree_iteratorIS6_EbERS5_DpOT_
FN:691,_ZNSt3mapIN5Moose7FaceArgEdSt4lessIS1_ESaISt4pairIKS1_dEEE11try_emplaceIJdEEES4_ISt17_Rb_tree_iteratorIS6_EbERS5_DpOT_
FNDA:0,_ZNSt3mapIN5Moose7FaceArgEdSt4lessIS1_ESaISt4pairIKS1_dEEE11try_emplaceIJdEEES4_ISt17_Rb_tree_iteratorIS6_EbERS5_DpOT_
FN:691,_ZNSt3mapIN5Moose18SingleSidedFaceArgEdSt4lessIS1_ESaISt4pairIKS1_dEEE11try_emplaceIJdEEES4_ISt17_Rb_tree_iteratorIS6_EbERS5_DpOT_
FNDA:0,_ZNSt3mapIN5Moose18SingleSidedFaceArgEdSt4lessIS1_ESaISt4pairIKS1_dEEE11try_emplaceIJdEEES4_ISt17_Rb_tree_iteratorIS6_EbERS5_DpOT_
FN:1258,_ZNSt3mapIN5Moose18SingleSidedFaceArgEdSt4lessIS1_ESaISt4pairIKS1_dEEE11lower_boundERS5_
FNDA:0,_ZNSt3mapIN5Moose18SingleSidedFaceArgEdSt4lessIS1_ESaISt4pairIKS1_dEEE11lower_boundERS5_
FN:1258,_ZNSt3mapIN5Moose7ElemArgEN11MetaPhysicL10DualNumberIdNS2_28SemiDynamicSparseNumberArrayIdmNS2_8NWrapperILm53EEEEELb1EEESt4lessIS1_ESaISt4pairIKS1_S8_EEE11lower_boundERSC_
FNDA:0,_ZNSt3mapIN5Moose7ElemArgEN11MetaPhysicL10DualNumberIdNS2_28SemiDynamicSparseNumberArrayIdmNS2_8NWrapperILm53EEEEELb1EEESt4lessIS1_ESaISt4pairIKS1_S8_EEE11lower_boundERSC_
FN:1258,_ZNSt3mapIN5Moose15ElemFromFaceArgEN11MetaPhysicL10DualNumberIdNS2_28SemiDynamicSparseNumberArrayIdmNS2_8NWrapperILm53EEEEELb1EEESt4lessIS1_ESaISt4pairIKS1_S8_EEE11lower_boundERSC_
FNDA:0,_ZNSt3mapIN5Moose15ElemFromFaceArgEN11MetaPhysicL10DualNumberIdNS2_28SemiDynamicSparseNumberArrayIdmNS2_8NWrapperILm53EEEEELb1EEESt4lessIS1_ESaISt4pairIKS1_S8_EEE11lower_boundERSC_
FN:1258,_ZNSt3mapIN5Moose7FaceArgEN11MetaPhysicL10DualNumberIdNS2_28SemiDynamicSparseNumberArrayIdmNS2_8NWrapperILm53EEEEELb1EEESt4lessIS1_ESaISt4pairIKS1_S8_EEE11lower_boundERSC_
FNDA:0,_ZNSt3mapIN5Moose7FaceArgEN11MetaPhysicL10DualNumberIdNS2_28SemiDynamicSparseNumberArrayIdmNS2_8NWrapperILm53EEEEELb1EEESt4lessIS1_ESaISt4pairIKS1_S8_EEE11lower_boundERSC_
FN:1258,_ZNSt3mapIN5Moose18SingleSidedFaceArgEN11MetaPhysicL10DualNumberIdNS2_28SemiDynamicSparseNumberArrayIdmNS2_8NWrapperILm53EEEEELb1EEESt4lessIS1_ESaISt4pairIKS1_S8_EEE11lower_boundERSC_
FNDA:0,_ZNSt3mapIN5Moose18SingleSidedFaceArgEN11MetaPhysicL10DualNumberIdNS2_28SemiDynamicSparseNumberArrayIdmNS2_8NWrapperILm53EEEEELb1EEESt4lessIS1_ESaISt4pairIKS1_S8_EEE11lower_boundERSC_
FN:1258,_ZNSt3mapINSt7__cxx1112basic_stringIcSt11char_traitsIcESaIcEEEN15InputParameters8MetadataESt4lessIS5_ESaISt4pairIKS5_S7_EEE11lower_boundERSB_
FNDA:0,_ZNSt3mapINSt7__cxx1112basic_stringIcSt11char_traitsIcESaIcEEEN15InputParameters8MetadataESt4lessIS5_ESaISt4pairIKS5_S7_EEE11lower_boundERSB_
FN:1258,_ZNSt3mapINSt7__cxx1112basic_stringIcSt11char_traitsIcESaIcEEEPN7libMesh10Parameters5ValueESt4lessIvESaISt4pairIKS5_S9_EEE11lower_boundERSD_
FNDA:0,_ZNSt3mapINSt7__cxx1112basic_stringIcSt11char_traitsIcESaIcEEEPN7libMesh10Parameters5ValueESt4lessIvESaISt4pairIKS5_S9_EEE11lower_boundERSD_
FN:1258,_ZNSt3mapIN5Moose7ElemArgEdSt4lessIS1_ESaISt4pairIKS1_dEEE11lower_boundERS5_
FNDA:0,_ZNSt3mapIN5Moose7ElemArgEdSt4lessIS1_ESaISt4pairIKS1_dEEE11lower_boundERS5_
FN:1258,_ZNSt3mapIN5Moose15ElemFromFaceArgEdSt4lessIS1_ESaISt4pairIKS1_dEEE11lower_boundERS5_
FNDA:0,_ZNSt3mapIN5Moose15ElemFromFaceArgEdSt4lessIS1_ESaISt4pairIKS1_dEEE11lower_boundERS5_
FN:1258,_ZNSt3mapIN5Moose7FaceArgEdSt4lessIS1_ESaISt4pairIKS1_dEEE11lower_boundERS5_
FNDA:0,_ZNSt3mapIN5Moose7FaceArgEdSt4lessIS1_ESaISt4pairIKS1_dEEE11lower_boundERS5_
FN:1283,_ZNKSt3mapINSt7__cxx1112basic_stringIcSt11char_traitsIcESaIcEEEN15InputParameters8MetadataESt4lessIS5_ESaISt4pairIKS5_S7_EEE11lower_boundERSB_
FNDA:0,_ZNKSt3mapINSt7__cxx1112basic_stringIcSt11char_traitsIcESaIcEEEN15InputParameters8MetadataESt4lessIS5_ESaISt4pairIKS5_S7_EEE11lower_boundERSB_
FNF:22
FNH:0
DA:302,0
DA:492,0
DA:497,0
DA:499,0
DA:501,0
DA:502,0
DA:503,0
DA:507,0
DA:492,0
DA:497,0
DA:499,0
DA:501,0
DA:502,0
DA:503,0
DA:507,0
DA:546,0
DA:548,0
DA:549,0
DA:550,0
DA:551,0
DA:608,0
DA:691,0
DA:693,0
DA:694,0
DA:696,0
DA:700,0
DA:702,0
DA:691,0
DA:693,0
DA:694,0
DA:696,0
DA:700,0
DA:702,0
DA:691,0
DA:693,0
DA:694,0
DA:696,0
DA:700,0
DA:702,0
DA:691,0
DA:693,0
DA:694,0
DA:696,0
DA:700,0
DA:702,0
DA:691,0
DA:693,0
DA:694,0
DA:696,0
DA:700,0
DA:702,0
DA:691,0
DA:693,0
DA:694,0
DA:696,0
DA:700,0
DA:702,0
DA:691,0
DA:693,0
DA:694,0
DA:696,0
DA:700,0
DA:702,0
DA:691,0
DA:693,0
DA:694,0
DA:696,0
DA:700,0
DA:702,0
DA:1038,0
DA:1134,0
DA:1170,0
DA:1195,3792
DA:1201,5032
DA:1216,0
DA:1258,0
DA:1259,0
DA:1258,0
DA:1259,0
DA:1258,0
DA:1259,0
DA:1258,0
DA:1259,0
DA:1258,0
DA:1259,0
DA:1258,0
DA:1259,0
DA:1258,0
DA:1259,0
DA:1258,0
DA:1259,0
DA:1258,0
DA:1259,0
DA:1258,0
DA:1259,0
DA:1283,0
DA:1284,0
LF:97
LH:2
end_of_record
SF:/usr/share/miniconda/envs/moose/libmesh/include/libmesh/remote_elem.h
FN:119,_ZNK7libMesh10RemoteElem7n_nodesEv
FNDA:0,_ZNK7libMesh10RemoteElem7n_nodesEv
FN:122,_ZNK7libMesh10RemoteElem7n_sidesEv
FNDA:0,_ZNK7libMesh10RemoteElem7n_sidesEv
FN:137,_ZNK7libMesh10RemoteElem9is_vertexEj
FNDA:0,_ZNK7libMesh10RemoteElem9is_vertexEj
FN:204,_ZNK7libMesh10RemoteElem13default_orderEv
FNDA:0,_ZNK7libMesh10RemoteElem13default_orderEv
FNF:4
FNH:0
DA:119,0
DA:120,0
DA:122,0
DA:123,0
DA:137,0
DA:138,0
DA:204,0
DA:205,0
LF:8
LH:0
end_of_record
SF:/usr/share/miniconda/envs/moose/x86_64-conda-linux-gnu/include/c++/10.3.0/tuple
FN:1377,_ZNSt15__tuple_compareISt5tupleIJPK8FaceInfoN5Moose2FV11LimiterTypeEbbtEES7_Lm0ELm5EE6__lessERKS7_SA_
FNDA:0,_ZNSt15__tuple_compareISt5tupleIJPK8FaceInfoN5Moose2FV11LimiterTypeEbbtEES7_Lm0ELm5EE6__lessERKS7_SA_
FN:1377,_ZNSt15__tuple_compareISt5tupleIJPK8FaceInfoN5Moose2FV11LimiterTypeEbbtEES7_Lm1ELm5EE6__lessERKS7_SA_
FNDA:0,_ZNSt15__tuple_compareISt5tupleIJPK8FaceInfoN5Moose2FV11LimiterTypeEbbtEES7_Lm1ELm5EE6__lessERKS7_SA_
FN:1377,_ZNSt15__tuple_compareISt5tupleIJPK8FaceInfoN5Moose2FV11LimiterTypeEbbtEES7_Lm2ELm5EE6__lessERKS7_SA_
FNDA:0,_ZNSt15__tuple_compareISt5tupleIJPK8FaceInfoN5Moose2FV11LimiterTypeEbbtEES7_Lm2ELm5EE6__lessERKS7_SA_
FN:1377,_ZNSt15__tuple_compareISt5tupleIJPK8FaceInfoN5Moose2FV11LimiterTypeEbbttEES7_Lm0ELm6EE6__lessERKS7_SA_
FNDA:0,_ZNSt15__tuple_compareISt5tupleIJPK8FaceInfoN5Moose2FV11LimiterTypeEbbttEES7_Lm0ELm6EE6__lessERKS7_SA_
FN:1377,_ZNSt15__tuple_compareISt5tupleIJPK8FaceInfoN5Moose2FV11LimiterTypeEbbttEES7_Lm1ELm6EE6__lessERKS7_SA_
FNDA:0,_ZNSt15__tuple_compareISt5tupleIJPK8FaceInfoN5Moose2FV11LimiterTypeEbbttEES7_Lm1ELm6EE6__lessERKS7_SA_
FN:1377,_ZNSt15__tuple_compareISt5tupleIJPK8FaceInfoN5Moose2FV11LimiterTypeEbbttEES7_Lm2ELm6EE6__lessERKS7_SA_
FNDA:0,_ZNSt15__tuple_compareISt5tupleIJPK8FaceInfoN5Moose2FV11LimiterTypeEbbttEES7_Lm2ELm6EE6__lessERKS7_SA_
FN:1377,_ZNSt15__tuple_compareISt5tupleIJPK8FaceInfoN5Moose2FV11LimiterTypeEbbttEES7_Lm3ELm6EE6__lessERKS7_SA_
FNDA:0,_ZNSt15__tuple_compareISt5tupleIJPK8FaceInfoN5Moose2FV11LimiterTypeEbbttEES7_Lm3ELm6EE6__lessERKS7_SA_
FN:1377,_ZNSt15__tuple_compareISt5tupleIJPKN7libMesh4ElemEPK8FaceInfobtEES8_Lm0ELm4EE6__lessERKS8_SB_
FNDA:0,_ZNSt15__tuple_compareISt5tupleIJPKN7libMesh4ElemEPK8FaceInfobtEES8_Lm0ELm4EE6__lessERKS8_SB_
FN:1377,_ZNSt15__tuple_compareISt5tupleIJPKN7libMesh4ElemEPK8FaceInfobtEES8_Lm1ELm4EE6__lessERKS8_SB_
FNDA:0,_ZNSt15__tuple_compareISt5tupleIJPKN7libMesh4ElemEPK8FaceInfobtEES8_Lm1ELm4EE6__lessERKS8_SB_
FN:1689,_ZNSt4pairIKNSt7__cxx1112basic_stringIcSt11char_traitsIcESaIcEEEN15InputParameters8MetadataEEC2IJRS6_EJLm0EEJEJEEERSt5tupleIJDpT_EERSC_IJDpT1_EESt12_Index_tupleIJXspT0_EEESL_IJXspT2_EEE
FNDA:0,_ZNSt4pairIKNSt7__cxx1112basic_stringIcSt11char_traitsIcESaIcEEEN15InputParameters8MetadataEEC2IJRS6_EJLm0EEJEJEEERSt5tupleIJDpT_EERSC_IJDpT1_EESt12_Index_tupleIJXspT0_EEESL_IJXspT2_EEE
FNF:10
FNH:0
DA:124,0
DA:126,0
DA:127,0
DA:129,0
DA:130,0
DA:137,0
DA:166,0
DA:520,0
DA:1377,0
DA:1379,0
DA:1380,0
DA:1381,0
DA:1377,0
DA:1379,0
DA:1380,0
DA:1381,0
DA:1377,0
DA:1379,0
DA:1380,0
DA:1381,0
DA:1377,0
DA:1379,0
DA:1380,0
DA:1381,0
DA:1377,0
DA:1379,0
DA:1380,0
DA:1381,0
DA:1377,0
DA:1379,0
DA:1380,0
DA:1381,0
DA:1377,0
DA:1379,0
DA:1380,0
DA:1381,0
DA:1377,0
DA:1379,0
DA:1380,0
DA:1381,0
DA:1377,0
DA:1379,0
DA:1380,0
DA:1381,0
DA:1380,0
DA:1447,0
DA:1677,0
DA:1682,0
DA:1689,0
DA:1693,0
DA:1694,0
LF:51
LH:0
end_of_record
SF:/home/runner/work/raccoon/raccoon/moose/framework/build/header_symlinks/MooseEnumItem.h
FN:72,_ZNK13MooseEnumItemltERKS_
FNDA:0,_ZNK13MooseEnumItemltERKS_
FNF:1
FNH:0
DA:24,0
DA:72,0
DA:74,0
LF:3
LH:0
end_of_record
SF:/usr/share/miniconda/envs/moose/libmesh/include/libmesh/type_tensor.h
FN:544,_ZN7libMesh10TypeTensorIN11MetaPhysicL10DualNumberIdNS1_28SemiDynamicSparseNumberArrayIdmNS1_8NWrapperILm53EEEEELb1EEEEC2ERKS7_SA_SA_SA_SA_SA_SA_SA_SA_
FNDA:1531560,_ZN7libMesh10TypeTensorIN11MetaPhysicL10DualNumberIdNS1_28SemiDynamicSparseNumberArrayIdmNS1_8NWrapperILm53EEEEELb1EEEEC2ERKS7_SA_SA_SA_SA_SA_SA_SA_SA_
FN:639,_ZN7libMesh10TypeTensorIN11MetaPhysicL10DualNumberIdNS1_28SemiDynamicSparseNumberArrayIdmNS1_8NWrapperILm53EEEEELb1EEEEC2IdEERKNS0_IT_EE
FNDA:0,_ZN7libMesh10TypeTensorIN11MetaPhysicL10DualNumberIdNS1_28SemiDynamicSparseNumberArrayIdmNS1_8NWrapperILm53EEEEELb1EEEEC2IdEERKNS0_IT_EE
FN:860,_ZNK7libMesh10TypeTensorIN11MetaPhysicL10DualNumberIdNS1_28SemiDynamicSparseNumberArrayIdmNS1_8NWrapperILm53EEEEELb1EEEEmiIS7_EENS0_INS_12CompareTypesIS7_T_E9supertypeEEERKNS0_ISB_EE
FNDA:0,_ZNK7libMesh10TypeTensorIN11MetaPhysicL10DualNumberIdNS1_28SemiDynamicSparseNumberArrayIdmNS1_8NWrapperILm53EEEEELb1EEEEmiIS7_EENS0_INS_12CompareTypesIS7_T_E9supertypeEEERKNS0_ISB_EE
FN:961,_ZNK7libMesh10TypeTensorIN11MetaPhysicL10DualNumberIdNS1_28SemiDynamicSparseNumberArrayIdmNS1_8NWrapperILm53EEEEELb1EEEEmlIS7_EENS_9boostcopy11enable_if_cIXsrNS_12ScalarTraitsIT_EE5valueENS0_IDTmlcvS7__Efp_EEEE4typeERKSD_
FNDA:0,_ZNK7libMesh10TypeTensorIN11MetaPhysicL10DualNumberIdNS1_28SemiDynamicSparseNumberArrayIdmNS1_8NWrapperILm53EEEEELb1EEEEmlIS7_EENS_9boostcopy11enable_if_cIXsrNS_12ScalarTraitsIT_EE5valueENS0_IDTmlcvS7__Efp_EEEE4typeERKSD_
FN:1011,_ZNK7libMesh10TypeTensorIN11MetaPhysicL10DualNumberIdNS1_28SemiDynamicSparseNumberArrayIdmNS1_8NWrapperILm53EEEEELb1EEEEdvIS7_EENS_9boostcopy11enable_if_cIXsrNS_12ScalarTraitsIT_EE5valueENS0_INS_12CompareTypesIS7_SD_E9supertypeEEEE4typeERKSD_
FNDA:1069340,_ZNK7libMesh10TypeTensorIN11MetaPhysicL10DualNumberIdNS1_28SemiDynamicSparseNumberArrayIdmNS1_8NWrapperILm53EEEEELb1EEEEdvIS7_EENS_9boostcopy11enable_if_cIXsrNS_12ScalarTraitsIT_EE5valueENS0_INS_12CompareTypesIS7_SD_E9supertypeEEEE4typeERKSD_
FN:1011,_ZNK7libMesh10TypeTensorIN11MetaPhysicL10DualNumberIdNS1_28SemiDynamicSparseNumberArrayIdmNS1_8NWrapperILm53EEEEELb1EEEEdvIiEENS_9boostcopy11enable_if_cIXsrNS_12ScalarTraitsIT_EE5valueENS0_INS_12CompareTypesIS7_SD_E9supertypeEEEE4typeERKSD_
FNDA:462224,_ZNK7libMesh10TypeTensorIN11MetaPhysicL10DualNumberIdNS1_28SemiDynamicSparseNumberArrayIdmNS1_8NWrapperILm53EEEEELb1EEEEdvIiEENS_9boostcopy11enable_if_cIXsrNS_12ScalarTraitsIT_EE5valueENS0_INS_12CompareTypesIS7_SD_E9supertypeEEEE4typeERKSD_
FNF:6
FNH:3
DA:544,1531560
DA:552,15315600
DA:554,1531560
DA:568,1531560
DA:569,1531560
DA:570,1531560
DA:571,1531560
DA:572,1531560
DA:573,1531560
DA:574,1531560
DA:575,1531560
DA:584,1531560
DA:639,0
DA:642,0
DA:643,0
DA:644,0
DA:700,400000
DA:729,0
DA:860,0
DA:876,0
DA:877,0
DA:878,0
DA:879,0
DA:880,0
DA:881,0
DA:882,0
DA:883,0
DA:884,0
DA:961,0
DA:980,0
DA:981,0
DA:982,0
DA:983,0
DA:984,0
DA:985,0
DA:986,0
DA:987,0
DA:988,0
DA:1002,400000
DA:1011,1069340
DA:1029,1069340
DA:1030,1069340
DA:1031,1069340
DA:1032,1069340
DA:1033,1069340
DA:1034,1069340
DA:1035,1069340
DA:1036,1069340
DA:1037,2138670
DA:1011,462224
DA:1029,462224
DA:1030,462224
DA:1031,462224
DA:1032,462224
DA:1033,462224
DA:1034,462224
DA:1035,462224
DA:1036,462224
DA:1037,924448
LF:59
LH:34
end_of_record
SF:/home/runner/work/raccoon/raccoon/moose/framework/build/header_symlinks/UserObjectInterface.h
FN:93,_ZNK19UserObjectInterface29addUserObjectDependencyHelperERK10UserObject
FNDA:0,_ZNK19UserObjectInterface29addUserObjectDependencyHelperERK10UserObject
FNF:1
FNH:0
DA:93,0
LF:1
LH:0
end_of_record
SF:/home/runner/work/raccoon/raccoon/build/header_symlinks/CrackSurfaceDensity.h
LF:0
LH:0
end_of_record
SF:/usr/share/miniconda/envs/moose/x86_64-conda-linux-gnu/include/c++/10.3.0/ext/aligned_buffer.h
DA:65,4542
DA:69,828
DA:104,54
LF:3
LH:3
end_of_record
SF:/usr/share/miniconda/envs/moose/x86_64-conda-linux-gnu/include/c++/10.3.0/string_view
FN:288,_ZNKSt17basic_string_viewIcSt11char_traitsIcEE7compareES2_
FNDA:0,_ZNKSt17basic_string_viewIcSt11char_traitsIcEE7compareES2_
FNF:1
FNH:0
DA:288,0
DA:290,0
DA:291,0
DA:292,0
DA:294,0
DA:461,0
DA:462,0
DA:464,0
DA:466,0
DA:550,0
DA:556,0
DA:621,0
LF:12
LH:0
end_of_record
SF:/usr/share/miniconda/envs/moose/x86_64-conda-linux-gnu/include/c++/10.3.0/bits/shared_ptr_base.h
FN:134,_ZNSt16_Sp_counted_baseILN9__gnu_cxx12_Lock_policyE2EE10_M_destroyEv
FNDA:0,_ZNSt16_Sp_counted_baseILN9__gnu_cxx12_Lock_policyE2EE10_M_destroyEv
FN:151,_ZNSt16_Sp_counted_baseILN9__gnu_cxx12_Lock_policyE2EE10_M_releaseEv
FNDA:609,_ZNSt16_Sp_counted_baseILN9__gnu_cxx12_Lock_policyE2EE10_M_releaseEv
FN:407,_ZNSt15_Sp_counted_ptrIDnLN9__gnu_cxx12_Lock_policyE2EE10_M_disposeEv
FNDA:0,_ZNSt15_Sp_counted_ptrIDnLN9__gnu_cxx12_Lock_policyE2EE10_M_disposeEv
FN:555,_ZNSt23_Sp_counted_ptr_inplaceI19CrackSurfaceDensitySaIS0_ELN9__gnu_cxx12_Lock_policyE2EED2Ev
FNDA:0,_ZNSt23_Sp_counted_ptr_inplaceI19CrackSurfaceDensitySaIS0_ELN9__gnu_cxx12_Lock_policyE2EED2Ev
FN:555,_ZNSt23_Sp_counted_ptr_inplaceI19CrackSurfaceDensitySaIS0_ELN9__gnu_cxx12_Lock_policyE2EED0Ev
FNDA:0,_ZNSt23_Sp_counted_ptr_inplaceI19CrackSurfaceDensitySaIS0_ELN9__gnu_cxx12_Lock_policyE2EED0Ev
FN:555,_ZNSt23_Sp_counted_ptr_inplaceI20NucleationMicroForceSaIS0_ELN9__gnu_cxx12_Lock_policyE2EED0Ev
FNDA:0,_ZNSt23_Sp_counted_ptr_inplaceI20NucleationMicroForceSaIS0_ELN9__gnu_cxx12_Lock_policyE2EED0Ev
FN:555,_ZNSt23_Sp_counted_ptr_inplaceI20NucleationMicroForceSaIS0_ELN9__gnu_cxx12_Lock_policyE2EED2Ev
FNDA:0,_ZNSt23_Sp_counted_ptr_inplaceI20NucleationMicroForceSaIS0_ELN9__gnu_cxx12_Lock_policyE2EED2Ev
FN:555,_ZNSt23_Sp_counted_ptr_inplaceI43ComputeEigenstrainFromFunctionInitialStressSaIS0_ELN9__gnu_cxx12_Lock_policyE2EED2Ev
FNDA:0,_ZNSt23_Sp_counted_ptr_inplaceI43ComputeEigenstrainFromFunctionInitialStressSaIS0_ELN9__gnu_cxx12_Lock_policyE2EED2Ev
FN:555,_ZNSt23_Sp_counted_ptr_inplaceI43ComputeEigenstrainFromFunctionInitialStressSaIS0_ELN9__gnu_cxx12_Lock_policyE2EED0Ev
FNDA:0,_ZNSt23_Sp_counted_ptr_inplaceI43ComputeEigenstrainFromFunctionInitialStressSaIS0_ELN9__gnu_cxx12_Lock_policyE2EED0Ev
FN:555,_ZNSt23_Sp_counted_ptr_inplaceI15PressureDensitySaIS0_ELN9__gnu_cxx12_Lock_policyE2EED0Ev
FNDA:0,_ZNSt23_Sp_counted_ptr_inplaceI15PressureDensitySaIS0_ELN9__gnu_cxx12_Lock_policyE2EED0Ev
FN:555,_ZNSt23_Sp_counted_ptr_inplaceI15PressureDensitySaIS0_ELN9__gnu_cxx12_Lock_policyE2EED2Ev
FNDA:0,_ZNSt23_Sp_counted_ptr_inplaceI15PressureDensitySaIS0_ELN9__gnu_cxx12_Lock_policyE2EED2Ev
FN:555,_ZNSt23_Sp_counted_ptr_inplaceI12ArrheniusLawSaIS0_ELN9__gnu_cxx12_Lock_policyE2EED2Ev
FNDA:0,_ZNSt23_Sp_counted_ptr_inplaceI12ArrheniusLawSaIS0_ELN9__gnu_cxx12_Lock_policyE2EED2Ev
FN:555,_ZNSt23_Sp_counted_ptr_inplaceI12ArrheniusLawSaIS0_ELN9__gnu_cxx12_Lock_policyE2EED0Ev
FNDA:0,_ZNSt23_Sp_counted_ptr_inplaceI12ArrheniusLawSaIS0_ELN9__gnu_cxx12_Lock_policyE2EED0Ev
FN:555,_ZNSt23_Sp_counted_ptr_inplaceI30ThinFilmInterfaceEnergyDensitySaIS0_ELN9__gnu_cxx12_Lock_policyE2EED0Ev
FNDA:0,_ZNSt23_Sp_counted_ptr_inplaceI30ThinFilmInterfaceEnergyDensitySaIS0_ELN9__gnu_cxx12_Lock_policyE2EED0Ev
FN:555,_ZNSt23_Sp_counted_ptr_inplaceI30ThinFilmInterfaceEnergyDensitySaIS0_ELN9__gnu_cxx12_Lock_policyE2EED2Ev
FNDA:0,_ZNSt23_Sp_counted_ptr_inplaceI30ThinFilmInterfaceEnergyDensitySaIS0_ELN9__gnu_cxx12_Lock_policyE2EED2Ev
FN:555,_ZNSt23_Sp_counted_ptr_inplaceINSt13__future_base13_State_baseV2ESaIS1_ELN9__gnu_cxx12_Lock_policyE2EED2Ev
FNDA:0,_ZNSt23_Sp_counted_ptr_inplaceINSt13__future_base13_State_baseV2ESaIS1_ELN9__gnu_cxx12_Lock_policyE2EED2Ev
FN:555,_ZNSt23_Sp_counted_ptr_inplaceINSt13__future_base13_State_baseV2ESaIS1_ELN9__gnu_cxx12_Lock_policyE2EED0Ev
FNDA:0,_ZNSt23_Sp_counted_ptr_inplaceINSt13__future_base13_State_baseV2ESaIS1_ELN9__gnu_cxx12_Lock_policyE2EED0Ev
FN:555,_ZNSt23_Sp_counted_ptr_inplaceISt5mutexSaIS0_ELN9__gnu_cxx12_Lock_policyE2EED2Ev
FNDA:0,_ZNSt23_Sp_counted_ptr_inplaceISt5mutexSaIS0_ELN9__gnu_cxx12_Lock_policyE2EED2Ev
FN:555,_ZNSt23_Sp_counted_ptr_inplaceISt5mutexSaIS0_ELN9__gnu_cxx12_Lock_policyE2EED0Ev
FNDA:0,_ZNSt23_Sp_counted_ptr_inplaceISt5mutexSaIS0_ELN9__gnu_cxx12_Lock_policyE2EED0Ev
FN:558,_ZNSt23_Sp_counted_ptr_inplaceI30ThinFilmInterfaceEnergyDensitySaIS0_ELN9__gnu_cxx12_Lock_policyE2EE10_M_disposeEv
FNDA:3,_ZNSt23_Sp_counted_ptr_inplaceI30ThinFilmInterfaceEnergyDensitySaIS0_ELN9__gnu_cxx12_Lock_policyE2EE10_M_disposeEv
FN:558,_ZNSt23_Sp_counted_ptr_inplaceI15PressureDensitySaIS0_ELN9__gnu_cxx12_Lock_policyE2EE10_M_disposeEv
FNDA:6,_ZNSt23_Sp_counted_ptr_inplaceI15PressureDensitySaIS0_ELN9__gnu_cxx12_Lock_policyE2EE10_M_disposeEv
FN:558,_ZNSt23_Sp_counted_ptr_inplaceI20NucleationMicroForceSaIS0_ELN9__gnu_cxx12_Lock_policyE2EE10_M_disposeEv
FNDA:3,_ZNSt23_Sp_counted_ptr_inplaceI20NucleationMicroForceSaIS0_ELN9__gnu_cxx12_Lock_policyE2EE10_M_disposeEv
FN:558,_ZNSt23_Sp_counted_ptr_inplaceISt5mutexSaIS0_ELN9__gnu_cxx12_Lock_policyE2EE10_M_disposeEv
FNDA:0,_ZNSt23_Sp_counted_ptr_inplaceISt5mutexSaIS0_ELN9__gnu_cxx12_Lock_policyE2EE10_M_disposeEv
FN:558,_ZNSt23_Sp_counted_ptr_inplaceI19CrackSurfaceDensitySaIS0_ELN9__gnu_cxx12_Lock_policyE2EE10_M_disposeEv
FNDA:0,_ZNSt23_Sp_counted_ptr_inplaceI19CrackSurfaceDensitySaIS0_ELN9__gnu_cxx12_Lock_policyE2EE10_M_disposeEv
FN:558,_ZNSt23_Sp_counted_ptr_inplaceINSt13__future_base13_State_baseV2ESaIS1_ELN9__gnu_cxx12_Lock_policyE2EE10_M_disposeEv
FNDA:0,_ZNSt23_Sp_counted_ptr_inplaceINSt13__future_base13_State_baseV2ESaIS1_ELN9__gnu_cxx12_Lock_policyE2EE10_M_disposeEv
FN:558,_ZNSt23_Sp_counted_ptr_inplaceI12ArrheniusLawSaIS0_ELN9__gnu_cxx12_Lock_policyE2EE10_M_disposeEv
FNDA:12,_ZNSt23_Sp_counted_ptr_inplaceI12ArrheniusLawSaIS0_ELN9__gnu_cxx12_Lock_policyE2EE10_M_disposeEv
FN:558,_ZNSt23_Sp_counted_ptr_inplaceI43ComputeEigenstrainFromFunctionInitialStressSaIS0_ELN9__gnu_cxx12_Lock_policyE2EE10_M_disposeEv
FNDA:3,_ZNSt23_Sp_counted_ptr_inplaceI43ComputeEigenstrainFromFunctionInitialStressSaIS0_ELN9__gnu_cxx12_Lock_policyE2EE10_M_disposeEv
FN:565,_ZNSt23_Sp_counted_ptr_inplaceISt5mutexSaIS0_ELN9__gnu_cxx12_Lock_policyE2EE10_M_destroyEv
FNDA:0,_ZNSt23_Sp_counted_ptr_inplaceISt5mutexSaIS0_ELN9__gnu_cxx12_Lock_policyE2EE10_M_destroyEv
FN:565,_ZNSt23_Sp_counted_ptr_inplaceINSt13__future_base13_State_baseV2ESaIS1_ELN9__gnu_cxx12_Lock_policyE2EE10_M_destroyEv
FNDA:0,_ZNSt23_Sp_counted_ptr_inplaceINSt13__future_base13_State_baseV2ESaIS1_ELN9__gnu_cxx12_Lock_policyE2EE10_M_destroyEv
FN:565,_ZNSt23_Sp_counted_ptr_inplaceI12ArrheniusLawSaIS0_ELN9__gnu_cxx12_Lock_policyE2EE10_M_destroyEv
FNDA:12,_ZNSt23_Sp_counted_ptr_inplaceI12ArrheniusLawSaIS0_ELN9__gnu_cxx12_Lock_policyE2EE10_M_destroyEv
FN:565,_ZNSt23_Sp_counted_ptr_inplaceI30ThinFilmInterfaceEnergyDensitySaIS0_ELN9__gnu_cxx12_Lock_policyE2EE10_M_destroyEv
FNDA:3,_ZNSt23_Sp_counted_ptr_inplaceI30ThinFilmInterfaceEnergyDensitySaIS0_ELN9__gnu_cxx12_Lock_policyE2EE10_M_destroyEv
FN:565,_ZNSt23_Sp_counted_ptr_inplaceI43ComputeEigenstrainFromFunctionInitialStressSaIS0_ELN9__gnu_cxx12_Lock_policyE2EE10_M_destroyEv
FNDA:3,_ZNSt23_Sp_counted_ptr_inplaceI43ComputeEigenstrainFromFunctionInitialStressSaIS0_ELN9__gnu_cxx12_Lock_policyE2EE10_M_destroyEv
FN:565,_ZNSt23_Sp_counted_ptr_inplaceI15PressureDensitySaIS0_ELN9__gnu_cxx12_Lock_policyE2EE10_M_destroyEv
FNDA:6,_ZNSt23_Sp_counted_ptr_inplaceI15PressureDensitySaIS0_ELN9__gnu_cxx12_Lock_policyE2EE10_M_destroyEv
FN:565,_ZNSt23_Sp_counted_ptr_inplaceI19CrackSurfaceDensitySaIS0_ELN9__gnu_cxx12_Lock_policyE2EE10_M_destroyEv
FNDA:0,_ZNSt23_Sp_counted_ptr_inplaceI19CrackSurfaceDensitySaIS0_ELN9__gnu_cxx12_Lock_policyE2EE10_M_destroyEv
FN:565,_ZNSt23_Sp_counted_ptr_inplaceI20NucleationMicroForceSaIS0_ELN9__gnu_cxx12_Lock_policyE2EE10_M_destroyEv
FNDA:3,_ZNSt23_Sp_counted_ptr_inplaceI20NucleationMicroForceSaIS0_ELN9__gnu_cxx12_Lock_policyE2EE10_M_destroyEv
FN:578,_ZNSt23_Sp_counted_ptr_inplaceI43ComputeEigenstrainFromFunctionInitialStressSaIS0_ELN9__gnu_cxx12_Lock_policyE2EE14_M_get_deleterERKSt9type_info
FNDA:0,_ZNSt23_Sp_counted_ptr_inplaceI43ComputeEigenstrainFromFunctionInitialStressSaIS0_ELN9__gnu_cxx12_Lock_policyE2EE14_M_get_deleterERKSt9type_info
FN:578,_ZNSt23_Sp_counted_ptr_inplaceI30ThinFilmInterfaceEnergyDensitySaIS0_ELN9__gnu_cxx12_Lock_policyE2EE14_M_get_deleterERKSt9type_info
FNDA:0,_ZNSt23_Sp_counted_ptr_inplaceI30ThinFilmInterfaceEnergyDensitySaIS0_ELN9__gnu_cxx12_Lock_policyE2EE14_M_get_deleterERKSt9type_info
FN:578,_ZNSt23_Sp_counted_ptr_inplaceI15PressureDensitySaIS0_ELN9__gnu_cxx12_Lock_policyE2EE14_M_get_deleterERKSt9type_info
FNDA:0,_ZNSt23_Sp_counted_ptr_inplaceI15PressureDensitySaIS0_ELN9__gnu_cxx12_Lock_policyE2EE14_M_get_deleterERKSt9type_info
FN:578,_ZNSt23_Sp_counted_ptr_inplaceI19CrackSurfaceDensitySaIS0_ELN9__gnu_cxx12_Lock_policyE2EE14_M_get_deleterERKSt9type_info
FNDA:0,_ZNSt23_Sp_counted_ptr_inplaceI19CrackSurfaceDensitySaIS0_ELN9__gnu_cxx12_Lock_policyE2EE14_M_get_deleterERKSt9type_info
FN:578,_ZNSt23_Sp_counted_ptr_inplaceI12ArrheniusLawSaIS0_ELN9__gnu_cxx12_Lock_policyE2EE14_M_get_deleterERKSt9type_info
FNDA:0,_ZNSt23_Sp_counted_ptr_inplaceI12ArrheniusLawSaIS0_ELN9__gnu_cxx12_Lock_policyE2EE14_M_get_deleterERKSt9type_info
FN:578,_ZNSt23_Sp_counted_ptr_inplaceI20NucleationMicroForceSaIS0_ELN9__gnu_cxx12_Lock_policyE2EE14_M_get_deleterERKSt9type_info
FNDA:0,_ZNSt23_Sp_counted_ptr_inplaceI20NucleationMicroForceSaIS0_ELN9__gnu_cxx12_Lock_policyE2EE14_M_get_deleterERKSt9type_info
FN:675,_ZNSt14__shared_countILN9__gnu_cxx12_Lock_policyE2EEC2I30ThinFilmInterfaceEnergyDensitySaIS4_EJRK15InputParametersEEERPT_St20_Sp_alloc_shared_tagIT0_EDpOT1_
FNDA:3,_ZNSt14__shared_countILN9__gnu_cxx12_Lock_policyE2EEC2I30ThinFilmInterfaceEnergyDensitySaIS4_EJRK15InputParametersEEERPT_St20_Sp_alloc_shared_tagIT0_EDpOT1_
FN:675,_ZNSt14__shared_countILN9__gnu_cxx12_Lock_policyE2EEC2I15PressureDensitySaIS4_EJRK15InputParametersEEERPT_St20_Sp_alloc_shared_tagIT0_EDpOT1_
FNDA:6,_ZNSt14__shared_countILN9__gnu_cxx12_Lock_policyE2EEC2I15PressureDensitySaIS4_EJRK15InputParametersEEERPT_St20_Sp_alloc_shared_tagIT0_EDpOT1_
FN:675,_ZNSt14__shared_countILN9__gnu_cxx12_Lock_policyE2EEC2I20NucleationMicroForceSaIS4_EJRK15InputParametersEEERPT_St20_Sp_alloc_shared_tagIT0_EDpOT1_
FNDA:3,_ZNSt14__shared_countILN9__gnu_cxx12_Lock_policyE2EEC2I20NucleationMicroForceSaIS4_EJRK15InputParametersEEERPT_St20_Sp_alloc_shared_tagIT0_EDpOT1_
FN:675,_ZNSt14__shared_countILN9__gnu_cxx12_Lock_policyE2EEC2I19CrackSurfaceDensitySaIS4_EJRK15InputParametersEEERPT_St20_Sp_alloc_shared_tagIT0_EDpOT1_
FNDA:0,_ZNSt14__shared_countILN9__gnu_cxx12_Lock_policyE2EEC2I19CrackSurfaceDensitySaIS4_EJRK15InputParametersEEERPT_St20_Sp_alloc_shared_tagIT0_EDpOT1_
FN:675,_ZNSt14__shared_countILN9__gnu_cxx12_Lock_policyE2EEC2I43ComputeEigenstrainFromFunctionInitialStressSaIS4_EJRK15InputParametersEEERPT_St20_Sp_alloc_shared_tagIT0_EDpOT1_
FNDA:3,_ZNSt14__shared_countILN9__gnu_cxx12_Lock_policyE2EEC2I43ComputeEigenstrainFromFunctionInitialStressSaIS4_EJRK15InputParametersEEERPT_St20_Sp_alloc_shared_tagIT0_EDpOT1_
FN:675,_ZNSt14__shared_countILN9__gnu_cxx12_Lock_policyE2EEC2I12ArrheniusLawSaIS4_EJRK15InputParametersEEERPT_St20_Sp_alloc_shared_tagIT0_EDpOT1_
FNDA:12,_ZNSt14__shared_countILN9__gnu_cxx12_Lock_policyE2EEC2I12ArrheniusLawSaIS4_EJRK15InputParametersEEERPT_St20_Sp_alloc_shared_tagIT0_EDpOT1_
FNF:47
FNH:16
DA:120,27
DA:121,27
DA:134,0
DA:135,0
DA:151,609
DA:155,1218
DA:158,609
DA:170,1218
DA:174,609
DA:177,609
DA:407,0
DA:534,27
DA:546,27
DA:547,27
DA:553,27
DA:555,0
DA:555,0
DA:555,0
DA:555,0
DA:555,0
DA:555,0
DA:555,0
DA:555,0
DA:555,0
DA:555,0
DA:555,0
DA:555,0
DA:555,0
DA:555,0
DA:555,0
DA:555,0
DA:555,27
DA:558,0
DA:561,0
DA:558,0
DA:561,0
DA:558,12
DA:561,12
DA:558,3
DA:561,3
DA:558,0
DA:561,0
DA:558,3
DA:561,3
DA:558,6
DA:561,6
DA:558,3
DA:561,3
DA:565,0
DA:568,0
DA:570,0
DA:565,0
DA:568,0
DA:570,0
DA:565,12
DA:568,12
DA:570,12
DA:565,3
DA:568,3
DA:570,3
DA:565,0
DA:568,0
DA:570,0
DA:565,3
DA:568,3
DA:570,3
DA:565,6
DA:568,6
DA:570,6
DA:565,3
DA:568,3
DA:570,3
DA:578,0
DA:586,0
DA:588,0
DA:593,0
DA:578,0
DA:586,0
DA:588,0
DA:593,0
DA:578,0
DA:586,0
DA:588,0
DA:593,0
DA:578,0
DA:586,0
DA:588,0
DA:593,0
DA:578,0
DA:586,0
DA:588,0
DA:593,0
DA:578,0
DA:586,0
DA:588,0
DA:593,0
DA:675,3
DA:680,0
DA:685,3
DA:686,3
DA:687,3
DA:675,6
DA:680,0
DA:685,6
DA:686,6
DA:687,6
DA:675,3
DA:680,0
DA:685,3
DA:686,3
DA:687,3
DA:675,0
DA:680,0
DA:685,0
DA:686,0
DA:687,0
DA:675,3
DA:680,0
DA:685,3
DA:686,3
DA:687,3
DA:675,12
DA:680,0
DA:685,12
DA:686,12
DA:687,12
DA:732,0
DA:733,0
DA:761,27
DA:763,27
DA:1199,27
DA:1325,0
DA:1370,27
DA:1371,27
LF:134
LH:63
end_of_record
SF:/usr/share/miniconda/envs/moose/x86_64-conda-linux-gnu/include/c++/10.3.0/bits/locale_facets.h
FN:872,_ZNKSt5ctypeIcE5widenEc
FNDA:0,_ZNKSt5ctypeIcE5widenEc
FN:1084,_ZNKSt5ctypeIcE8do_widenEc
FNDA:0,_ZNKSt5ctypeIcE8do_widenEc
FNF:2
FNH:0
DA:872,0
DA:874,0
DA:875,0
DA:876,0
DA:877,0
DA:1084,0
DA:1085,0
LF:7
LH:0
end_of_record
SF:/usr/share/miniconda/envs/moose/x86_64-conda-linux-gnu/include/c++/10.3.0/bits/allocated_ptr.h
FN:70,_ZNSt15__allocated_ptrISaISt23_Sp_counted_ptr_inplaceI30ThinFilmInterfaceEnergyDensitySaIS1_ELN9__gnu_cxx12_Lock_policyE2EEEED2Ev
FNDA:6,_ZNSt15__allocated_ptrISaISt23_Sp_counted_ptr_inplaceI30ThinFilmInterfaceEnergyDensitySaIS1_ELN9__gnu_cxx12_Lock_policyE2EEEED2Ev
FN:70,_ZNSt15__allocated_ptrISaISt23_Sp_counted_ptr_inplaceI15PressureDensitySaIS1_ELN9__gnu_cxx12_Lock_policyE2EEEED2Ev
FNDA:12,_ZNSt15__allocated_ptrISaISt23_Sp_counted_ptr_inplaceI15PressureDensitySaIS1_ELN9__gnu_cxx12_Lock_policyE2EEEED2Ev
FN:70,_ZNSt15__allocated_ptrISaISt23_Sp_counted_ptr_inplaceI20NucleationMicroForceSaIS1_ELN9__gnu_cxx12_Lock_policyE2EEEED2Ev
FNDA:6,_ZNSt15__allocated_ptrISaISt23_Sp_counted_ptr_inplaceI20NucleationMicroForceSaIS1_ELN9__gnu_cxx12_Lock_policyE2EEEED2Ev
FN:70,_ZNSt15__allocated_ptrISaISt23_Sp_counted_ptr_inplaceI19CrackSurfaceDensitySaIS1_ELN9__gnu_cxx12_Lock_policyE2EEEED2Ev
FNDA:0,_ZNSt15__allocated_ptrISaISt23_Sp_counted_ptr_inplaceI19CrackSurfaceDensitySaIS1_ELN9__gnu_cxx12_Lock_policyE2EEEED2Ev
FN:70,_ZNSt15__allocated_ptrISaISt23_Sp_counted_ptr_inplaceI43ComputeEigenstrainFromFunctionInitialStressSaIS1_ELN9__gnu_cxx12_Lock_policyE2EEEED2Ev
FNDA:6,_ZNSt15__allocated_ptrISaISt23_Sp_counted_ptr_inplaceI43ComputeEigenstrainFromFunctionInitialStressSaIS1_ELN9__gnu_cxx12_Lock_policyE2EEEED2Ev
FN:70,_ZNSt15__allocated_ptrISaISt23_Sp_counted_ptr_inplaceI12ArrheniusLawSaIS1_ELN9__gnu_cxx12_Lock_policyE2EEEED2Ev
FNDA:24,_ZNSt15__allocated_ptrISaISt23_Sp_counted_ptr_inplaceI12ArrheniusLawSaIS1_ELN9__gnu_cxx12_Lock_policyE2EEEED2Ev
FN:70,_ZNSt15__allocated_ptrISaISt23_Sp_counted_ptr_inplaceINSt13__future_base13_State_baseV2ESaIS2_ELN9__gnu_cxx12_Lock_policyE2EEEED2Ev
FNDA:0,_ZNSt15__allocated_ptrISaISt23_Sp_counted_ptr_inplaceINSt13__future_base13_State_baseV2ESaIS2_ELN9__gnu_cxx12_Lock_policyE2EEEED2Ev
FN:70,_ZNSt15__allocated_ptrISaISt23_Sp_counted_ptr_inplaceISt5mutexSaIS1_ELN9__gnu_cxx12_Lock_policyE2EEEED2Ev
FNDA:0,_ZNSt15__allocated_ptrISaISt23_Sp_counted_ptr_inplaceISt5mutexSaIS1_ELN9__gnu_cxx12_Lock_policyE2EEEED2Ev
FNF:8
FNH:5
DA:52,27
DA:53,54
DA:70,6
DA:72,6
DA:74,6
DA:70,12
DA:72,12
DA:74,12
DA:70,6
DA:72,6
DA:74,6
DA:70,0
DA:72,0
DA:74,0
DA:70,6
DA:72,6
DA:74,6
DA:70,24
DA:72,24
DA:74,24
DA:70,0
DA:72,0
DA:74,0
DA:70,0
DA:72,0
DA:74,0
DA:80,27
LF:27
LH:18
end_of_record
SF:/usr/share/miniconda/envs/moose/x86_64-conda-linux-gnu/include/c++/10.3.0/bits/std_abs.h
DA:72,41856
LF:1
LH:1
end_of_record
SF:/usr/share/miniconda/envs/moose/x86_64-conda-linux-gnu/include/c++/10.3.0/complex
DA:1869,818400
LF:1
LH:1
end_of_record
SF:/home/runner/work/raccoon/raccoon/moose/framework/build/header_symlinks/MaterialData.h
FN:296,_ZN12MaterialData13resizePropsADI18RankTwoTensorTemplIdEEEvj
FNDA:0,_ZN12MaterialData13resizePropsADI18RankTwoTensorTemplIdEEEvj
FN:296,_ZN12MaterialData13resizePropsADIdEEvj
FNDA:0,_ZN12MaterialData13resizePropsADIdEEvj
FN:323,_ZN12MaterialData17declareADPropertyI18RankTwoTensorTemplIdEEER18ADMaterialPropertyIT_ERKNSt7__cxx1112basic_stringIcSt11char_traitsIcESaIcEEE
FNDA:441,_ZN12MaterialData17declareADPropertyI18RankTwoTensorTemplIdEEER18ADMaterialPropertyIT_ERKNSt7__cxx1112basic_stringIcSt11char_traitsIcESaIcEEE
FN:323,_ZN12MaterialData17declareADPropertyIdEER18ADMaterialPropertyIT_ERKNSt7__cxx1112basic_stringIcSt11char_traitsIcESaIcEEE
FNDA:2226,_ZN12MaterialData17declareADPropertyIdEER18ADMaterialPropertyIT_ERKNSt7__cxx1112basic_stringIcSt11char_traitsIcESaIcEEE
FN:370,_ZN12MaterialData15declareADHelperI18RankTwoTensorTemplIdEEER18ADMaterialPropertyIT_ER18MaterialPropertiesRKNSt7__cxx1112basic_stringIcSt11char_traitsIcESaIcEEEj
FNDA:441,_ZN12MaterialData15declareADHelperI18RankTwoTensorTemplIdEEER18ADMaterialPropertyIT_ER18MaterialPropertiesRKNSt7__cxx1112basic_stringIcSt11char_traitsIcESaIcEEEj
FN:370,_ZN12MaterialData15declareADHelperIdEER18ADMaterialPropertyIT_ER18MaterialPropertiesRKNSt7__cxx1112basic_stringIcSt11char_traitsIcESaIcEEEj
FNDA:2226,_ZN12MaterialData15declareADHelperIdEER18ADMaterialPropertyIT_ER18MaterialPropertiesRKNSt7__cxx1112basic_stringIcSt11char_traitsIcESaIcEEEj
FN:417,_ZN12MaterialData13getADPropertyI18RankTwoTensorTemplIdEEER18ADMaterialPropertyIT_ERKNSt7__cxx1112basic_stringIcSt11char_traitsIcESaIcEEE
FNDA:0,_ZN12MaterialData13getADPropertyI18RankTwoTensorTemplIdEEER18ADMaterialPropertyIT_ERKNSt7__cxx1112basic_stringIcSt11char_traitsIcESaIcEEE
FN:417,_ZN12MaterialData13getADPropertyIdEER18ADMaterialPropertyIT_ERKNSt7__cxx1112basic_stringIcSt11char_traitsIcESaIcEEE
FNDA:0,_ZN12MaterialData13getADPropertyIdEER18ADMaterialPropertyIT_ERKNSt7__cxx1112basic_stringIcSt11char_traitsIcESaIcEEE
FNF:8
FNH:4
DA:179,0
DA:296,0
DA:298,0
DA:299,0
DA:300,0
DA:301,0
DA:302,0
DA:303,0
DA:304,0
DA:306,0
DA:307,0
DA:308,0
DA:309,0
DA:310,0
DA:311,0
DA:312,0
DA:296,0
DA:298,0
DA:299,0
DA:300,0
DA:301,0
DA:302,0
DA:303,0
DA:304,0
DA:306,0
DA:307,0
DA:308,0
DA:309,0
DA:310,0
DA:311,0
DA:312,0
DA:323,441
DA:325,441
DA:323,2226
DA:325,2226
DA:370,441
DA:374,441
DA:375,441
DA:376,441
DA:381,0
DA:382,0
DA:383,0
DA:386,0
DA:388,441
DA:389,441
DA:370,2226
DA:374,2226
DA:375,2226
DA:376,2226
DA:381,0
DA:382,0
DA:383,0
DA:386,0
DA:388,2226
DA:389,2226
DA:417,0
DA:420,0
DA:421,0
DA:422,0
DA:427,0
DA:428,0
DA:429,0
DA:434,0
DA:436,0
DA:417,0
DA:420,0
DA:421,0
DA:422,0
DA:427,0
DA:428,0
DA:429,0
DA:434,0
DA:436,0
LF:73
LH:16
end_of_record
SF:/usr/share/miniconda/envs/moose/libmesh/include/metaphysicl/dualnumber.h
FN:73,_ZNK11MetaPhysicL10DualNumberIdNS_28SemiDynamicSparseNumberArrayIdmNS_8NWrapperILm53EEEEELb1EEngEv
FNDA:0,_ZNK11MetaPhysicL10DualNumberIdNS_28SemiDynamicSparseNumberArrayIdmNS_8NWrapperILm53EEEEELb1EEngEv
FN:97,_ZN11MetaPhysicL10DualNumberIdNS_28SemiDynamicSparseNumberArrayIdmNS_8NWrapperILm53EEEEELb1EEaSERKS5_
FNDA:0,_ZN11MetaPhysicL10DualNumberIdNS_28SemiDynamicSparseNumberArrayIdmNS_8NWrapperILm53EEEEELb1EEaSERKS5_
FN:110,_ZN11MetaPhysicL10DualNumberIdNS_28SemiDynamicSparseNumberArrayIdmNS_8NWrapperILm53EEEEELb1EEaSEOS5_
FNDA:16018100,_ZN11MetaPhysicL10DualNumberIdNS_28SemiDynamicSparseNumberArrayIdmNS_8NWrapperILm53EEEEELb1EEaSEOS5_
FN:136,_ZN11MetaPhysicL10DualNumberIdNS_28SemiDynamicSparseNumberArrayIdmNS_8NWrapperILm53EEEEELb1EEC2ERKS5_
FNDA:0,_ZN11MetaPhysicL10DualNumberIdNS_28SemiDynamicSparseNumberArrayIdmNS_8NWrapperILm53EEEEELb1EEC2ERKS5_
FN:145,_ZN11MetaPhysicL10DualNumberIdNS_28SemiDynamicSparseNumberArrayIdmNS_8NWrapperILm53EEEEELb1EEC2EOS5_
FNDA:0,_ZN11MetaPhysicL10DualNumberIdNS_28SemiDynamicSparseNumberArrayIdmNS_8NWrapperILm53EEEEELb1EEC2EOS5_
FN:187,_ZN11MetaPhysicL10DualNumberIdNS_28SemiDynamicSparseNumberArrayIdmNS_8NWrapperILm53EEEEELb1EEaSIdEERS5_RKT_
FNDA:1200000,_ZN11MetaPhysicL10DualNumberIdNS_28SemiDynamicSparseNumberArrayIdmNS_8NWrapperILm53EEEEELb1EEaSIdEERS5_RKT_
FN:214,_ZN11MetaPhysicL10DualNumberIdNS_28SemiDynamicSparseNumberArrayIdmNS_8NWrapperILm53EEEEELb1EEC2IiEERKT_NSt9enable_ifIXsrSt14is_convertibleIS7_dE5valueEPvE4typeE
FNDA:209280,_ZN11MetaPhysicL10DualNumberIdNS_28SemiDynamicSparseNumberArrayIdmNS_8NWrapperILm53EEEEELb1EEC2IiEERKT_NSt9enable_ifIXsrSt14is_convertibleIS7_dE5valueEPvE4typeE
FN:214,_ZN11MetaPhysicL10DualNumberIdNS_28SemiDynamicSparseNumberArrayIdmNS_8NWrapperILm53EEEEELb1EEC2IdEERKT_NSt9enable_ifIXsrSt14is_convertibleIS7_dE5valueEPvE4typeE
FNDA:609280,_ZN11MetaPhysicL10DualNumberIdNS_28SemiDynamicSparseNumberArrayIdmNS_8NWrapperILm53EEEEELb1EEC2IdEERKT_NSt9enable_ifIXsrSt14is_convertibleIS7_dE5valueEPvE4typeE
FN:224,_ZN11MetaPhysicL10DualNumberIdNS_28SemiDynamicSparseNumberArrayIdmNS_8NWrapperILm53EEEEELb1EEC2IdS4_EERKT_RKT0_
FNDA:0,_ZN11MetaPhysicL10DualNumberIdNS_28SemiDynamicSparseNumberArrayIdmNS_8NWrapperILm53EEEEELb1EEC2IdS4_EERKT_RKT0_
FN:259,_ZN11MetaPhysicL26derivative_multiply_helperIdNS_28SemiDynamicSparseNumberArrayIdmNS_8NWrapperILm53EEEEELb1EEEvRNS_10DualNumberIT_T0_XT1_EEERKS8_
FNDA:0,_ZN11MetaPhysicL26derivative_multiply_helperIdNS_28SemiDynamicSparseNumberArrayIdmNS_8NWrapperILm53EEEEELb1EEEvRNS_10DualNumberIT_T0_XT1_EEERKS8_
FN:310,_ZN11MetaPhysicL26derivative_division_helperIdNS_28SemiDynamicSparseNumberArrayIdmNS_8NWrapperILm53EEEEELb1EEEvRNS_10DualNumberIT_T0_XT1_EEERKS8_
FNDA:0,_ZN11MetaPhysicL26derivative_division_helperIdNS_28SemiDynamicSparseNumberArrayIdmNS_8NWrapperILm53EEEEELb1EEEvRNS_10DualNumberIT_T0_XT1_EEERKS8_
FN:464,_ZN11MetaPhysicL10DualNumberIdNS_28SemiDynamicSparseNumberArrayIdmNS_8NWrapperILm53EEEEELb1EEpLIdS4_EERS5_RKNS0_IT_T0_Lb1EEE
FNDA:121338000,_ZN11MetaPhysicL10DualNumberIdNS_28SemiDynamicSparseNumberArrayIdmNS_8NWrapperILm53EEEEELb1EEpLIdS4_EERS5_RKNS0_IT_T0_Lb1EEE
FN:466,_ZN11MetaPhysicL10DualNumberIdNS_28SemiDynamicSparseNumberArrayIdmNS_8NWrapperILm53EEEEELb1EEmIIdS4_EERS5_RKNS0_IT_T0_Lb1EEE
FNDA:6730930,_ZN11MetaPhysicL10DualNumberIdNS_28SemiDynamicSparseNumberArrayIdmNS_8NWrapperILm53EEEEELb1EEmIIdS4_EERS5_RKNS0_IT_T0_Lb1EEE
FN:468,_ZN11MetaPhysicL10DualNumberIdNS_28SemiDynamicSparseNumberArrayIdmNS_8NWrapperILm53EEEEELb1EEmLIdEERS5_RKT_
FNDA:251136,_ZN11MetaPhysicL10DualNumberIdNS_28SemiDynamicSparseNumberArrayIdmNS_8NWrapperILm53EEEEELb1EEmLIdEERS5_RKT_
FN:468,_ZN11MetaPhysicL10DualNumberIdNS_28SemiDynamicSparseNumberArrayIdmNS_8NWrapperILm53EEEEELb1EEmLIdS4_EERS5_RKNS0_IT_T0_Lb1EEE
FNDA:2978940,_ZN11MetaPhysicL10DualNumberIdNS_28SemiDynamicSparseNumberArrayIdmNS_8NWrapperILm53EEEEELb1EEmLIdS4_EERS5_RKNS0_IT_T0_Lb1EEE
FN:473,_ZN11MetaPhysicL10DualNumberIdNS_28SemiDynamicSparseNumberArrayIdmNS_8NWrapperILm53EEEEELb1EEdVIdS4_EERS5_RKNS0_IT_T0_Lb1EEE
FNDA:12975300,_ZN11MetaPhysicL10DualNumberIdNS_28SemiDynamicSparseNumberArrayIdmNS_8NWrapperILm53EEEEELb1EEdVIdS4_EERS5_RKNS0_IT_T0_Lb1EEE
FN:473,_ZN11MetaPhysicL10DualNumberIdNS_28SemiDynamicSparseNumberArrayIdmNS_8NWrapperILm53EEEEELb1EEdVIdEERS5_RKT_
FNDA:66672,_ZN11MetaPhysicL10DualNumberIdNS_28SemiDynamicSparseNumberArrayIdmNS_8NWrapperILm53EEEEELb1EEdVIdEERS5_RKT_
FN:473,_ZN11MetaPhysicL10DualNumberIdNS_28SemiDynamicSparseNumberArrayIdmNS_8NWrapperILm53EEEEELb1EEdVIiEERS5_RKT_
FNDA:4685580,_ZN11MetaPhysicL10DualNumberIdNS_28SemiDynamicSparseNumberArrayIdmNS_8NWrapperILm53EEEEELb1EEdVIiEERS5_RKT_
FN:634,_ZSt4sqrtIdN11MetaPhysicL28SemiDynamicSparseNumberArrayIdmNS0_8NWrapperILm53EEEEELb1EENS0_10DualNumberIT_T0_XT1_EEERKS8_
FNDA:41856,_ZSt4sqrtIdN11MetaPhysicL28SemiDynamicSparseNumberArrayIdmNS0_8NWrapperILm53EEEEELb1EENS0_10DualNumberIT_T0_XT1_EEERKS8_
FN:634,_ZSt4sqrtIdN11MetaPhysicL28SemiDynamicSparseNumberArrayIdmNS0_8NWrapperILm53EEEEELb1EENS0_10DualNumberIT_T0_XT1_EEEOS8_
FNDA:272800,_ZSt4sqrtIdN11MetaPhysicL28SemiDynamicSparseNumberArrayIdmNS0_8NWrapperILm53EEEEELb1EENS0_10DualNumberIT_T0_XT1_EEEOS8_
FN:635,_ZSt3expIdN11MetaPhysicL28SemiDynamicSparseNumberArrayIdmNS0_8NWrapperILm53EEEEELb1EENS0_10DualNumberIT_T0_XT1_EEEOS8_
FNDA:33336,_ZSt3expIdN11MetaPhysicL28SemiDynamicSparseNumberArrayIdmNS0_8NWrapperILm53EEEEELb1EENS0_10DualNumberIT_T0_XT1_EEEOS8_
FN:649,_ZSt4normIdN11MetaPhysicL28SemiDynamicSparseNumberArrayIdmNS0_8NWrapperILm53EEEEELb1EENS0_10DualNumberIT_T0_XT1_EEERKS8_
FNDA:818400,_ZSt4normIdN11MetaPhysicL28SemiDynamicSparseNumberArrayIdmNS0_8NWrapperILm53EEEEELb1EENS0_10DualNumberIT_T0_XT1_EEERKS8_
FNF:22
FNH:15
DA:48,0
DA:53,0
DA:63,74892000
DA:73,0
DA:97,0
DA:99,0
DA:101,0
DA:104,0
DA:110,16018100
DA:112,16018100
DA:114,16018100
DA:117,16018100
DA:136,0
DA:137,0
DA:139,0
DA:141,0
DA:145,0
DA:146,0
DA:148,0
DA:150,0
DA:187,1200000
DA:189,1200000
DA:190,1200000
DA:191,720000
DA:192,1200000
DA:214,209280
DA:215,209280
DA:217,209280
DA:218,151680
DA:219,209280
DA:214,609280
DA:215,609280
DA:217,609280
DA:218,391680
DA:219,609280
DA:224,0
DA:226,0
DA:228,0
DA:229,0
DA:230,0
DA:259,0
DA:262,0
DA:265,0
DA:266,0
DA:269,0
DA:270,0
DA:310,0
DA:313,0
DA:316,0
DA:317,0
DA:318,0
DA:321,0
DA:322,0
DA:464,122304000
DA:466,6856500
DA:468,251136
DA:468,2978940
DA:468,2533980
DA:473,4685580
DA:473,12975300
DA:473,66672
DA:473,2207510
DA:634,442400
DA:634,41856
DA:635,49424
DA:649,818400
LF:66
LH:33
end_of_record
SF:/home/runner/work/raccoon/raccoon/moose/framework/build/header_symlinks/Registry.h
FN:162,_ZN8Registry3addI30ThinFilmInterfaceEnergyDensityEEcRK13RegistryEntry
FNDA:37,_ZN8Registry3addI30ThinFilmInterfaceEnergyDensityEEcRK13RegistryEntry
FN:162,_ZN8Registry3addI15PressureDensityEEcRK13RegistryEntry
FNDA:37,_ZN8Registry3addI15PressureDensityEEcRK13RegistryEntry
FN:162,_ZN8Registry3addI20NucleationMicroForceEEcRK13RegistryEntry
FNDA:37,_ZN8Registry3addI20NucleationMicroForceEEcRK13RegistryEntry
FN:162,_ZN8Registry3addI19CrackSurfaceDensityEEcRK13RegistryEntry
FNDA:37,_ZN8Registry3addI19CrackSurfaceDensityEEcRK13RegistryEntry
FN:162,_ZN8Registry3addI43ComputeEigenstrainFromFunctionInitialStressEEcRK13RegistryEntry
FNDA:37,_ZN8Registry3addI43ComputeEigenstrainFromFunctionInitialStressEEcRK13RegistryEntry
FN:162,_ZN8Registry3addI12ArrheniusLawEEcRK13RegistryEntry
FNDA:37,_ZN8Registry3addI12ArrheniusLawEEcRK13RegistryEntry
FN:232,_ZN8Registry5buildI30ThinFilmInterfaceEnergyDensity11MooseObjectEESt10shared_ptrIT0_ERK15InputParameters
FNDA:3,_ZN8Registry5buildI30ThinFilmInterfaceEnergyDensity11MooseObjectEESt10shared_ptrIT0_ERK15InputParameters
FN:232,_ZN8Registry5buildI15PressureDensity11MooseObjectEESt10shared_ptrIT0_ERK15InputParameters
FNDA:6,_ZN8Registry5buildI15PressureDensity11MooseObjectEESt10shared_ptrIT0_ERK15InputParameters
FN:232,_ZN8Registry5buildI20NucleationMicroForce11MooseObjectEESt10shared_ptrIT0_ERK15InputParameters
FNDA:3,_ZN8Registry5buildI20NucleationMicroForce11MooseObjectEESt10shared_ptrIT0_ERK15InputParameters
FN:232,_ZN8Registry5buildI19CrackSurfaceDensity11MooseObjectEESt10shared_ptrIT0_ERK15InputParameters
FNDA:0,_ZN8Registry5buildI19CrackSurfaceDensity11MooseObjectEESt10shared_ptrIT0_ERK15InputParameters
FN:232,_ZN8Registry5buildI43ComputeEigenstrainFromFunctionInitialStress11MooseObjectEESt10shared_ptrIT0_ERK15InputParameters
FNDA:3,_ZN8Registry5buildI43ComputeEigenstrainFromFunctionInitialStress11MooseObjectEESt10shared_ptrIT0_ERK15InputParameters
FN:232,_ZN8Registry5buildI12ArrheniusLaw11MooseObjectEESt10shared_ptrIT0_ERK15InputParameters
FNDA:12,_ZN8Registry5buildI12ArrheniusLaw11MooseObjectEESt10shared_ptrIT0_ERK15InputParameters
FNF:12
FNH:11
DA:162,37
DA:164,74
DA:165,37
DA:166,37
DA:167,37
DA:168,37
DA:162,37
DA:164,74
DA:165,37
DA:166,37
DA:167,37
DA:168,37
DA:162,37
DA:164,74
DA:165,37
DA:166,37
DA:167,37
DA:168,37
DA:162,37
DA:164,74
DA:165,37
DA:166,37
DA:167,37
DA:168,37
DA:162,37
DA:164,74
DA:165,37
DA:166,37
DA:167,37
DA:168,37
DA:162,37
DA:164,74
DA:165,37
DA:166,37
DA:167,37
DA:168,37
DA:232,3
DA:234,3
DA:232,6
DA:234,6
DA:232,3
DA:234,3
DA:232,0
DA:234,0
DA:232,3
DA:234,3
DA:232,12
DA:234,12
LF:48
LH:46
end_of_record
SF:/home/runner/work/raccoon/raccoon/moose/framework/build/header_symlinks/MooseFunctor.h
FN:80,_ZN5MooseltERKNS_15ElemFromFaceArgES2_
FNDA:0,_ZN5MooseltERKNS_15ElemFromFaceArgES2_
FN:140,_ZN5MooseltERKNS_7FaceArgES2_
FNDA:0,_ZN5MooseltERKNS_7FaceArgES2_
FN:211,_ZN5MooseltERKNS_18SingleSidedFaceArgES2_
FNDA:0,_ZN5MooseltERKNS_18SingleSidedFaceArgES2_
FN:264,_ZN5Moose11FunctorBaseIN11MetaPhysicL10DualNumberIdNS1_28SemiDynamicSparseNumberArrayIdmNS1_8NWrapperILm53EEEEELb1EEEED0Ev
FNDA:0,_ZN5Moose11FunctorBaseIN11MetaPhysicL10DualNumberIdNS1_28SemiDynamicSparseNumberArrayIdmNS1_8NWrapperILm53EEEEELb1EEEED0Ev
FN:264,_ZN5Moose11FunctorBaseIN11MetaPhysicL10DualNumberIdNS1_28SemiDynamicSparseNumberArrayIdmNS1_8NWrapperILm53EEEEELb1EEEED2Ev
FNDA:0,_ZN5Moose11FunctorBaseIN11MetaPhysicL10DualNumberIdNS1_28SemiDynamicSparseNumberArrayIdmNS1_8NWrapperILm53EEEEELb1EEEED2Ev
FN:264,_ZN5Moose11FunctorBaseIdED0Ev
FNDA:0,_ZN5Moose11FunctorBaseIdED0Ev
FN:264,_ZN5Moose11FunctorBaseIdED2Ev
FNDA:0,_ZN5Moose11FunctorBaseIdED2Ev
FN:325,_ZNK5Moose11FunctorBaseIdE9hasBlocksERKt
FNDA:0,_ZNK5Moose11FunctorBaseIdE9hasBlocksERKt
FN:325,_ZNK5Moose11FunctorBaseIN11MetaPhysicL10DualNumberIdNS1_28SemiDynamicSparseNumberArrayIdmNS1_8NWrapperILm53EEEEELb1EEEE9hasBlocksERKt
FNDA:0,_ZNK5Moose11FunctorBaseIN11MetaPhysicL10DualNumberIdNS1_28SemiDynamicSparseNumberArrayIdmNS1_8NWrapperILm53EEEEELb1EEEE9hasBlocksERKt
FN:337,_ZNK5Moose11FunctorBaseIdE26isExtrapolatedBoundaryFaceERK8FaceInfo
FNDA:0,_ZNK5Moose11FunctorBaseIdE26isExtrapolatedBoundaryFaceERK8FaceInfo
FN:337,_ZNK5Moose11FunctorBaseIN11MetaPhysicL10DualNumberIdNS1_28SemiDynamicSparseNumberArrayIdmNS1_8NWrapperILm53EEEEELb1EEEE26isExtrapolatedBoundaryFaceERK8FaceInfo
FNDA:0,_ZNK5Moose11FunctorBaseIN11MetaPhysicL10DualNumberIdNS1_28SemiDynamicSparseNumberArrayIdmNS1_8NWrapperILm53EEEEELb1EEEE26isExtrapolatedBoundaryFaceERK8FaceInfo
FN:345,_ZNK5Moose11FunctorBaseIN11MetaPhysicL10DualNumberIdNS1_28SemiDynamicSparseNumberArrayIdmNS1_8NWrapperILm53EEEEELb1EEEE10isConstantEv
FNDA:0,_ZNK5Moose11FunctorBaseIN11MetaPhysicL10DualNumberIdNS1_28SemiDynamicSparseNumberArrayIdmNS1_8NWrapperILm53EEEEELb1EEEE10isConstantEv
FN:345,_ZNK5Moose11FunctorBaseIdE10isConstantEv
FNDA:0,_ZNK5Moose11FunctorBaseIdE10isConstantEv
FN:398,_ZNK5Moose11FunctorBaseIN11MetaPhysicL10DualNumberIdNS1_28SemiDynamicSparseNumberArrayIdmNS1_8NWrapperILm53EEEEELb1EEEE16evaluateGradientERKNS_7ElemArgEj
FNDA:0,_ZNK5Moose11FunctorBaseIN11MetaPhysicL10DualNumberIdNS1_28SemiDynamicSparseNumberArrayIdmNS1_8NWrapperILm53EEEEELb1EEEE16evaluateGradientERKNS_7ElemArgEj
FN:398,_ZNK5Moose11FunctorBaseIdE16evaluateGradientERKNS_7ElemArgEj
FNDA:0,_ZNK5Moose11FunctorBaseIdE16evaluateGradientERKNS_7ElemArgEj
FN:409,_ZNK5Moose11FunctorBaseIN11MetaPhysicL10DualNumberIdNS1_28SemiDynamicSparseNumberArrayIdmNS1_8NWrapperILm53EEEEELb1EEEE16evaluateGradientERKNS_15ElemFromFaceArgEj
FNDA:0,_ZNK5Moose11FunctorBaseIN11MetaPhysicL10DualNumberIdNS1_28SemiDynamicSparseNumberArrayIdmNS1_8NWrapperILm53EEEEELb1EEEE16evaluateGradientERKNS_15ElemFromFaceArgEj
FN:409,_ZNK5Moose11FunctorBaseIdE16evaluateGradientERKNS_15ElemFromFaceArgEj
FNDA:0,_ZNK5Moose11FunctorBaseIdE16evaluateGradientERKNS_15ElemFromFaceArgEj
FN:421,_ZNK5Moose11FunctorBaseIN11MetaPhysicL10DualNumberIdNS1_28SemiDynamicSparseNumberArrayIdmNS1_8NWrapperILm53EEEEELb1EEEE16evaluateGradientERKNS_7FaceArgEj
FNDA:0,_ZNK5Moose11FunctorBaseIN11MetaPhysicL10DualNumberIdNS1_28SemiDynamicSparseNumberArrayIdmNS1_8NWrapperILm53EEEEELb1EEEE16evaluateGradientERKNS_7FaceArgEj
FN:421,_ZNK5Moose11FunctorBaseIdE16evaluateGradientERKNS_7FaceArgEj
FNDA:0,_ZNK5Moose11FunctorBaseIdE16evaluateGradientERKNS_7FaceArgEj
FN:432,_ZNK5Moose11FunctorBaseIN11MetaPhysicL10DualNumberIdNS1_28SemiDynamicSparseNumberArrayIdmNS1_8NWrapperILm53EEEEELb1EEEE16evaluateGradientERKNS_18SingleSidedFaceArgEj
FNDA:0,_ZNK5Moose11FunctorBaseIN11MetaPhysicL10DualNumberIdNS1_28SemiDynamicSparseNumberArrayIdmNS1_8NWrapperILm53EEEEELb1EEEE16evaluateGradientERKNS_18SingleSidedFaceArgEj
FN:432,_ZNK5Moose11FunctorBaseIdE16evaluateGradientERKNS_18SingleSidedFaceArgEj
FNDA:0,_ZNK5Moose11FunctorBaseIdE16evaluateGradientERKNS_18SingleSidedFaceArgEj
FN:443,_ZNK5Moose11FunctorBaseIdE16evaluateGradientERKSt5tupleIJPKN7libMesh4ElemEjPKNS3_5QBaseEEEj
FNDA:0,_ZNK5Moose11FunctorBaseIdE16evaluateGradientERKSt5tupleIJPKN7libMesh4ElemEjPKNS3_5QBaseEEEj
FN:443,_ZNK5Moose11FunctorBaseIN11MetaPhysicL10DualNumberIdNS1_28SemiDynamicSparseNumberArrayIdmNS1_8NWrapperILm53EEEEELb1EEEE16evaluateGradientERKSt5tupleIJPKN7libMesh4ElemEjPKNSA_5QBaseEEEj
FNDA:0,_ZNK5Moose11FunctorBaseIN11MetaPhysicL10DualNumberIdNS1_28SemiDynamicSparseNumberArrayIdmNS1_8NWrapperILm53EEEEELb1EEEE16evaluateGradientERKSt5tupleIJPKN7libMesh4ElemEjPKNSA_5QBaseEEEj
FN:454,_ZNK5Moose11FunctorBaseIdE16evaluateGradientERKSt5tupleIJPKN7libMesh4ElemEjjPKNS3_5QBaseEEEj
FNDA:0,_ZNK5Moose11FunctorBaseIdE16evaluateGradientERKSt5tupleIJPKN7libMesh4ElemEjjPKNS3_5QBaseEEEj
FN:454,_ZNK5Moose11FunctorBaseIN11MetaPhysicL10DualNumberIdNS1_28SemiDynamicSparseNumberArrayIdmNS1_8NWrapperILm53EEEEELb1EEEE16evaluateGradientERKSt5tupleIJPKN7libMesh4ElemEjjPKNSA_5QBaseEEEj
FNDA:0,_ZNK5Moose11FunctorBaseIN11MetaPhysicL10DualNumberIdNS1_28SemiDynamicSparseNumberArrayIdmNS1_8NWrapperILm53EEEEELb1EEEE16evaluateGradientERKSt5tupleIJPKN7libMesh4ElemEjjPKNSA_5QBaseEEEj
FN:464,_ZNK5Moose11FunctorBaseIdE11evaluateDotERKNS_7ElemArgEj
FNDA:0,_ZNK5Moose11FunctorBaseIdE11evaluateDotERKNS_7ElemArgEj
FN:464,_ZNK5Moose11FunctorBaseIN11MetaPhysicL10DualNumberIdNS1_28SemiDynamicSparseNumberArrayIdmNS1_8NWrapperILm53EEEEELb1EEEE11evaluateDotERKNS_7ElemArgEj
FNDA:0,_ZNK5Moose11FunctorBaseIN11MetaPhysicL10DualNumberIdNS1_28SemiDynamicSparseNumberArrayIdmNS1_8NWrapperILm53EEEEELb1EEEE11evaluateDotERKNS_7ElemArgEj
FN:475,_ZNK5Moose11FunctorBaseIdE11evaluateDotERKNS_15ElemFromFaceArgEj
FNDA:0,_ZNK5Moose11FunctorBaseIdE11evaluateDotERKNS_15ElemFromFaceArgEj
FN:475,_ZNK5Moose11FunctorBaseIN11MetaPhysicL10DualNumberIdNS1_28SemiDynamicSparseNumberArrayIdmNS1_8NWrapperILm53EEEEELb1EEEE11evaluateDotERKNS_15ElemFromFaceArgEj
FNDA:0,_ZNK5Moose11FunctorBaseIN11MetaPhysicL10DualNumberIdNS1_28SemiDynamicSparseNumberArrayIdmNS1_8NWrapperILm53EEEEELb1EEEE11evaluateDotERKNS_15ElemFromFaceArgEj
FN:487,_ZNK5Moose11FunctorBaseIdE11evaluateDotERKNS_7FaceArgEj
FNDA:0,_ZNK5Moose11FunctorBaseIdE11evaluateDotERKNS_7FaceArgEj
FN:487,_ZNK5Moose11FunctorBaseIN11MetaPhysicL10DualNumberIdNS1_28SemiDynamicSparseNumberArrayIdmNS1_8NWrapperILm53EEEEELb1EEEE11evaluateDotERKNS_7FaceArgEj
FNDA:0,_ZNK5Moose11FunctorBaseIN11MetaPhysicL10DualNumberIdNS1_28SemiDynamicSparseNumberArrayIdmNS1_8NWrapperILm53EEEEELb1EEEE11evaluateDotERKNS_7FaceArgEj
FN:498,_ZNK5Moose11FunctorBaseIdE11evaluateDotERKNS_18SingleSidedFaceArgEj
FNDA:0,_ZNK5Moose11FunctorBaseIdE11evaluateDotERKNS_18SingleSidedFaceArgEj
FN:498,_ZNK5Moose11FunctorBaseIN11MetaPhysicL10DualNumberIdNS1_28SemiDynamicSparseNumberArrayIdmNS1_8NWrapperILm53EEEEELb1EEEE11evaluateDotERKNS_18SingleSidedFaceArgEj
FNDA:0,_ZNK5Moose11FunctorBaseIN11MetaPhysicL10DualNumberIdNS1_28SemiDynamicSparseNumberArrayIdmNS1_8NWrapperILm53EEEEELb1EEEE11evaluateDotERKNS_18SingleSidedFaceArgEj
FN:509,_ZNK5Moose11FunctorBaseIN11MetaPhysicL10DualNumberIdNS1_28SemiDynamicSparseNumberArrayIdmNS1_8NWrapperILm53EEEEELb1EEEE11evaluateDotERKSt5tupleIJPKN7libMesh4ElemEjPKNSA_5QBaseEEEj
FNDA:0,_ZNK5Moose11FunctorBaseIN11MetaPhysicL10DualNumberIdNS1_28SemiDynamicSparseNumberArrayIdmNS1_8NWrapperILm53EEEEELb1EEEE11evaluateDotERKSt5tupleIJPKN7libMesh4ElemEjPKNSA_5QBaseEEEj
FN:509,_ZNK5Moose11FunctorBaseIdE11evaluateDotERKSt5tupleIJPKN7libMesh4ElemEjPKNS3_5QBaseEEEj
FNDA:0,_ZNK5Moose11FunctorBaseIdE11evaluateDotERKSt5tupleIJPKN7libMesh4ElemEjPKNS3_5QBaseEEEj
FN:521,_ZNK5Moose11FunctorBaseIN11MetaPhysicL10DualNumberIdNS1_28SemiDynamicSparseNumberArrayIdmNS1_8NWrapperILm53EEEEELb1EEEE11evaluateDotERKSt5tupleIJPKN7libMesh4ElemEjjPKNSA_5QBaseEEEj
FNDA:0,_ZNK5Moose11FunctorBaseIN11MetaPhysicL10DualNumberIdNS1_28SemiDynamicSparseNumberArrayIdmNS1_8NWrapperILm53EEEEELb1EEEE11evaluateDotERKSt5tupleIJPKN7libMesh4ElemEjjPKNSA_5QBaseEEEj
FN:521,_ZNK5Moose11FunctorBaseIdE11evaluateDotERKSt5tupleIJPKN7libMesh4ElemEjjPKNS3_5QBaseEEEj
FNDA:0,_ZNK5Moose11FunctorBaseIdE11evaluateDotERKSt5tupleIJPKN7libMesh4ElemEjjPKNS3_5QBaseEEEj
FN:607,_ZNK5Moose11FunctorBaseIN11MetaPhysicL10DualNumberIdNS1_28SemiDynamicSparseNumberArrayIdmNS1_8NWrapperILm53EEEEELb1EEEE15queryFVArgCacheINS_7ElemArgEEES7_RSt3mapIT_S7_St4lessISC_ESaISt4pairIKSC_S7_EEERSG_
FNDA:0,_ZNK5Moose11FunctorBaseIN11MetaPhysicL10DualNumberIdNS1_28SemiDynamicSparseNumberArrayIdmNS1_8NWrapperILm53EEEEELb1EEEE15queryFVArgCacheINS_7ElemArgEEES7_RSt3mapIT_S7_St4lessISC_ESaISt4pairIKSC_S7_EEERSG_
FN:607,_ZNK5Moose11FunctorBaseIN11MetaPhysicL10DualNumberIdNS1_28SemiDynamicSparseNumberArrayIdmNS1_8NWrapperILm53EEEEELb1EEEE15queryFVArgCacheINS_15ElemFromFaceArgEEES7_RSt3mapIT_S7_St4lessISC_ESaISt4pairIKSC_S7_EEERSG_
FNDA:0,_ZNK5Moose11FunctorBaseIN11MetaPhysicL10DualNumberIdNS1_28SemiDynamicSparseNumberArrayIdmNS1_8NWrapperILm53EEEEELb1EEEE15queryFVArgCacheINS_15ElemFromFaceArgEEES7_RSt3mapIT_S7_St4lessISC_ESaISt4pairIKSC_S7_EEERSG_
FN:607,_ZNK5Moose11FunctorBaseIN11MetaPhysicL10DualNumberIdNS1_28SemiDynamicSparseNumberArrayIdmNS1_8NWrapperILm53EEEEELb1EEEE15queryFVArgCacheINS_7FaceArgEEES7_RSt3mapIT_S7_St4lessISC_ESaISt4pairIKSC_S7_EEERSG_
FNDA:0,_ZNK5Moose11FunctorBaseIN11MetaPhysicL10DualNumberIdNS1_28SemiDynamicSparseNumberArrayIdmNS1_8NWrapperILm53EEEEELb1EEEE15queryFVArgCacheINS_7FaceArgEEES7_RSt3mapIT_S7_St4lessISC_ESaISt4pairIKSC_S7_EEERSG_
FN:607,_ZNK5Moose11FunctorBaseIN11MetaPhysicL10DualNumberIdNS1_28SemiDynamicSparseNumberArrayIdmNS1_8NWrapperILm53EEEEELb1EEEE15queryFVArgCacheINS_18SingleSidedFaceArgEEES7_RSt3mapIT_S7_St4lessISC_ESaISt4pairIKSC_S7_EEERSG_
FNDA:0,_ZNK5Moose11FunctorBaseIN11MetaPhysicL10DualNumberIdNS1_28SemiDynamicSparseNumberArrayIdmNS1_8NWrapperILm53EEEEELb1EEEE15queryFVArgCacheINS_18SingleSidedFaceArgEEES7_RSt3mapIT_S7_St4lessISC_ESaISt4pairIKSC_S7_EEERSG_
FN:607,_ZNK5Moose11FunctorBaseIdE15queryFVArgCacheINS_7ElemArgEEEdRSt3mapIT_dSt4lessIS5_ESaISt4pairIKS5_dEEERS9_
FNDA:0,_ZNK5Moose11FunctorBaseIdE15queryFVArgCacheINS_7ElemArgEEEdRSt3mapIT_dSt4lessIS5_ESaISt4pairIKS5_dEEERS9_
FN:607,_ZNK5Moose11FunctorBaseIdE15queryFVArgCacheINS_15ElemFromFaceArgEEEdRSt3mapIT_dSt4lessIS5_ESaISt4pairIKS5_dEEERS9_
FNDA:0,_ZNK5Moose11FunctorBaseIdE15queryFVArgCacheINS_15ElemFromFaceArgEEEdRSt3mapIT_dSt4lessIS5_ESaISt4pairIKS5_dEEERS9_
FN:607,_ZNK5Moose11FunctorBaseIdE15queryFVArgCacheINS_7FaceArgEEEdRSt3mapIT_dSt4lessIS5_ESaISt4pairIKS5_dEEERS9_
FNDA:0,_ZNK5Moose11FunctorBaseIdE15queryFVArgCacheINS_7FaceArgEEEdRSt3mapIT_dSt4lessIS5_ESaISt4pairIKS5_dEEERS9_
FN:607,_ZNK5Moose11FunctorBaseIdE15queryFVArgCacheINS_18SingleSidedFaceArgEEEdRSt3mapIT_dSt4lessIS5_ESaISt4pairIKS5_dEEERS9_
FNDA:0,_ZNK5Moose11FunctorBaseIdE15queryFVArgCacheINS_18SingleSidedFaceArgEEEdRSt3mapIT_dSt4lessIS5_ESaISt4pairIKS5_dEEERS9_
FN:623,_ZNK5Moose11FunctorBaseIN11MetaPhysicL10DualNumberIdNS1_28SemiDynamicSparseNumberArrayIdmNS1_8NWrapperILm53EEEEELb1EEEEclERKNS_7ElemArgEj
FNDA:0,_ZNK5Moose11FunctorBaseIN11MetaPhysicL10DualNumberIdNS1_28SemiDynamicSparseNumberArrayIdmNS1_8NWrapperILm53EEEEELb1EEEEclERKNS_7ElemArgEj
FN:623,_ZNK5Moose11FunctorBaseIdEclERKNS_7ElemArgEj
FNDA:0,_ZNK5Moose11FunctorBaseIdEclERKNS_7ElemArgEj
FN:636,_ZNK5Moose11FunctorBaseIdEclERKNS_15ElemFromFaceArgEj
FNDA:0,_ZNK5Moose11FunctorBaseIdEclERKNS_15ElemFromFaceArgEj
FN:636,_ZNK5Moose11FunctorBaseIN11MetaPhysicL10DualNumberIdNS1_28SemiDynamicSparseNumberArrayIdmNS1_8NWrapperILm53EEEEELb1EEEEclERKNS_15ElemFromFaceArgEj
FNDA:0,_ZNK5Moose11FunctorBaseIN11MetaPhysicL10DualNumberIdNS1_28SemiDynamicSparseNumberArrayIdmNS1_8NWrapperILm53EEEEELb1EEEEclERKNS_15ElemFromFaceArgEj
FN:649,_ZNK5Moose11FunctorBaseIN11MetaPhysicL10DualNumberIdNS1_28SemiDynamicSparseNumberArrayIdmNS1_8NWrapperILm53EEEEELb1EEEEclERKNS_7FaceArgEj
FNDA:0,_ZNK5Moose11FunctorBaseIN11MetaPhysicL10DualNumberIdNS1_28SemiDynamicSparseNumberArrayIdmNS1_8NWrapperILm53EEEEELb1EEEEclERKNS_7FaceArgEj
FN:649,_ZNK5Moose11FunctorBaseIdEclERKNS_7FaceArgEj
FNDA:0,_ZNK5Moose11FunctorBaseIdEclERKNS_7FaceArgEj
FN:662,_ZNK5Moose11FunctorBaseIdEclERKNS_18SingleSidedFaceArgEj
FNDA:0,_ZNK5Moose11FunctorBaseIdEclERKNS_18SingleSidedFaceArgEj
FN:662,_ZNK5Moose11FunctorBaseIN11MetaPhysicL10DualNumberIdNS1_28SemiDynamicSparseNumberArrayIdmNS1_8NWrapperILm53EEEEELb1EEEEclERKNS_18SingleSidedFaceArgEj
FNDA:0,_ZNK5Moose11FunctorBaseIN11MetaPhysicL10DualNumberIdNS1_28SemiDynamicSparseNumberArrayIdmNS1_8NWrapperILm53EEEEELb1EEEEclERKNS_18SingleSidedFaceArgEj
FN:676,_ZNK5Moose11FunctorBaseIdE12queryQpCacheISt5tupleIJPKN7libMesh4ElemEjPKNS4_5QBaseEEEjEEdjRS9_RSt6vectorISt4pairIbdESaISF_EERKT_RKT0_
FNDA:0,_ZNK5Moose11FunctorBaseIdE12queryQpCacheISt5tupleIJPKN7libMesh4ElemEjPKNS4_5QBaseEEEjEEdjRS9_RSt6vectorISt4pairIbdESaISF_EERKT_RKT0_
FN:676,_ZNK5Moose11FunctorBaseIdE12queryQpCacheISt5tupleIJPKN7libMesh4ElemEjjPKNS4_5QBaseEEEjEEdjRS9_RSt6vectorISt4pairIbdESaISF_EERKT_RKT0_
FNDA:0,_ZNK5Moose11FunctorBaseIdE12queryQpCacheISt5tupleIJPKN7libMesh4ElemEjjPKNS4_5QBaseEEEjEEdjRS9_RSt6vectorISt4pairIbdESaISF_EERKT_RKT0_
FN:676,_ZNK5Moose11FunctorBaseIN11MetaPhysicL10DualNumberIdNS1_28SemiDynamicSparseNumberArrayIdmNS1_8NWrapperILm53EEEEELb1EEEE12queryQpCacheISt5tupleIJPKN7libMesh4ElemEjjPKNSB_5QBaseEEEjEES7_jRSG_RSt6vectorISt4pairIbS7_ESaISM_EERKT_RKT0_
FNDA:0,_ZNK5Moose11FunctorBaseIN11MetaPhysicL10DualNumberIdNS1_28SemiDynamicSparseNumberArrayIdmNS1_8NWrapperILm53EEEEELb1EEEE12queryQpCacheISt5tupleIJPKN7libMesh4ElemEjjPKNSB_5QBaseEEEjEES7_jRSG_RSt6vectorISt4pairIbS7_ESaISM_EERKT_RKT0_
FN:676,_ZNK5Moose11FunctorBaseIN11MetaPhysicL10DualNumberIdNS1_28SemiDynamicSparseNumberArrayIdmNS1_8NWrapperILm53EEEEELb1EEEE12queryQpCacheISt5tupleIJPKN7libMesh4ElemEjPKNSB_5QBaseEEEjEES7_jRSG_RSt6vectorISt4pairIbS7_ESaISM_EERKT_RKT0_
FNDA:0,_ZNK5Moose11FunctorBaseIN11MetaPhysicL10DualNumberIdNS1_28SemiDynamicSparseNumberArrayIdmNS1_8NWrapperILm53EEEEELb1EEEE12queryQpCacheISt5tupleIJPKN7libMesh4ElemEjPKNSB_5QBaseEEEjEES7_jRSG_RSt6vectorISt4pairIbS7_ESaISM_EERKT_RKT0_
FN:706,_ZNK5Moose11FunctorBaseIN11MetaPhysicL10DualNumberIdNS1_28SemiDynamicSparseNumberArrayIdmNS1_8NWrapperILm53EEEEELb1EEEEclERKSt5tupleIJPKN7libMesh4ElemEjPKNSA_5QBaseEEEj
FNDA:0,_ZNK5Moose11FunctorBaseIN11MetaPhysicL10DualNumberIdNS1_28SemiDynamicSparseNumberArrayIdmNS1_8NWrapperILm53EEEEELb1EEEEclERKSt5tupleIJPKN7libMesh4ElemEjPKNSA_5QBaseEEEj
FN:706,_ZNK5Moose11FunctorBaseIdEclERKSt5tupleIJPKN7libMesh4ElemEjPKNS3_5QBaseEEEj
FNDA:0,_ZNK5Moose11FunctorBaseIdEclERKSt5tupleIJPKN7libMesh4ElemEjPKNS3_5QBaseEEEj
FN:727,_ZNK5Moose11FunctorBaseIN11MetaPhysicL10DualNumberIdNS1_28SemiDynamicSparseNumberArrayIdmNS1_8NWrapperILm53EEEEELb1EEEEclERKSt5tupleIJPKN7libMesh4ElemEjjPKNSA_5QBaseEEEj
FNDA:0,_ZNK5Moose11FunctorBaseIN11MetaPhysicL10DualNumberIdNS1_28SemiDynamicSparseNumberArrayIdmNS1_8NWrapperILm53EEEEELb1EEEEclERKSt5tupleIJPKN7libMesh4ElemEjjPKNSA_5QBaseEEEj
FN:727,_ZNK5Moose11FunctorBaseIdEclERKSt5tupleIJPKN7libMesh4ElemEjjPKNS3_5QBaseEEEj
FNDA:0,_ZNK5Moose11FunctorBaseIdEclERKSt5tupleIJPKN7libMesh4ElemEjjPKNS3_5QBaseEEEj
FN:764,_ZN5Moose11FunctorBaseIN11MetaPhysicL10DualNumberIdNS1_28SemiDynamicSparseNumberArrayIdmNS1_8NWrapperILm53EEEEELb1EEEE14clearCacheDataEv
FNDA:0,_ZN5Moose11FunctorBaseIN11MetaPhysicL10DualNumberIdNS1_28SemiDynamicSparseNumberArrayIdmNS1_8NWrapperILm53EEEEELb1EEEE14clearCacheDataEv
FN:764,_ZN5Moose11FunctorBaseIdE14clearCacheDataEv
FNDA:0,_ZN5Moose11FunctorBaseIdE14clearCacheDataEv
FN:791,_ZN5Moose11FunctorBaseIN11MetaPhysicL10DualNumberIdNS1_28SemiDynamicSparseNumberArrayIdmNS1_8NWrapperILm53EEEEELb1EEEE13timestepSetupEv
FNDA:0,_ZN5Moose11FunctorBaseIN11MetaPhysicL10DualNumberIdNS1_28SemiDynamicSparseNumberArrayIdmNS1_8NWrapperILm53EEEEELb1EEEE13timestepSetupEv
FN:791,_ZN5Moose11FunctorBaseIdE13timestepSetupEv
FNDA:0,_ZN5Moose11FunctorBaseIdE13timestepSetupEv
FN:799,_ZN5Moose11FunctorBaseIN11MetaPhysicL10DualNumberIdNS1_28SemiDynamicSparseNumberArrayIdmNS1_8NWrapperILm53EEEEELb1EEEE13residualSetupEv
FNDA:0,_ZN5Moose11FunctorBaseIN11MetaPhysicL10DualNumberIdNS1_28SemiDynamicSparseNumberArrayIdmNS1_8NWrapperILm53EEEEELb1EEEE13residualSetupEv
FN:799,_ZN5Moose11FunctorBaseIdE13residualSetupEv
FNDA:0,_ZN5Moose11FunctorBaseIdE13residualSetupEv
FN:807,_ZN5Moose11FunctorBaseIN11MetaPhysicL10DualNumberIdNS1_28SemiDynamicSparseNumberArrayIdmNS1_8NWrapperILm53EEEEELb1EEEE13jacobianSetupEv
FNDA:0,_ZN5Moose11FunctorBaseIN11MetaPhysicL10DualNumberIdNS1_28SemiDynamicSparseNumberArrayIdmNS1_8NWrapperILm53EEEEELb1EEEE13jacobianSetupEv
FN:807,_ZN5Moose11FunctorBaseIdE13jacobianSetupEv
FNDA:0,_ZN5Moose11FunctorBaseIdE13jacobianSetupEv
FN:991,_ZN5Moose15FunctorEnvelopeIN11MetaPhysicL10DualNumberIdNS1_28SemiDynamicSparseNumberArrayIdmNS1_8NWrapperILm53EEEEELb1EEEED0Ev
FNDA:0,_ZN5Moose15FunctorEnvelopeIN11MetaPhysicL10DualNumberIdNS1_28SemiDynamicSparseNumberArrayIdmNS1_8NWrapperILm53EEEEELb1EEEED0Ev
FN:991,_ZN5Moose15FunctorEnvelopeIN11MetaPhysicL10DualNumberIdNS1_28SemiDynamicSparseNumberArrayIdmNS1_8NWrapperILm53EEEEELb1EEEED2Ev
FNDA:0,_ZN5Moose15FunctorEnvelopeIN11MetaPhysicL10DualNumberIdNS1_28SemiDynamicSparseNumberArrayIdmNS1_8NWrapperILm53EEEEELb1EEEED2Ev
FN:991,_ZN5Moose15FunctorEnvelopeIdED0Ev
FNDA:0,_ZN5Moose15FunctorEnvelopeIdED0Ev
FN:991,_ZN5Moose15FunctorEnvelopeIdED2Ev
FNDA:0,_ZN5Moose15FunctorEnvelopeIdED2Ev
FN:996,_ZNK5Moose15FunctorEnvelopeIdE9wrapsNullEv
FNDA:0,_ZNK5Moose15FunctorEnvelopeIdE9wrapsNullEv
FN:996,_ZNK5Moose15FunctorEnvelopeIN11MetaPhysicL10DualNumberIdNS1_28SemiDynamicSparseNumberArrayIdmNS1_8NWrapperILm53EEEEELb1EEEE9wrapsNullEv
FNDA:0,_ZNK5Moose15FunctorEnvelopeIN11MetaPhysicL10DualNumberIdNS1_28SemiDynamicSparseNumberArrayIdmNS1_8NWrapperILm53EEEEELb1EEEE9wrapsNullEv
FN:1001,_ZNK5Moose15FunctorEnvelopeIdE10returnTypeB5cxx11Ev
FNDA:0,_ZNK5Moose15FunctorEnvelopeIdE10returnTypeB5cxx11Ev
FN:1001,_ZNK5Moose15FunctorEnvelopeIN11MetaPhysicL10DualNumberIdNS1_28SemiDynamicSparseNumberArrayIdmNS1_8NWrapperILm53EEEEELb1EEEE10returnTypeB5cxx11Ev
FNDA:0,_ZNK5Moose15FunctorEnvelopeIN11MetaPhysicL10DualNumberIdNS1_28SemiDynamicSparseNumberArrayIdmNS1_8NWrapperILm53EEEEELb1EEEE10returnTypeB5cxx11Ev
FN:1007,_ZNK5Moose15FunctorEnvelopeIdE9wrapsTypeINS_11NullFunctorIdEEEEbv
FNDA:0,_ZNK5Moose15FunctorEnvelopeIdE9wrapsTypeINS_11NullFunctorIdEEEEbv
FN:1007,_ZNK5Moose15FunctorEnvelopeIN11MetaPhysicL10DualNumberIdNS1_28SemiDynamicSparseNumberArrayIdmNS1_8NWrapperILm53EEEEELb1EEEE9wrapsTypeINS_11NullFunctorIS7_EEEEbv
FNDA:0,_ZNK5Moose15FunctorEnvelopeIN11MetaPhysicL10DualNumberIdNS1_28SemiDynamicSparseNumberArrayIdmNS1_8NWrapperILm53EEEEELb1EEEE9wrapsTypeINS_11NullFunctorIS7_EEEEbv
FN:1012,_ZN5Moose15FunctorEnvelopeIN11MetaPhysicL10DualNumberIdNS1_28SemiDynamicSparseNumberArrayIdmNS1_8NWrapperILm53EEEEELb1EEEE13timestepSetupEv
FNDA:0,_ZN5Moose15FunctorEnvelopeIN11MetaPhysicL10DualNumberIdNS1_28SemiDynamicSparseNumberArrayIdmNS1_8NWrapperILm53EEEEELb1EEEE13timestepSetupEv
FN:1012,_ZN5Moose15FunctorEnvelopeIdE13timestepSetupEv
FNDA:0,_ZN5Moose15FunctorEnvelopeIdE13timestepSetupEv
FN:1017,_ZN5Moose15FunctorEnvelopeIN11MetaPhysicL10DualNumberIdNS1_28SemiDynamicSparseNumberArrayIdmNS1_8NWrapperILm53EEEEELb1EEEE13residualSetupEv
FNDA:0,_ZN5Moose15FunctorEnvelopeIN11MetaPhysicL10DualNumberIdNS1_28SemiDynamicSparseNumberArrayIdmNS1_8NWrapperILm53EEEEELb1EEEE13residualSetupEv
FN:1017,_ZN5Moose15FunctorEnvelopeIdE13residualSetupEv
FNDA:0,_ZN5Moose15FunctorEnvelopeIdE13residualSetupEv
FN:1022,_ZN5Moose15FunctorEnvelopeIN11MetaPhysicL10DualNumberIdNS1_28SemiDynamicSparseNumberArrayIdmNS1_8NWrapperILm53EEEEELb1EEEE13jacobianSetupEv
FNDA:0,_ZN5Moose15FunctorEnvelopeIN11MetaPhysicL10DualNumberIdNS1_28SemiDynamicSparseNumberArrayIdmNS1_8NWrapperILm53EEEEELb1EEEE13jacobianSetupEv
FN:1022,_ZN5Moose15FunctorEnvelopeIdE13jacobianSetupEv
FNDA:0,_ZN5Moose15FunctorEnvelopeIdE13jacobianSetupEv
FN:1028,_ZNK5Moose15FunctorEnvelopeIdE10isConstantEv
FNDA:0,_ZNK5Moose15FunctorEnvelopeIdE10isConstantEv
FN:1028,_ZNK5Moose15FunctorEnvelopeIN11MetaPhysicL10DualNumberIdNS1_28SemiDynamicSparseNumberArrayIdmNS1_8NWrapperILm53EEEEELb1EEEE10isConstantEv
FNDA:0,_ZNK5Moose15FunctorEnvelopeIN11MetaPhysicL10DualNumberIdNS1_28SemiDynamicSparseNumberArrayIdmNS1_8NWrapperILm53EEEEELb1EEEE10isConstantEv
FN:1030,_ZNK5Moose15FunctorEnvelopeIN11MetaPhysicL10DualNumberIdNS1_28SemiDynamicSparseNumberArrayIdmNS1_8NWrapperILm53EEEEELb1EEEE9hasBlocksERKt
FNDA:0,_ZNK5Moose15FunctorEnvelopeIN11MetaPhysicL10DualNumberIdNS1_28SemiDynamicSparseNumberArrayIdmNS1_8NWrapperILm53EEEEELb1EEEE9hasBlocksERKt
FN:1030,_ZNK5Moose15FunctorEnvelopeIdE9hasBlocksERKt
FNDA:0,_ZNK5Moose15FunctorEnvelopeIdE9hasBlocksERKt
FN:1037,_ZNK5Moose15FunctorEnvelopeIdE8evaluateERKNS_7ElemArgEj
FNDA:0,_ZNK5Moose15FunctorEnvelopeIdE8evaluateERKNS_7ElemArgEj
FN:1037,_ZNK5Moose15FunctorEnvelopeIN11MetaPhysicL10DualNumberIdNS1_28SemiDynamicSparseNumberArrayIdmNS1_8NWrapperILm53EEEEELb1EEEE8evaluateERKNS_7ElemArgEj
FNDA:0,_ZNK5Moose15FunctorEnvelopeIN11MetaPhysicL10DualNumberIdNS1_28SemiDynamicSparseNumberArrayIdmNS1_8NWrapperILm53EEEEELb1EEEE8evaluateERKNS_7ElemArgEj
FN:1041,_ZNK5Moose15FunctorEnvelopeIdE8evaluateERKNS_15ElemFromFaceArgEj
FNDA:0,_ZNK5Moose15FunctorEnvelopeIdE8evaluateERKNS_15ElemFromFaceArgEj
FN:1041,_ZNK5Moose15FunctorEnvelopeIN11MetaPhysicL10DualNumberIdNS1_28SemiDynamicSparseNumberArrayIdmNS1_8NWrapperILm53EEEEELb1EEEE8evaluateERKNS_15ElemFromFaceArgEj
FNDA:0,_ZNK5Moose15FunctorEnvelopeIN11MetaPhysicL10DualNumberIdNS1_28SemiDynamicSparseNumberArrayIdmNS1_8NWrapperILm53EEEEELb1EEEE8evaluateERKNS_15ElemFromFaceArgEj
FN:1045,_ZNK5Moose15FunctorEnvelopeIdE8evaluateERKNS_7FaceArgEj
FNDA:0,_ZNK5Moose15FunctorEnvelopeIdE8evaluateERKNS_7FaceArgEj
FN:1045,_ZNK5Moose15FunctorEnvelopeIN11MetaPhysicL10DualNumberIdNS1_28SemiDynamicSparseNumberArrayIdmNS1_8NWrapperILm53EEEEELb1EEEE8evaluateERKNS_7FaceArgEj
FNDA:0,_ZNK5Moose15FunctorEnvelopeIN11MetaPhysicL10DualNumberIdNS1_28SemiDynamicSparseNumberArrayIdmNS1_8NWrapperILm53EEEEELb1EEEE8evaluateERKNS_7FaceArgEj
FN:1049,_ZNK5Moose15FunctorEnvelopeIdE8evaluateERKNS_18SingleSidedFaceArgEj
FNDA:0,_ZNK5Moose15FunctorEnvelopeIdE8evaluateERKNS_18SingleSidedFaceArgEj
FN:1049,_ZNK5Moose15FunctorEnvelopeIN11MetaPhysicL10DualNumberIdNS1_28SemiDynamicSparseNumberArrayIdmNS1_8NWrapperILm53EEEEELb1EEEE8evaluateERKNS_18SingleSidedFaceArgEj
FNDA:0,_ZNK5Moose15FunctorEnvelopeIN11MetaPhysicL10DualNumberIdNS1_28SemiDynamicSparseNumberArrayIdmNS1_8NWrapperILm53EEEEELb1EEEE8evaluateERKNS_18SingleSidedFaceArgEj
FN:1053,_ZNK5Moose15FunctorEnvelopeIdE8evaluateERKSt5tupleIJPKN7libMesh4ElemEjPKNS3_5QBaseEEEj
FNDA:0,_ZNK5Moose15FunctorEnvelopeIdE8evaluateERKSt5tupleIJPKN7libMesh4ElemEjPKNS3_5QBaseEEEj
FN:1053,_ZNK5Moose15FunctorEnvelopeIN11MetaPhysicL10DualNumberIdNS1_28SemiDynamicSparseNumberArrayIdmNS1_8NWrapperILm53EEEEELb1EEEE8evaluateERKSt5tupleIJPKN7libMesh4ElemEjPKNSA_5QBaseEEEj
FNDA:0,_ZNK5Moose15FunctorEnvelopeIN11MetaPhysicL10DualNumberIdNS1_28SemiDynamicSparseNumberArrayIdmNS1_8NWrapperILm53EEEEELb1EEEE8evaluateERKSt5tupleIJPKN7libMesh4ElemEjPKNSA_5QBaseEEEj
FN:1057,_ZNK5Moose15FunctorEnvelopeIdE8evaluateERKSt5tupleIJPKN7libMesh4ElemEjjPKNS3_5QBaseEEEj
FNDA:0,_ZNK5Moose15FunctorEnvelopeIdE8evaluateERKSt5tupleIJPKN7libMesh4ElemEjjPKNS3_5QBaseEEEj
FN:1057,_ZNK5Moose15FunctorEnvelopeIN11MetaPhysicL10DualNumberIdNS1_28SemiDynamicSparseNumberArrayIdmNS1_8NWrapperILm53EEEEELb1EEEE8evaluateERKSt5tupleIJPKN7libMesh4ElemEjjPKNSA_5QBaseEEEj
FNDA:0,_ZNK5Moose15FunctorEnvelopeIN11MetaPhysicL10DualNumberIdNS1_28SemiDynamicSparseNumberArrayIdmNS1_8NWrapperILm53EEEEELb1EEEE8evaluateERKSt5tupleIJPKN7libMesh4ElemEjjPKNSA_5QBaseEEEj
FN:1062,_ZNK5Moose15FunctorEnvelopeIdE16evaluateGradientERKNS_7ElemArgEj
FNDA:0,_ZNK5Moose15FunctorEnvelopeIdE16evaluateGradientERKNS_7ElemArgEj
FN:1062,_ZNK5Moose15FunctorEnvelopeIN11MetaPhysicL10DualNumberIdNS1_28SemiDynamicSparseNumberArrayIdmNS1_8NWrapperILm53EEEEELb1EEEE16evaluateGradientERKNS_7ElemArgEj
FNDA:0,_ZNK5Moose15FunctorEnvelopeIN11MetaPhysicL10DualNumberIdNS1_28SemiDynamicSparseNumberArrayIdmNS1_8NWrapperILm53EEEEELb1EEEE16evaluateGradientERKNS_7ElemArgEj
FN:1066,_ZNK5Moose15FunctorEnvelopeIN11MetaPhysicL10DualNumberIdNS1_28SemiDynamicSparseNumberArrayIdmNS1_8NWrapperILm53EEEEELb1EEEE16evaluateGradientERKNS_15ElemFromFaceArgEj
FNDA:0,_ZNK5Moose15FunctorEnvelopeIN11MetaPhysicL10DualNumberIdNS1_28SemiDynamicSparseNumberArrayIdmNS1_8NWrapperILm53EEEEELb1EEEE16evaluateGradientERKNS_15ElemFromFaceArgEj
FN:1066,_ZNK5Moose15FunctorEnvelopeIdE16evaluateGradientERKNS_15ElemFromFaceArgEj
FNDA:0,_ZNK5Moose15FunctorEnvelopeIdE16evaluateGradientERKNS_15ElemFromFaceArgEj
FN:1071,_ZNK5Moose15FunctorEnvelopeIN11MetaPhysicL10DualNumberIdNS1_28SemiDynamicSparseNumberArrayIdmNS1_8NWrapperILm53EEEEELb1EEEE16evaluateGradientERKNS_7FaceArgEj
FNDA:0,_ZNK5Moose15FunctorEnvelopeIN11MetaPhysicL10DualNumberIdNS1_28SemiDynamicSparseNumberArrayIdmNS1_8NWrapperILm53EEEEELb1EEEE16evaluateGradientERKNS_7FaceArgEj
FN:1071,_ZNK5Moose15FunctorEnvelopeIdE16evaluateGradientERKNS_7FaceArgEj
FNDA:0,_ZNK5Moose15FunctorEnvelopeIdE16evaluateGradientERKNS_7FaceArgEj
FN:1075,_ZNK5Moose15FunctorEnvelopeIN11MetaPhysicL10DualNumberIdNS1_28SemiDynamicSparseNumberArrayIdmNS1_8NWrapperILm53EEEEELb1EEEE16evaluateGradientERKNS_18SingleSidedFaceArgEj
FNDA:0,_ZNK5Moose15FunctorEnvelopeIN11MetaPhysicL10DualNumberIdNS1_28SemiDynamicSparseNumberArrayIdmNS1_8NWrapperILm53EEEEELb1EEEE16evaluateGradientERKNS_18SingleSidedFaceArgEj
FN:1075,_ZNK5Moose15FunctorEnvelopeIdE16evaluateGradientERKNS_18SingleSidedFaceArgEj
FNDA:0,_ZNK5Moose15FunctorEnvelopeIdE16evaluateGradientERKNS_18SingleSidedFaceArgEj
FN:1080,_ZNK5Moose15FunctorEnvelopeIN11MetaPhysicL10DualNumberIdNS1_28SemiDynamicSparseNumberArrayIdmNS1_8NWrapperILm53EEEEELb1EEEE16evaluateGradientERKSt5tupleIJPKN7libMesh4ElemEjPKNSA_5QBaseEEEj
FNDA:0,_ZNK5Moose15FunctorEnvelopeIN11MetaPhysicL10DualNumberIdNS1_28SemiDynamicSparseNumberArrayIdmNS1_8NWrapperILm53EEEEELb1EEEE16evaluateGradientERKSt5tupleIJPKN7libMesh4ElemEjPKNSA_5QBaseEEEj
FN:1080,_ZNK5Moose15FunctorEnvelopeIdE16evaluateGradientERKSt5tupleIJPKN7libMesh4ElemEjPKNS3_5QBaseEEEj
FNDA:0,_ZNK5Moose15FunctorEnvelopeIdE16evaluateGradientERKSt5tupleIJPKN7libMesh4ElemEjPKNS3_5QBaseEEEj
FN:1084,_ZNK5Moose15FunctorEnvelopeIN11MetaPhysicL10DualNumberIdNS1_28SemiDynamicSparseNumberArrayIdmNS1_8NWrapperILm53EEEEELb1EEEE16evaluateGradientERKSt5tupleIJPKN7libMesh4ElemEjjPKNSA_5QBaseEEEj
FNDA:0,_ZNK5Moose15FunctorEnvelopeIN11MetaPhysicL10DualNumberIdNS1_28SemiDynamicSparseNumberArrayIdmNS1_8NWrapperILm53EEEEELb1EEEE16evaluateGradientERKSt5tupleIJPKN7libMesh4ElemEjjPKNSA_5QBaseEEEj
FN:1084,_ZNK5Moose15FunctorEnvelopeIdE16evaluateGradientERKSt5tupleIJPKN7libMesh4ElemEjjPKNS3_5QBaseEEEj
FNDA:0,_ZNK5Moose15FunctorEnvelopeIdE16evaluateGradientERKSt5tupleIJPKN7libMesh4ElemEjjPKNS3_5QBaseEEEj
FN:1089,_ZNK5Moose15FunctorEnvelopeIN11MetaPhysicL10DualNumberIdNS1_28SemiDynamicSparseNumberArrayIdmNS1_8NWrapperILm53EEEEELb1EEEE11evaluateDotERKNS_7ElemArgEj
FNDA:0,_ZNK5Moose15FunctorEnvelopeIN11MetaPhysicL10DualNumberIdNS1_28SemiDynamicSparseNumberArrayIdmNS1_8NWrapperILm53EEEEELb1EEEE11evaluateDotERKNS_7ElemArgEj
FN:1089,_ZNK5Moose15FunctorEnvelopeIdE11evaluateDotERKNS_7ElemArgEj
FNDA:0,_ZNK5Moose15FunctorEnvelopeIdE11evaluateDotERKNS_7ElemArgEj
FN:1093,_ZNK5Moose15FunctorEnvelopeIdE11evaluateDotERKNS_15ElemFromFaceArgEj
FNDA:0,_ZNK5Moose15FunctorEnvelopeIdE11evaluateDotERKNS_15ElemFromFaceArgEj
FN:1093,_ZNK5Moose15FunctorEnvelopeIN11MetaPhysicL10DualNumberIdNS1_28SemiDynamicSparseNumberArrayIdmNS1_8NWrapperILm53EEEEELb1EEEE11evaluateDotERKNS_15ElemFromFaceArgEj
FNDA:0,_ZNK5Moose15FunctorEnvelopeIN11MetaPhysicL10DualNumberIdNS1_28SemiDynamicSparseNumberArrayIdmNS1_8NWrapperILm53EEEEELb1EEEE11evaluateDotERKNS_15ElemFromFaceArgEj
FN:1097,_ZNK5Moose15FunctorEnvelopeIdE11evaluateDotERKNS_7FaceArgEj
FNDA:0,_ZNK5Moose15FunctorEnvelopeIdE11evaluateDotERKNS_7FaceArgEj
FN:1097,_ZNK5Moose15FunctorEnvelopeIN11MetaPhysicL10DualNumberIdNS1_28SemiDynamicSparseNumberArrayIdmNS1_8NWrapperILm53EEEEELb1EEEE11evaluateDotERKNS_7FaceArgEj
FNDA:0,_ZNK5Moose15FunctorEnvelopeIN11MetaPhysicL10DualNumberIdNS1_28SemiDynamicSparseNumberArrayIdmNS1_8NWrapperILm53EEEEELb1EEEE11evaluateDotERKNS_7FaceArgEj
FN:1101,_ZNK5Moose15FunctorEnvelopeIdE11evaluateDotERKNS_18SingleSidedFaceArgEj
FNDA:0,_ZNK5Moose15FunctorEnvelopeIdE11evaluateDotERKNS_18SingleSidedFaceArgEj
FN:1101,_ZNK5Moose15FunctorEnvelopeIN11MetaPhysicL10DualNumberIdNS1_28SemiDynamicSparseNumberArrayIdmNS1_8NWrapperILm53EEEEELb1EEEE11evaluateDotERKNS_18SingleSidedFaceArgEj
FNDA:0,_ZNK5Moose15FunctorEnvelopeIN11MetaPhysicL10DualNumberIdNS1_28SemiDynamicSparseNumberArrayIdmNS1_8NWrapperILm53EEEEELb1EEEE11evaluateDotERKNS_18SingleSidedFaceArgEj
FN:1105,_ZNK5Moose15FunctorEnvelopeIN11MetaPhysicL10DualNumberIdNS1_28SemiDynamicSparseNumberArrayIdmNS1_8NWrapperILm53EEEEELb1EEEE11evaluateDotERKSt5tupleIJPKN7libMesh4ElemEjPKNSA_5QBaseEEEj
FNDA:0,_ZNK5Moose15FunctorEnvelopeIN11MetaPhysicL10DualNumberIdNS1_28SemiDynamicSparseNumberArrayIdmNS1_8NWrapperILm53EEEEELb1EEEE11evaluateDotERKSt5tupleIJPKN7libMesh4ElemEjPKNSA_5QBaseEEEj
FN:1105,_ZNK5Moose15FunctorEnvelopeIdE11evaluateDotERKSt5tupleIJPKN7libMesh4ElemEjPKNS3_5QBaseEEEj
FNDA:0,_ZNK5Moose15FunctorEnvelopeIdE11evaluateDotERKSt5tupleIJPKN7libMesh4ElemEjPKNS3_5QBaseEEEj
FN:1109,_ZNK5Moose15FunctorEnvelopeIdE11evaluateDotERKSt5tupleIJPKN7libMesh4ElemEjjPKNS3_5QBaseEEEj
FNDA:0,_ZNK5Moose15FunctorEnvelopeIdE11evaluateDotERKSt5tupleIJPKN7libMesh4ElemEjjPKNS3_5QBaseEEEj
FN:1109,_ZNK5Moose15FunctorEnvelopeIN11MetaPhysicL10DualNumberIdNS1_28SemiDynamicSparseNumberArrayIdmNS1_8NWrapperILm53EEEEELb1EEEE11evaluateDotERKSt5tupleIJPKN7libMesh4ElemEjjPKNSA_5QBaseEEEj
FNDA:0,_ZNK5Moose15FunctorEnvelopeIN11MetaPhysicL10DualNumberIdNS1_28SemiDynamicSparseNumberArrayIdmNS1_8NWrapperILm53EEEEELb1EEEE11evaluateDotERKSt5tupleIJPKN7libMesh4ElemEjjPKNSA_5QBaseEEEj
FNF:125
FNH:0
DA:80,0
DA:82,0
DA:83,0
DA:140,0
DA:142,0
DA:147,0
DA:152,0
DA:211,0
DA:213,0
DA:214,0
DA:264,0
DA:264,0
DA:264,0
DA:264,0
DA:325,0
DA:327,0
DA:325,0
DA:327,0
DA:337,0
DA:339,0
DA:337,0
DA:339,0
DA:345,0
DA:345,0
DA:398,0
DA:400,0
DA:398,0
DA:400,0
DA:409,0
DA:411,0
DA:409,0
DA:411,0
DA:421,0
DA:423,0
DA:421,0
DA:423,0
DA:432,0
DA:434,0
DA:432,0
DA:434,0
DA:443,0
DA:445,0
DA:443,0
DA:445,0
DA:454,0
DA:456,0
DA:454,0
DA:456,0
DA:464,0
DA:466,0
DA:464,0
DA:466,0
DA:475,0
DA:477,0
DA:475,0
DA:477,0
DA:487,0
DA:489,0
DA:487,0
DA:489,0
DA:498,0
DA:500,0
DA:498,0
DA:500,0
DA:509,0
DA:511,0
DA:509,0
DA:511,0
DA:521,0
DA:523,0
DA:521,0
DA:523,0
DA:607,0
DA:611,0
DA:614,0
DA:616,0
DA:618,0
DA:607,0
DA:611,0
DA:614,0
DA:616,0
DA:618,0
DA:607,0
DA:611,0
DA:614,0
DA:616,0
DA:618,0
DA:607,0
DA:611,0
DA:614,0
DA:616,0
DA:618,0
DA:607,0
DA:611,0
DA:612,0
DA:614,0
DA:616,0
DA:618,0
DA:607,0
DA:611,0
DA:612,0
DA:614,0
DA:616,0
DA:618,0
DA:607,0
DA:611,0
DA:612,0
DA:614,0
DA:616,0
DA:618,0
DA:607,0
DA:611,0
DA:612,0
DA:614,0
DA:616,0
DA:618,0
DA:623,0
DA:626,0
DA:631,0
DA:623,0
DA:626,0
DA:631,0
DA:636,0
DA:639,0
DA:644,0
DA:636,0
DA:639,0
DA:644,0
DA:649,0
DA:652,0
DA:657,0
DA:649,0
DA:652,0
DA:657,0
DA:662,0
DA:665,0
DA:670,0
DA:662,0
DA:665,0
DA:670,0
DA:676,0
DA:684,0
DA:686,0
DA:688,0
DA:689,0
DA:690,0
DA:695,0
DA:696,0
DA:699,0
DA:700,0
DA:701,0
DA:676,0
DA:684,0
DA:686,0
DA:688,0
DA:689,0
DA:690,0
DA:695,0
DA:696,0
DA:699,0
DA:700,0
DA:701,0
DA:676,0
DA:684,0
DA:686,0
DA:688,0
DA:689,0
DA:690,0
DA:695,0
DA:696,0
DA:699,0
DA:700,0
DA:701,0
DA:676,0
DA:684,0
DA:686,0
DA:688,0
DA:689,0
DA:690,0
DA:695,0
DA:696,0
DA:699,0
DA:700,0
DA:701,0
DA:706,0
DA:709,0
DA:711,0
DA:712,0
DA:714,0
DA:715,0
DA:717,0
DA:718,0
DA:719,0
DA:722,0
DA:706,0
DA:709,0
DA:711,0
DA:712,0
DA:714,0
DA:715,0
DA:717,0
DA:718,0
DA:719,0
DA:722,0
DA:727,0
DA:730,0
DA:732,0
DA:734,0
DA:735,0
DA:737,0
DA:738,0
DA:740,0
DA:741,0
DA:742,0
DA:743,0
DA:747,0
DA:748,0
DA:752,0
DA:727,0
DA:730,0
DA:732,0
DA:734,0
DA:735,0
DA:737,0
DA:738,0
DA:740,0
DA:741,0
DA:742,0
DA:743,0
DA:747,0
DA:748,0
DA:752,0
DA:764,0
DA:766,0
DA:767,0
DA:768,0
DA:770,0
DA:773,0
DA:774,0
DA:775,0
DA:778,0
DA:779,0
DA:780,0
DA:781,0
DA:787,0
DA:764,0
DA:766,0
DA:767,0
DA:768,0
DA:770,0
DA:773,0
DA:774,0
DA:775,0
DA:778,0
DA:779,0
DA:780,0
DA:781,0
DA:787,0
DA:791,0
DA:794,0
DA:795,0
DA:791,0
DA:794,0
DA:795,0
DA:799,0
DA:802,0
DA:803,0
DA:799,0
DA:802,0
DA:803,0
DA:807,0
DA:810,0
DA:811,0
DA:807,0
DA:810,0
DA:811,0
DA:817,0
DA:824,0
DA:831,0
DA:838,0
DA:845,0
DA:852,0
DA:859,0
DA:866,0
DA:873,0
DA:880,0
DA:887,0
DA:894,0
DA:905,0
DA:991,0
DA:991,0
DA:991,0
DA:991,0
DA:996,0
DA:996,0
DA:1001,0
DA:1001,0
DA:1007,0
DA:1009,0
DA:1007,0
DA:1009,0
DA:1012,0
DA:1014,0
DA:1015,0
DA:1016,0
DA:1012,0
DA:1014,0
DA:1015,0
DA:1016,0
DA:1017,0
DA:1019,0
DA:1020,0
DA:1021,0
DA:1017,0
DA:1019,0
DA:1020,0
DA:1021,0
DA:1022,0
DA:1024,0
DA:1025,0
DA:1026,0
DA:1022,0
DA:1024,0
DA:1025,0
DA:1026,0
DA:1028,0
DA:1028,0
DA:1030,0
DA:1030,0
DA:1037,0
DA:1039,0
DA:1037,0
DA:1039,0
DA:1041,0
DA:1043,0
DA:1041,0
DA:1043,0
DA:1045,0
DA:1047,0
DA:1045,0
DA:1047,0
DA:1049,0
DA:1051,0
DA:1049,0
DA:1051,0
DA:1053,0
DA:1055,0
DA:1053,0
DA:1055,0
DA:1057,0
DA:1059,0
DA:1057,0
DA:1059,0
DA:1062,0
DA:1064,0
DA:1062,0
DA:1064,0
DA:1066,0
DA:1069,0
DA:1066,0
DA:1069,0
DA:1071,0
DA:1073,0
DA:1071,0
DA:1073,0
DA:1075,0
DA:1078,0
DA:1075,0
DA:1078,0
DA:1080,0
DA:1082,0
DA:1080,0
DA:1082,0
DA:1084,0
DA:1086,0
DA:1084,0
DA:1086,0
DA:1089,0
DA:1091,0
DA:1089,0
DA:1091,0
DA:1093,0
DA:1095,0
DA:1093,0
DA:1095,0
DA:1097,0
DA:1099,0
DA:1097,0
DA:1099,0
DA:1101,0
DA:1103,0
DA:1101,0
DA:1103,0
DA:1105,0
DA:1107,0
DA:1105,0
DA:1107,0
DA:1109,0
DA:1111,0
DA:1109,0
DA:1111,0
LF:401
LH:0
end_of_record
SF:/usr/share/miniconda/envs/moose/x86_64-conda-linux-gnu/include/c++/10.3.0/future
FN:328,_ZNSt13__future_base13_State_baseV2D0Ev
FNDA:0,_ZNSt13__future_base13_State_baseV2D0Ev
FN:328,_ZNSt13__future_base13_State_baseV2D2Ev
FNDA:0,_ZNSt13__future_base13_State_baseV2D2Ev
FN:581,_ZNSt13__future_base13_State_baseV217_M_complete_asyncEv
FNDA:0,_ZNSt13__future_base13_State_baseV217_M_complete_asyncEv
FN:584,_ZNKSt13__future_base13_State_baseV221_M_is_deferred_futureEv
FNDA:0,_ZNKSt13__future_base13_State_baseV221_M_is_deferred_futureEv
FN:663,_ZNSt13__future_base7_ResultIvE10_M_destroyEv
FNDA:0,_ZNSt13__future_base7_ResultIvE10_M_destroyEv
FNF:5
FNH:0
DA:213,0
DA:328,0
DA:328,0
DA:581,0
DA:584,0
DA:663,0
LF:6
LH:0
end_of_record
SF:/home/runner/work/raccoon/raccoon/moose/framework/build/header_symlinks/MooseVariableDependencyInterface.h
LF:0
LH:0
end_of_record
SF:/home/runner/work/raccoon/raccoon/src/materials/PressureDensity.C
FN:10,_ZN15PressureDensity11validParamsEv
FNDA:165,_ZN15PressureDensity11validParamsEv
FN:29,_ZN15PressureDensityC2ERK15InputParameters
FNDA:6,_ZN15PressureDensityC2ERK15InputParameters
FN:42,_ZN15PressureDensity19computeQpPropertiesEv
FNDA:272800,_ZN15PressureDensity19computeQpPropertiesEv
FNF:3
FNH:3
DA:10,165
DA:12,165
DA:13,165
DA:14,165
DA:17,330
DA:20,330
DA:21,330
DA:22,330
DA:26,165
DA:29,6
DA:33,12
DA:34,12
DA:35,12
DA:36,18
DA:37,36
DA:39,6
DA:42,272800
DA:44,545600
DA:45,272800
LF:19
LH:19
end_of_record
SF:/usr/share/miniconda/envs/moose/x86_64-conda-linux-gnu/include/c++/10.3.0/bits/stl_tree.h
FN:613,_ZNSt8_Rb_treeINSt7__cxx1112basic_stringIcSt11char_traitsIcESaIcEEESt4pairIKS5_PN7libMesh10Parameters5ValueEESt10_Select1stISC_ESt4lessIvESaISC_EE17_M_construct_nodeIJRKSt21piecewise_construct_tSt5tupleIJRS7_EESN_IJEEEEEvPSt13_Rb_tree_nodeISC_EDpOT_
FNDA:0,_ZNSt8_Rb_treeINSt7__cxx1112basic_stringIcSt11char_traitsIcESaIcEEESt4pairIKS5_PN7libMesh10Parameters5ValueEESt10_Select1stISC_ESt4lessIvESaISC_EE17_M_construct_nodeIJRKSt21piecewise_construct_tSt5tupleIJRS7_EESN_IJEEEEEvPSt13_Rb_tree_nodeISC_EDpOT_
FN:613,_ZNSt8_Rb_treeINSt7__cxx1112basic_stringIcSt11char_traitsIcESaIcEEESt4pairIKS5_N15InputParameters8MetadataEESt10_Select1stISA_ESt4lessIS5_ESaISA_EE17_M_construct_nodeIJRKSt21piecewise_construct_tSt5tupleIJRS7_EESL_IJEEEEEvPSt13_Rb_tree_nodeISA_EDpOT_
FNDA:0,_ZNSt8_Rb_treeINSt7__cxx1112basic_stringIcSt11char_traitsIcESaIcEEESt4pairIKS5_N15InputParameters8MetadataEESt10_Select1stISA_ESt4lessIS5_ESaISA_EE17_M_construct_nodeIJRKSt21piecewise_construct_tSt5tupleIJRS7_EESL_IJEEEEEvPSt13_Rb_tree_nodeISA_EDpOT_
FN:613,_ZNSt8_Rb_treeINSt7__cxx1112basic_stringIcSt11char_traitsIcESaIcEEES5_St9_IdentityIS5_ESt4lessIS5_ESaIS5_EE17_M_construct_nodeIJRKS5_EEEvPSt13_Rb_tree_nodeIS5_EDpOT_
FNDA:1197,_ZNSt8_Rb_treeINSt7__cxx1112basic_stringIcSt11char_traitsIcESaIcEEES5_St9_IdentityIS5_ESt4lessIS5_ESaIS5_EE17_M_construct_nodeIJRKS5_EEEvPSt13_Rb_tree_nodeIS5_EDpOT_
FN:632,_ZNSt8_Rb_treeIN5Moose7ElemArgESt4pairIKS1_N11MetaPhysicL10DualNumberIdNS4_28SemiDynamicSparseNumberArrayIdmNS4_8NWrapperILm53EEEEELb1EEEESt10_Select1stISB_ESt4lessIS1_ESaISB_EE14_M_create_nodeIJRKSt21piecewise_construct_tSt5tupleIJRS3_EESM_IJOSA_EEEEEPSt13_Rb_tree_nodeISB_EDpOT_
FNDA:0,_ZNSt8_Rb_treeIN5Moose7ElemArgESt4pairIKS1_N11MetaPhysicL10DualNumberIdNS4_28SemiDynamicSparseNumberArrayIdmNS4_8NWrapperILm53EEEEELb1EEEESt10_Select1stISB_ESt4lessIS1_ESaISB_EE14_M_create_nodeIJRKSt21piecewise_construct_tSt5tupleIJRS3_EESM_IJOSA_EEEEEPSt13_Rb_tree_nodeISB_EDpOT_
FN:632,_ZNSt8_Rb_treeIN5Moose18SingleSidedFaceArgESt4pairIKS1_N11MetaPhysicL10DualNumberIdNS4_28SemiDynamicSparseNumberArrayIdmNS4_8NWrapperILm53EEEEELb1EEEESt10_Select1stISB_ESt4lessIS1_ESaISB_EE14_M_create_nodeIJRKSt21piecewise_construct_tSt5tupleIJRS3_EESM_IJOSA_EEEEEPSt13_Rb_tree_nodeISB_EDpOT_
FNDA:0,_ZNSt8_Rb_treeIN5Moose18SingleSidedFaceArgESt4pairIKS1_N11MetaPhysicL10DualNumberIdNS4_28SemiDynamicSparseNumberArrayIdmNS4_8NWrapperILm53EEEEELb1EEEESt10_Select1stISB_ESt4lessIS1_ESaISB_EE14_M_create_nodeIJRKSt21piecewise_construct_tSt5tupleIJRS3_EESM_IJOSA_EEEEEPSt13_Rb_tree_nodeISB_EDpOT_
FN:632,_ZNSt8_Rb_treeIN5Moose7FaceArgESt4pairIKS1_N11MetaPhysicL10DualNumberIdNS4_28SemiDynamicSparseNumberArrayIdmNS4_8NWrapperILm53EEEEELb1EEEESt10_Select1stISB_ESt4lessIS1_ESaISB_EE14_M_create_nodeIJRKSt21piecewise_construct_tSt5tupleIJRS3_EESM_IJOSA_EEEEEPSt13_Rb_tree_nodeISB_EDpOT_
FNDA:0,_ZNSt8_Rb_treeIN5Moose7FaceArgESt4pairIKS1_N11MetaPhysicL10DualNumberIdNS4_28SemiDynamicSparseNumberArrayIdmNS4_8NWrapperILm53EEEEELb1EEEESt10_Select1stISB_ESt4lessIS1_ESaISB_EE14_M_create_nodeIJRKSt21piecewise_construct_tSt5tupleIJRS3_EESM_IJOSA_EEEEEPSt13_Rb_tree_nodeISB_EDpOT_
FN:632,_ZNSt8_Rb_treeINSt7__cxx1112basic_stringIcSt11char_traitsIcESaIcEEESt4pairIKS5_N15InputParameters8MetadataEESt10_Select1stISA_ESt4lessIS5_ESaISA_EE14_M_create_nodeIJRKSt21piecewise_construct_tSt5tupleIJRS7_EESL_IJEEEEEPSt13_Rb_tree_nodeISA_EDpOT_
FNDA:0,_ZNSt8_Rb_treeINSt7__cxx1112basic_stringIcSt11char_traitsIcESaIcEEESt4pairIKS5_N15InputParameters8MetadataEESt10_Select1stISA_ESt4lessIS5_ESaISA_EE14_M_create_nodeIJRKSt21piecewise_construct_tSt5tupleIJRS7_EESL_IJEEEEEPSt13_Rb_tree_nodeISA_EDpOT_
FN:632,_ZNSt8_Rb_treeIN5Moose15ElemFromFaceArgESt4pairIKS1_dESt10_Select1stIS4_ESt4lessIS1_ESaIS4_EE14_M_create_nodeIJRKSt21piecewise_construct_tSt5tupleIJRS3_EESF_IJOdEEEEEPSt13_Rb_tree_nodeIS4_EDpOT_
FNDA:0,_ZNSt8_Rb_treeIN5Moose15ElemFromFaceArgESt4pairIKS1_dESt10_Select1stIS4_ESt4lessIS1_ESaIS4_EE14_M_create_nodeIJRKSt21piecewise_construct_tSt5tupleIJRS3_EESF_IJOdEEEEEPSt13_Rb_tree_nodeIS4_EDpOT_
FN:632,_ZNSt8_Rb_treeINSt7__cxx1112basic_stringIcSt11char_traitsIcESaIcEEESt4pairIKS5_PN7libMesh10Parameters5ValueEESt10_Select1stISC_ESt4lessIvESaISC_EE14_M_create_nodeIJRKSt21piecewise_construct_tSt5tupleIJRS7_EESN_IJEEEEEPSt13_Rb_tree_nodeISC_EDpOT_
FNDA:0,_ZNSt8_Rb_treeINSt7__cxx1112basic_stringIcSt11char_traitsIcESaIcEEESt4pairIKS5_PN7libMesh10Parameters5ValueEESt10_Select1stISC_ESt4lessIvESaISC_EE14_M_create_nodeIJRKSt21piecewise_construct_tSt5tupleIJRS7_EESN_IJEEEEEPSt13_Rb_tree_nodeISC_EDpOT_
FN:632,_ZNSt8_Rb_treeIN5Moose7FaceArgESt4pairIKS1_dESt10_Select1stIS4_ESt4lessIS1_ESaIS4_EE14_M_create_nodeIJRKSt21piecewise_construct_tSt5tupleIJRS3_EESF_IJOdEEEEEPSt13_Rb_tree_nodeIS4_EDpOT_
FNDA:0,_ZNSt8_Rb_treeIN5Moose7FaceArgESt4pairIKS1_dESt10_Select1stIS4_ESt4lessIS1_ESaIS4_EE14_M_create_nodeIJRKSt21piecewise_construct_tSt5tupleIJRS3_EESF_IJOdEEEEEPSt13_Rb_tree_nodeIS4_EDpOT_
FN:632,_ZNSt8_Rb_treeINSt7__cxx1112basic_stringIcSt11char_traitsIcESaIcEEES5_St9_IdentityIS5_ESt4lessIS5_ESaIS5_EE14_M_create_nodeIJRKS5_EEEPSt13_Rb_tree_nodeIS5_EDpOT_
FNDA:1197,_ZNSt8_Rb_treeINSt7__cxx1112basic_stringIcSt11char_traitsIcESaIcEEES5_St9_IdentityIS5_ESt4lessIS5_ESaIS5_EE14_M_create_nodeIJRKS5_EEEPSt13_Rb_tree_nodeIS5_EDpOT_
FN:632,_ZNSt8_Rb_treeIN5Moose15ElemFromFaceArgESt4pairIKS1_N11MetaPhysicL10DualNumberIdNS4_28SemiDynamicSparseNumberArrayIdmNS4_8NWrapperILm53EEEEELb1EEEESt10_Select1stISB_ESt4lessIS1_ESaISB_EE14_M_create_nodeIJRKSt21piecewise_construct_tSt5tupleIJRS3_EESM_IJOSA_EEEEEPSt13_Rb_tree_nodeISB_EDpOT_
FNDA:0,_ZNSt8_Rb_treeIN5Moose15ElemFromFaceArgESt4pairIKS1_N11MetaPhysicL10DualNumberIdNS4_28SemiDynamicSparseNumberArrayIdmNS4_8NWrapperILm53EEEEELb1EEEESt10_Select1stISB_ESt4lessIS1_ESaISB_EE14_M_create_nodeIJRKSt21piecewise_construct_tSt5tupleIJRS3_EESM_IJOSA_EEEEEPSt13_Rb_tree_nodeISB_EDpOT_
FN:652,_ZNSt8_Rb_treeI17PostprocessorNameSt4pairIKS0_St10unique_ptrIdSt14default_deleteIdEEESt10_Select1stIS7_ESt4lessIS0_ESaIS7_EE12_M_drop_nodeEPSt13_Rb_tree_nodeIS7_E
FNDA:0,_ZNSt8_Rb_treeI17PostprocessorNameSt4pairIKS0_St10unique_ptrIdSt14default_deleteIdEEESt10_Select1stIS7_ESt4lessIS0_ESaIS7_EE12_M_drop_nodeEPSt13_Rb_tree_nodeIS7_E
FN:652,_ZNSt8_Rb_treeI13MooseEnumItemS0_St9_IdentityIS0_ESt4lessIS0_ESaIS0_EE12_M_drop_nodeEPSt13_Rb_tree_nodeIS0_E
FNDA:0,_ZNSt8_Rb_treeI13MooseEnumItemS0_St9_IdentityIS0_ESt4lessIS0_ESaIS0_EE12_M_drop_nodeEPSt13_Rb_tree_nodeIS0_E
FN:652,_ZNSt8_Rb_treeINSt7__cxx1112basic_stringIcSt11char_traitsIcESaIcEEESt4pairIKS5_N15InputParameters8MetadataEESt10_Select1stISA_ESt4lessIS5_ESaISA_EE12_M_drop_nodeEPSt13_Rb_tree_nodeISA_E
FNDA:0,_ZNSt8_Rb_treeINSt7__cxx1112basic_stringIcSt11char_traitsIcESaIcEEESt4pairIKS5_N15InputParameters8MetadataEESt10_Select1stISA_ESt4lessIS5_ESaISA_EE12_M_drop_nodeEPSt13_Rb_tree_nodeISA_E
FN:1211,_ZNSt8_Rb_treeINSt7__cxx1112basic_stringIcSt11char_traitsIcESaIcEEESt4pairIKS5_PN7libMesh10Parameters5ValueEESt10_Select1stISC_ESt4lessIvESaISC_EE5eraseB5cxx11ESt17_Rb_tree_iteratorISC_E
FNDA:0,_ZNSt8_Rb_treeINSt7__cxx1112basic_stringIcSt11char_traitsIcESaIcEEESt4pairIKS5_PN7libMesh10Parameters5ValueEESt10_Select1stISC_ESt4lessIvESaISC_EE5eraseB5cxx11ESt17_Rb_tree_iteratorISC_E
FN:1259,_ZNSt8_Rb_treeIN5Moose18SingleSidedFaceArgESt4pairIKS1_N11MetaPhysicL10DualNumberIdNS4_28SemiDynamicSparseNumberArrayIdmNS4_8NWrapperILm53EEEEELb1EEEESt10_Select1stISB_ESt4lessIS1_ESaISB_EE5clearEv
FNDA:0,_ZNSt8_Rb_treeIN5Moose18SingleSidedFaceArgESt4pairIKS1_N11MetaPhysicL10DualNumberIdNS4_28SemiDynamicSparseNumberArrayIdmNS4_8NWrapperILm53EEEEELb1EEEESt10_Select1stISB_ESt4lessIS1_ESaISB_EE5clearEv
FN:1259,_ZNSt8_Rb_treeIN5Moose18SingleSidedFaceArgESt4pairIKS1_dESt10_Select1stIS4_ESt4lessIS1_ESaIS4_EE5clearEv
FNDA:0,_ZNSt8_Rb_treeIN5Moose18SingleSidedFaceArgESt4pairIKS1_dESt10_Select1stIS4_ESt4lessIS1_ESaIS4_EE5clearEv
FN:1259,_ZNSt8_Rb_treeIN5Moose7ElemArgESt4pairIKS1_dESt10_Select1stIS4_ESt4lessIS1_ESaIS4_EE5clearEv
FNDA:0,_ZNSt8_Rb_treeIN5Moose7ElemArgESt4pairIKS1_dESt10_Select1stIS4_ESt4lessIS1_ESaIS4_EE5clearEv
FN:1259,_ZNSt8_Rb_treeIN5Moose15ElemFromFaceArgESt4pairIKS1_dESt10_Select1stIS4_ESt4lessIS1_ESaIS4_EE5clearEv
FNDA:0,_ZNSt8_Rb_treeIN5Moose15ElemFromFaceArgESt4pairIKS1_dESt10_Select1stIS4_ESt4lessIS1_ESaIS4_EE5clearEv
FN:1259,_ZNSt8_Rb_treeIN5Moose7FaceArgESt4pairIKS1_N11MetaPhysicL10DualNumberIdNS4_28SemiDynamicSparseNumberArrayIdmNS4_8NWrapperILm53EEEEELb1EEEESt10_Select1stISB_ESt4lessIS1_ESaISB_EE5clearEv
FNDA:0,_ZNSt8_Rb_treeIN5Moose7FaceArgESt4pairIKS1_N11MetaPhysicL10DualNumberIdNS4_28SemiDynamicSparseNumberArrayIdmNS4_8NWrapperILm53EEEEELb1EEEESt10_Select1stISB_ESt4lessIS1_ESaISB_EE5clearEv
FN:1259,_ZNSt8_Rb_treeIN5Moose7FaceArgESt4pairIKS1_dESt10_Select1stIS4_ESt4lessIS1_ESaIS4_EE5clearEv
FNDA:0,_ZNSt8_Rb_treeIN5Moose7FaceArgESt4pairIKS1_dESt10_Select1stIS4_ESt4lessIS1_ESaIS4_EE5clearEv
FN:1259,_ZNSt8_Rb_treeIN5Moose15ElemFromFaceArgESt4pairIKS1_N11MetaPhysicL10DualNumberIdNS4_28SemiDynamicSparseNumberArrayIdmNS4_8NWrapperILm53EEEEELb1EEEESt10_Select1stISB_ESt4lessIS1_ESaISB_EE5clearEv
FNDA:0,_ZNSt8_Rb_treeIN5Moose15ElemFromFaceArgESt4pairIKS1_N11MetaPhysicL10DualNumberIdNS4_28SemiDynamicSparseNumberArrayIdmNS4_8NWrapperILm53EEEEELb1EEEESt10_Select1stISB_ESt4lessIS1_ESaISB_EE5clearEv
FN:1259,_ZNSt8_Rb_treeIN5Moose7ElemArgESt4pairIKS1_N11MetaPhysicL10DualNumberIdNS4_28SemiDynamicSparseNumberArrayIdmNS4_8NWrapperILm53EEEEELb1EEEESt10_Select1stISB_ESt4lessIS1_ESaISB_EE5clearEv
FNDA:0,_ZNSt8_Rb_treeIN5Moose7ElemArgESt4pairIKS1_N11MetaPhysicL10DualNumberIdNS4_28SemiDynamicSparseNumberArrayIdmNS4_8NWrapperILm53EEEEELb1EEEESt10_Select1stISB_ESt4lessIS1_ESaISB_EE5clearEv
FN:1310,_ZNKSt8_Rb_treeINSt7__cxx1112basic_stringIcSt11char_traitsIcESaIcEEESt4pairIKS5_PN7libMesh10Parameters5ValueEESt10_Select1stISC_ESt4lessIvESaISC_EE10_M_find_trISt17basic_string_viewIcS3_EvEESt23_Rb_tree_const_iteratorISC_ERKT_
FNDA:0,_ZNKSt8_Rb_treeINSt7__cxx1112basic_stringIcSt11char_traitsIcESaIcEEESt4pairIKS5_PN7libMesh10Parameters5ValueEESt10_Select1stISC_ESt4lessIvESaISC_EE10_M_find_trISt17basic_string_viewIcS3_EvEESt23_Rb_tree_const_iteratorISC_ERKT_
FN:1339,_ZNKSt8_Rb_treeINSt7__cxx1112basic_stringIcSt11char_traitsIcESaIcEEESt4pairIKS5_PN7libMesh10Parameters5ValueEESt10_Select1stISC_ESt4lessIvESaISC_EE17_M_lower_bound_trISt17basic_string_viewIcS3_EvEESt23_Rb_tree_const_iteratorISC_ERKT_
FNDA:0,_ZNKSt8_Rb_treeINSt7__cxx1112basic_stringIcSt11char_traitsIcESaIcEEESt4pairIKS5_PN7libMesh10Parameters5ValueEESt10_Select1stISC_ESt4lessIvESaISC_EE17_M_lower_bound_trISt17basic_string_viewIcS3_EvEESt23_Rb_tree_const_iteratorISC_ERKT_
FN:1803,_ZNSt8_Rb_treeIjjSt9_IdentityIjESt4lessIjESaIjEE10_M_insert_IjNS5_11_Alloc_nodeEEESt17_Rb_tree_iteratorIjEPSt18_Rb_tree_node_baseSB_OT_RT0_
FNDA:0,_ZNSt8_Rb_treeIjjSt9_IdentityIjESt4lessIjESaIjEE10_M_insert_IjNS5_11_Alloc_nodeEEESt17_Rb_tree_iteratorIjEPSt18_Rb_tree_node_baseSB_OT_RT0_
FN:1803,_ZNSt8_Rb_treeINSt7__cxx1112basic_stringIcSt11char_traitsIcESaIcEEES5_St9_IdentityIS5_ESt4lessIS5_ESaIS5_EE10_M_insert_IRKS5_NSB_11_Alloc_nodeEEESt17_Rb_tree_iteratorIS5_EPSt18_Rb_tree_node_baseSJ_OT_RT0_
FNDA:1197,_ZNSt8_Rb_treeINSt7__cxx1112basic_stringIcSt11char_traitsIcESaIcEEES5_St9_IdentityIS5_ESt4lessIS5_ESaIS5_EE10_M_insert_IRKS5_NSB_11_Alloc_nodeEEESt17_Rb_tree_iteratorIS5_EPSt18_Rb_tree_node_baseSJ_OT_RT0_
FN:1913,_ZNSt8_Rb_treeIN5Moose7ElemArgESt4pairIKS1_dESt10_Select1stIS4_ESt4lessIS1_ESaIS4_EE8_M_eraseEPSt13_Rb_tree_nodeIS4_E
FNDA:0,_ZNSt8_Rb_treeIN5Moose7ElemArgESt4pairIKS1_dESt10_Select1stIS4_ESt4lessIS1_ESaIS4_EE8_M_eraseEPSt13_Rb_tree_nodeIS4_E
FN:1913,_ZNSt8_Rb_treeIN5Moose15ElemFromFaceArgESt4pairIKS1_dESt10_Select1stIS4_ESt4lessIS1_ESaIS4_EE8_M_eraseEPSt13_Rb_tree_nodeIS4_E
FNDA:0,_ZNSt8_Rb_treeIN5Moose15ElemFromFaceArgESt4pairIKS1_dESt10_Select1stIS4_ESt4lessIS1_ESaIS4_EE8_M_eraseEPSt13_Rb_tree_nodeIS4_E
FN:1913,_ZNSt8_Rb_treeIN5Moose7FaceArgESt4pairIKS1_dESt10_Select1stIS4_ESt4lessIS1_ESaIS4_EE8_M_eraseEPSt13_Rb_tree_nodeIS4_E
FNDA:0,_ZNSt8_Rb_treeIN5Moose7FaceArgESt4pairIKS1_dESt10_Select1stIS4_ESt4lessIS1_ESaIS4_EE8_M_eraseEPSt13_Rb_tree_nodeIS4_E
FN:1913,_ZNSt8_Rb_treeI13MooseEnumItemS0_St9_IdentityIS0_ESt4lessIS0_ESaIS0_EE8_M_eraseEPSt13_Rb_tree_nodeIS0_E
FNDA:0,_ZNSt8_Rb_treeI13MooseEnumItemS0_St9_IdentityIS0_ESt4lessIS0_ESaIS0_EE8_M_eraseEPSt13_Rb_tree_nodeIS0_E
FN:1913,_ZNSt8_Rb_treeIN5Moose18SingleSidedFaceArgESt4pairIKS1_dESt10_Select1stIS4_ESt4lessIS1_ESaIS4_EE8_M_eraseEPSt13_Rb_tree_nodeIS4_E
FNDA:0,_ZNSt8_Rb_treeIN5Moose18SingleSidedFaceArgESt4pairIKS1_dESt10_Select1stIS4_ESt4lessIS1_ESaIS4_EE8_M_eraseEPSt13_Rb_tree_nodeIS4_E
FN:1913,_ZNSt8_Rb_treeIN5Moose7ElemArgESt4pairIKS1_N11MetaPhysicL10DualNumberIdNS4_28SemiDynamicSparseNumberArrayIdmNS4_8NWrapperILm53EEEEELb1EEEESt10_Select1stISB_ESt4lessIS1_ESaISB_EE8_M_eraseEPSt13_Rb_tree_nodeISB_E
FNDA:0,_ZNSt8_Rb_treeIN5Moose7ElemArgESt4pairIKS1_N11MetaPhysicL10DualNumberIdNS4_28SemiDynamicSparseNumberArrayIdmNS4_8NWrapperILm53EEEEELb1EEEESt10_Select1stISB_ESt4lessIS1_ESaISB_EE8_M_eraseEPSt13_Rb_tree_nodeISB_E
FN:1913,_ZNSt8_Rb_treeINSt7__cxx1112basic_stringIcSt11char_traitsIcESaIcEEESt4pairIKS5_N15InputParameters8MetadataEESt10_Select1stISA_ESt4lessIS5_ESaISA_EE8_M_eraseEPSt13_Rb_tree_nodeISA_E
FNDA:0,_ZNSt8_Rb_treeINSt7__cxx1112basic_stringIcSt11char_traitsIcESaIcEEESt4pairIKS5_N15InputParameters8MetadataEESt10_Select1stISA_ESt4lessIS5_ESaISA_EE8_M_eraseEPSt13_Rb_tree_nodeISA_E
FN:1913,_ZNSt8_Rb_treeIN5Moose18SingleSidedFaceArgESt4pairIKS1_N11MetaPhysicL10DualNumberIdNS4_28SemiDynamicSparseNumberArrayIdmNS4_8NWrapperILm53EEEEELb1EEEESt10_Select1stISB_ESt4lessIS1_ESaISB_EE8_M_eraseEPSt13_Rb_tree_nodeISB_E
FNDA:0,_ZNSt8_Rb_treeIN5Moose18SingleSidedFaceArgESt4pairIKS1_N11MetaPhysicL10DualNumberIdNS4_28SemiDynamicSparseNumberArrayIdmNS4_8NWrapperILm53EEEEELb1EEEESt10_Select1stISB_ESt4lessIS1_ESaISB_EE8_M_eraseEPSt13_Rb_tree_nodeISB_E
FN:1913,_ZNSt8_Rb_treeIN5Moose7FaceArgESt4pairIKS1_N11MetaPhysicL10DualNumberIdNS4_28SemiDynamicSparseNumberArrayIdmNS4_8NWrapperILm53EEEEELb1EEEESt10_Select1stISB_ESt4lessIS1_ESaISB_EE8_M_eraseEPSt13_Rb_tree_nodeISB_E
FNDA:0,_ZNSt8_Rb_treeIN5Moose7FaceArgESt4pairIKS1_N11MetaPhysicL10DualNumberIdNS4_28SemiDynamicSparseNumberArrayIdmNS4_8NWrapperILm53EEEEELb1EEEESt10_Select1stISB_ESt4lessIS1_ESaISB_EE8_M_eraseEPSt13_Rb_tree_nodeISB_E
FN:1913,_ZNSt8_Rb_treeIN5Moose15ElemFromFaceArgESt4pairIKS1_N11MetaPhysicL10DualNumberIdNS4_28SemiDynamicSparseNumberArrayIdmNS4_8NWrapperILm53EEEEELb1EEEESt10_Select1stISB_ESt4lessIS1_ESaISB_EE8_M_eraseEPSt13_Rb_tree_nodeISB_E
FNDA:0,_ZNSt8_Rb_treeIN5Moose15ElemFromFaceArgESt4pairIKS1_N11MetaPhysicL10DualNumberIdNS4_28SemiDynamicSparseNumberArrayIdmNS4_8NWrapperILm53EEEEELb1EEEESt10_Select1stISB_ESt4lessIS1_ESaISB_EE8_M_eraseEPSt13_Rb_tree_nodeISB_E
FN:1913,_ZNSt8_Rb_treeINSt7__cxx1112basic_stringIcSt11char_traitsIcESaIcEEESt4pairIKS5_PN7libMesh10Parameters5ValueEESt10_Select1stISC_ESt4lessIvESaISC_EE8_M_eraseEPSt13_Rb_tree_nodeISC_E
FNDA:0,_ZNSt8_Rb_treeINSt7__cxx1112basic_stringIcSt11char_traitsIcESaIcEEESt4pairIKS5_PN7libMesh10Parameters5ValueEESt10_Select1stISC_ESt4lessIvESaISC_EE8_M_eraseEPSt13_Rb_tree_nodeISC_E
FN:1913,_ZNSt8_Rb_treeIttSt9_IdentityItESt4lessItESaItEE8_M_eraseEPSt13_Rb_tree_nodeItE
FNDA:0,_ZNSt8_Rb_treeIttSt9_IdentityItESt4lessItESaItEE8_M_eraseEPSt13_Rb_tree_nodeItE
FN:1913,_ZNSt8_Rb_treeIssSt9_IdentityIsESt4lessIsESaIsEE8_M_eraseEPSt13_Rb_tree_nodeIsE
FNDA:0,_ZNSt8_Rb_treeIssSt9_IdentityIsESt4lessIsESaIsEE8_M_eraseEPSt13_Rb_tree_nodeIsE
FN:1913,_ZNSt8_Rb_treeINSt7__cxx1112basic_stringIcSt11char_traitsIcESaIcEEES5_St9_IdentityIS5_ESt4lessIS5_ESaIS5_EE8_M_eraseEPSt13_Rb_tree_nodeIS5_E
FNDA:4563,_ZNSt8_Rb_treeINSt7__cxx1112basic_stringIcSt11char_traitsIcESaIcEEES5_St9_IdentityIS5_ESt4lessIS5_ESaIS5_EE8_M_eraseEPSt13_Rb_tree_nodeIS5_E
FN:1913,_ZNSt8_Rb_treeIP22MooseVariableFieldBaseS1_St9_IdentityIS1_ESt4lessIS1_ESaIS1_EE8_M_eraseEPSt13_Rb_tree_nodeIS1_E
FNDA:1176,_ZNSt8_Rb_treeIP22MooseVariableFieldBaseS1_St9_IdentityIS1_ESt4lessIS1_ESaIS1_EE8_M_eraseEPSt13_Rb_tree_nodeIS1_E
FN:1913,_ZNSt8_Rb_treeIjjSt9_IdentityIjESt4lessIjESaIjEE8_M_eraseEPSt13_Rb_tree_nodeIjE
FNDA:2286,_ZNSt8_Rb_treeIjjSt9_IdentityIjESt4lessIjESaIjEE8_M_eraseEPSt13_Rb_tree_nodeIjE
FN:1913,_ZNSt8_Rb_treeI17PostprocessorNameSt4pairIKS0_St10unique_ptrIdSt14default_deleteIdEEESt10_Select1stIS7_ESt4lessIS0_ESaIS7_EE8_M_eraseEPSt13_Rb_tree_nodeIS7_E
FNDA:609,_ZNSt8_Rb_treeI17PostprocessorNameSt4pairIKS0_St10unique_ptrIdSt14default_deleteIdEEESt10_Select1stIS7_ESt4lessIS0_ESaIS7_EE8_M_eraseEPSt13_Rb_tree_nodeIS7_E
FN:1913,_ZNSt8_Rb_treeI10OutputNameS0_St9_IdentityIS0_ESt4lessIS0_ESaIS0_EE8_M_eraseEPSt13_Rb_tree_nodeIS0_E
FNDA:1218,_ZNSt8_Rb_treeI10OutputNameS0_St9_IdentityIS0_ESt4lessIS0_ESaIS0_EE8_M_eraseEPSt13_Rb_tree_nodeIS0_E
FN:1913,_ZNSt8_Rb_treeINSt7__cxx1112basic_stringIcSt11char_traitsIcESaIcEEESt4pairIKS5_iESt10_Select1stIS8_ESt4lessIS5_ESaIS8_EE8_M_eraseEPSt13_Rb_tree_nodeIS8_E
FNDA:2286,_ZNSt8_Rb_treeINSt7__cxx1112basic_stringIcSt11char_traitsIcESaIcEEESt4pairIKS5_iESt10_Select1stIS8_ESt4lessIS5_ESaIS8_EE8_M_eraseEPSt13_Rb_tree_nodeIS8_E
FN:1930,_ZNSt8_Rb_treeIN5Moose7ElemArgESt4pairIKS1_N11MetaPhysicL10DualNumberIdNS4_28SemiDynamicSparseNumberArrayIdmNS4_8NWrapperILm53EEEEELb1EEEESt10_Select1stISB_ESt4lessIS1_ESaISB_EE14_M_lower_boundEPSt13_Rb_tree_nodeISB_EPSt18_Rb_tree_node_baseRS3_
FNDA:0,_ZNSt8_Rb_treeIN5Moose7ElemArgESt4pairIKS1_N11MetaPhysicL10DualNumberIdNS4_28SemiDynamicSparseNumberArrayIdmNS4_8NWrapperILm53EEEEELb1EEEESt10_Select1stISB_ESt4lessIS1_ESaISB_EE14_M_lower_boundEPSt13_Rb_tree_nodeISB_EPSt18_Rb_tree_node_baseRS3_
FN:1930,_ZNSt8_Rb_treeIN5Moose18SingleSidedFaceArgESt4pairIKS1_dESt10_Select1stIS4_ESt4lessIS1_ESaIS4_EE14_M_lower_boundEPSt13_Rb_tree_nodeIS4_EPSt18_Rb_tree_node_baseRS3_
FNDA:0,_ZNSt8_Rb_treeIN5Moose18SingleSidedFaceArgESt4pairIKS1_dESt10_Select1stIS4_ESt4lessIS1_ESaIS4_EE14_M_lower_boundEPSt13_Rb_tree_nodeIS4_EPSt18_Rb_tree_node_baseRS3_
FN:1930,_ZNSt8_Rb_treeINSt7__cxx1112basic_stringIcSt11char_traitsIcESaIcEEESt4pairIKS5_PN7libMesh10Parameters5ValueEESt10_Select1stISC_ESt4lessIvESaISC_EE14_M_lower_boundEPSt13_Rb_tree_nodeISC_EPSt18_Rb_tree_node_baseRS7_
FNDA:0,_ZNSt8_Rb_treeINSt7__cxx1112basic_stringIcSt11char_traitsIcESaIcEEESt4pairIKS5_PN7libMesh10Parameters5ValueEESt10_Select1stISC_ESt4lessIvESaISC_EE14_M_lower_boundEPSt13_Rb_tree_nodeISC_EPSt18_Rb_tree_node_baseRS7_
FN:1930,_ZNSt8_Rb_treeIN5Moose7FaceArgESt4pairIKS1_dESt10_Select1stIS4_ESt4lessIS1_ESaIS4_EE14_M_lower_boundEPSt13_Rb_tree_nodeIS4_EPSt18_Rb_tree_node_baseRS3_
FNDA:0,_ZNSt8_Rb_treeIN5Moose7FaceArgESt4pairIKS1_dESt10_Select1stIS4_ESt4lessIS1_ESaIS4_EE14_M_lower_boundEPSt13_Rb_tree_nodeIS4_EPSt18_Rb_tree_node_baseRS3_
FN:1930,_ZNSt8_Rb_treeIN5Moose15ElemFromFaceArgESt4pairIKS1_dESt10_Select1stIS4_ESt4lessIS1_ESaIS4_EE14_M_lower_boundEPSt13_Rb_tree_nodeIS4_EPSt18_Rb_tree_node_baseRS3_
FNDA:0,_ZNSt8_Rb_treeIN5Moose15ElemFromFaceArgESt4pairIKS1_dESt10_Select1stIS4_ESt4lessIS1_ESaIS4_EE14_M_lower_boundEPSt13_Rb_tree_nodeIS4_EPSt18_Rb_tree_node_baseRS3_
FN:1930,_ZNSt8_Rb_treeIN5Moose7ElemArgESt4pairIKS1_dESt10_Select1stIS4_ESt4lessIS1_ESaIS4_EE14_M_lower_boundEPSt13_Rb_tree_nodeIS4_EPSt18_Rb_tree_node_baseRS3_
FNDA:0,_ZNSt8_Rb_treeIN5Moose7ElemArgESt4pairIKS1_dESt10_Select1stIS4_ESt4lessIS1_ESaIS4_EE14_M_lower_boundEPSt13_Rb_tree_nodeIS4_EPSt18_Rb_tree_node_baseRS3_
FN:1930,_ZNSt8_Rb_treeIN5Moose18SingleSidedFaceArgESt4pairIKS1_N11MetaPhysicL10DualNumberIdNS4_28SemiDynamicSparseNumberArrayIdmNS4_8NWrapperILm53EEEEELb1EEEESt10_Select1stISB_ESt4lessIS1_ESaISB_EE14_M_lower_boundEPSt13_Rb_tree_nodeISB_EPSt18_Rb_tree_node_baseRS3_
FNDA:0,_ZNSt8_Rb_treeIN5Moose18SingleSidedFaceArgESt4pairIKS1_N11MetaPhysicL10DualNumberIdNS4_28SemiDynamicSparseNumberArrayIdmNS4_8NWrapperILm53EEEEELb1EEEESt10_Select1stISB_ESt4lessIS1_ESaISB_EE14_M_lower_boundEPSt13_Rb_tree_nodeISB_EPSt18_Rb_tree_node_baseRS3_
FN:1930,_ZNSt8_Rb_treeIN5Moose7FaceArgESt4pairIKS1_N11MetaPhysicL10DualNumberIdNS4_28SemiDynamicSparseNumberArrayIdmNS4_8NWrapperILm53EEEEELb1EEEESt10_Select1stISB_ESt4lessIS1_ESaISB_EE14_M_lower_boundEPSt13_Rb_tree_nodeISB_EPSt18_Rb_tree_node_baseRS3_
FNDA:0,_ZNSt8_Rb_treeIN5Moose7FaceArgESt4pairIKS1_N11MetaPhysicL10DualNumberIdNS4_28SemiDynamicSparseNumberArrayIdmNS4_8NWrapperILm53EEEEELb1EEEESt10_Select1stISB_ESt4lessIS1_ESaISB_EE14_M_lower_boundEPSt13_Rb_tree_nodeISB_EPSt18_Rb_tree_node_baseRS3_
FN:1930,_ZNSt8_Rb_treeINSt7__cxx1112basic_stringIcSt11char_traitsIcESaIcEEESt4pairIKS5_N15InputParameters8MetadataEESt10_Select1stISA_ESt4lessIS5_ESaISA_EE14_M_lower_boundEPSt13_Rb_tree_nodeISA_EPSt18_Rb_tree_node_baseRS7_
FNDA:0,_ZNSt8_Rb_treeINSt7__cxx1112basic_stringIcSt11char_traitsIcESaIcEEESt4pairIKS5_N15InputParameters8MetadataEESt10_Select1stISA_ESt4lessIS5_ESaISA_EE14_M_lower_boundEPSt13_Rb_tree_nodeISA_EPSt18_Rb_tree_node_baseRS7_
FN:1930,_ZNSt8_Rb_treeIN5Moose15ElemFromFaceArgESt4pairIKS1_N11MetaPhysicL10DualNumberIdNS4_28SemiDynamicSparseNumberArrayIdmNS4_8NWrapperILm53EEEEELb1EEEESt10_Select1stISB_ESt4lessIS1_ESaISB_EE14_M_lower_boundEPSt13_Rb_tree_nodeISB_EPSt18_Rb_tree_node_baseRS3_
FNDA:0,_ZNSt8_Rb_treeIN5Moose15ElemFromFaceArgESt4pairIKS1_N11MetaPhysicL10DualNumberIdNS4_28SemiDynamicSparseNumberArrayIdmNS4_8NWrapperILm53EEEEELb1EEEESt10_Select1stISB_ESt4lessIS1_ESaISB_EE14_M_lower_boundEPSt13_Rb_tree_nodeISB_EPSt18_Rb_tree_node_baseRS3_
FN:1946,_ZNKSt8_Rb_treeINSt7__cxx1112basic_stringIcSt11char_traitsIcESaIcEEESt4pairIKS5_N15InputParameters8MetadataEESt10_Select1stISA_ESt4lessIS5_ESaISA_EE14_M_lower_boundEPKSt13_Rb_tree_nodeISA_EPKSt18_Rb_tree_node_baseRS7_
FNDA:0,_ZNKSt8_Rb_treeINSt7__cxx1112basic_stringIcSt11char_traitsIcESaIcEEESt4pairIKS5_N15InputParameters8MetadataEESt10_Select1stISA_ESt4lessIS5_ESaISA_EE14_M_lower_boundEPKSt13_Rb_tree_nodeISA_EPKSt18_Rb_tree_node_baseRS7_
FN:1946,_ZNKSt8_Rb_treeINSt7__cxx1112basic_stringIcSt11char_traitsIcESaIcEEESt4pairIKS5_PN7libMesh10Parameters5ValueEESt10_Select1stISC_ESt4lessIvESaISC_EE14_M_lower_boundEPKSt13_Rb_tree_nodeISC_EPKSt18_Rb_tree_node_baseRS7_
FNDA:0,_ZNKSt8_Rb_treeINSt7__cxx1112basic_stringIcSt11char_traitsIcESaIcEEESt4pairIKS5_PN7libMesh10Parameters5ValueEESt10_Select1stISC_ESt4lessIvESaISC_EE14_M_lower_boundEPKSt13_Rb_tree_nodeISC_EPKSt18_Rb_tree_node_baseRS7_
FN:1946,_ZNKSt8_Rb_treeI13MooseEnumItemS0_St9_IdentityIS0_ESt4lessIS0_ESaIS0_EE14_M_lower_boundEPKSt13_Rb_tree_nodeIS0_EPKSt18_Rb_tree_node_baseRKS0_
FNDA:0,_ZNKSt8_Rb_treeI13MooseEnumItemS0_St9_IdentityIS0_ESt4lessIS0_ESaIS0_EE14_M_lower_boundEPKSt13_Rb_tree_nodeIS0_EPKSt18_Rb_tree_node_baseRKS0_
FN:2091,_ZNSt8_Rb_treeIN5Moose18SingleSidedFaceArgESt4pairIKS1_dESt10_Select1stIS4_ESt4lessIS1_ESaIS4_EE24_M_get_insert_unique_posERS3_
FNDA:0,_ZNSt8_Rb_treeIN5Moose18SingleSidedFaceArgESt4pairIKS1_dESt10_Select1stIS4_ESt4lessIS1_ESaIS4_EE24_M_get_insert_unique_posERS3_
FN:2091,_ZNSt8_Rb_treeIN5Moose7FaceArgESt4pairIKS1_dESt10_Select1stIS4_ESt4lessIS1_ESaIS4_EE24_M_get_insert_unique_posERS3_
FNDA:0,_ZNSt8_Rb_treeIN5Moose7FaceArgESt4pairIKS1_dESt10_Select1stIS4_ESt4lessIS1_ESaIS4_EE24_M_get_insert_unique_posERS3_
FN:2091,_ZNSt8_Rb_treeIN5Moose15ElemFromFaceArgESt4pairIKS1_dESt10_Select1stIS4_ESt4lessIS1_ESaIS4_EE24_M_get_insert_unique_posERS3_
FNDA:0,_ZNSt8_Rb_treeIN5Moose15ElemFromFaceArgESt4pairIKS1_dESt10_Select1stIS4_ESt4lessIS1_ESaIS4_EE24_M_get_insert_unique_posERS3_
FN:2091,_ZNSt8_Rb_treeIN5Moose7ElemArgESt4pairIKS1_dESt10_Select1stIS4_ESt4lessIS1_ESaIS4_EE24_M_get_insert_unique_posERS3_
FNDA:0,_ZNSt8_Rb_treeIN5Moose7ElemArgESt4pairIKS1_dESt10_Select1stIS4_ESt4lessIS1_ESaIS4_EE24_M_get_insert_unique_posERS3_
FN:2091,_ZNSt8_Rb_treeIN5Moose18SingleSidedFaceArgESt4pairIKS1_N11MetaPhysicL10DualNumberIdNS4_28SemiDynamicSparseNumberArrayIdmNS4_8NWrapperILm53EEEEELb1EEEESt10_Select1stISB_ESt4lessIS1_ESaISB_EE24_M_get_insert_unique_posERS3_
FNDA:0,_ZNSt8_Rb_treeIN5Moose18SingleSidedFaceArgESt4pairIKS1_N11MetaPhysicL10DualNumberIdNS4_28SemiDynamicSparseNumberArrayIdmNS4_8NWrapperILm53EEEEELb1EEEESt10_Select1stISB_ESt4lessIS1_ESaISB_EE24_M_get_insert_unique_posERS3_
FN:2091,_ZNSt8_Rb_treeIN5Moose7FaceArgESt4pairIKS1_N11MetaPhysicL10DualNumberIdNS4_28SemiDynamicSparseNumberArrayIdmNS4_8NWrapperILm53EEEEELb1EEEESt10_Select1stISB_ESt4lessIS1_ESaISB_EE24_M_get_insert_unique_posERS3_
FNDA:0,_ZNSt8_Rb_treeIN5Moose7FaceArgESt4pairIKS1_N11MetaPhysicL10DualNumberIdNS4_28SemiDynamicSparseNumberArrayIdmNS4_8NWrapperILm53EEEEELb1EEEESt10_Select1stISB_ESt4lessIS1_ESaISB_EE24_M_get_insert_unique_posERS3_
FN:2091,_ZNSt8_Rb_treeIN5Moose15ElemFromFaceArgESt4pairIKS1_N11MetaPhysicL10DualNumberIdNS4_28SemiDynamicSparseNumberArrayIdmNS4_8NWrapperILm53EEEEELb1EEEESt10_Select1stISB_ESt4lessIS1_ESaISB_EE24_M_get_insert_unique_posERS3_
FNDA:0,_ZNSt8_Rb_treeIN5Moose15ElemFromFaceArgESt4pairIKS1_N11MetaPhysicL10DualNumberIdNS4_28SemiDynamicSparseNumberArrayIdmNS4_8NWrapperILm53EEEEELb1EEEESt10_Select1stISB_ESt4lessIS1_ESaISB_EE24_M_get_insert_unique_posERS3_
FN:2091,_ZNSt8_Rb_treeIN5Moose7ElemArgESt4pairIKS1_N11MetaPhysicL10DualNumberIdNS4_28SemiDynamicSparseNumberArrayIdmNS4_8NWrapperILm53EEEEELb1EEEESt10_Select1stISB_ESt4lessIS1_ESaISB_EE24_M_get_insert_unique_posERS3_
FNDA:0,_ZNSt8_Rb_treeIN5Moose7ElemArgESt4pairIKS1_N11MetaPhysicL10DualNumberIdNS4_28SemiDynamicSparseNumberArrayIdmNS4_8NWrapperILm53EEEEELb1EEEESt10_Select1stISB_ESt4lessIS1_ESaISB_EE24_M_get_insert_unique_posERS3_
FN:2091,_ZNSt8_Rb_treeINSt7__cxx1112basic_stringIcSt11char_traitsIcESaIcEEES5_St9_IdentityIS5_ESt4lessIS5_ESaIS5_EE24_M_get_insert_unique_posERKS5_
FNDA:0,_ZNSt8_Rb_treeINSt7__cxx1112basic_stringIcSt11char_traitsIcESaIcEEES5_St9_IdentityIS5_ESt4lessIS5_ESaIS5_EE24_M_get_insert_unique_posERKS5_
FN:2091,_ZNSt8_Rb_treeIjjSt9_IdentityIjESt4lessIjESaIjEE24_M_get_insert_unique_posERKj
FNDA:0,_ZNSt8_Rb_treeIjjSt9_IdentityIjESt4lessIjESaIjEE24_M_get_insert_unique_posERKj
FN:2091,_ZNSt8_Rb_treeINSt7__cxx1112basic_stringIcSt11char_traitsIcESaIcEEESt4pairIKS5_PN7libMesh10Parameters5ValueEESt10_Select1stISC_ESt4lessIvESaISC_EE24_M_get_insert_unique_posERS7_
FNDA:0,_ZNSt8_Rb_treeINSt7__cxx1112basic_stringIcSt11char_traitsIcESaIcEEESt4pairIKS5_PN7libMesh10Parameters5ValueEESt10_Select1stISC_ESt4lessIvESaISC_EE24_M_get_insert_unique_posERS7_
FN:2091,_ZNSt8_Rb_treeINSt7__cxx1112basic_stringIcSt11char_traitsIcESaIcEEESt4pairIKS5_N15InputParameters8MetadataEESt10_Select1stISA_ESt4lessIS5_ESaISA_EE24_M_get_insert_unique_posERS7_
FNDA:0,_ZNSt8_Rb_treeINSt7__cxx1112basic_stringIcSt11char_traitsIcESaIcEEESt4pairIKS5_N15InputParameters8MetadataEESt10_Select1stISA_ESt4lessIS5_ESaISA_EE24_M_get_insert_unique_posERS7_
FN:2145,_ZNSt8_Rb_treeIjjSt9_IdentityIjESt4lessIjESaIjEE16_M_insert_uniqueIjEESt4pairISt17_Rb_tree_iteratorIjEbEOT_
FNDA:0,_ZNSt8_Rb_treeIjjSt9_IdentityIjESt4lessIjESaIjEE16_M_insert_uniqueIjEESt4pairISt17_Rb_tree_iteratorIjEbEOT_
FN:2145,_ZNSt8_Rb_treeINSt7__cxx1112basic_stringIcSt11char_traitsIcESaIcEEES5_St9_IdentityIS5_ESt4lessIS5_ESaIS5_EE16_M_insert_uniqueIRKS5_EESt4pairISt17_Rb_tree_iteratorIS5_EbEOT_
FNDA:1197,_ZNSt8_Rb_treeINSt7__cxx1112basic_stringIcSt11char_traitsIcESaIcEEES5_St9_IdentityIS5_ESt4lessIS5_ESaIS5_EE16_M_insert_uniqueIRKS5_EESt4pairISt17_Rb_tree_iteratorIS5_EbEOT_
FN:2193,_ZNSt8_Rb_treeINSt7__cxx1112basic_stringIcSt11char_traitsIcESaIcEEESt4pairIKS5_PN7libMesh10Parameters5ValueEESt10_Select1stISC_ESt4lessIvESaISC_EE29_M_get_insert_hint_unique_posESt23_Rb_tree_const_iteratorISC_ERS7_
FNDA:0,_ZNSt8_Rb_treeINSt7__cxx1112basic_stringIcSt11char_traitsIcESaIcEEESt4pairIKS5_PN7libMesh10Parameters5ValueEESt10_Select1stISC_ESt4lessIvESaISC_EE29_M_get_insert_hint_unique_posESt23_Rb_tree_const_iteratorISC_ERS7_
FN:2193,_ZNSt8_Rb_treeIN5Moose18SingleSidedFaceArgESt4pairIKS1_dESt10_Select1stIS4_ESt4lessIS1_ESaIS4_EE29_M_get_insert_hint_unique_posESt23_Rb_tree_const_iteratorIS4_ERS3_
FNDA:0,_ZNSt8_Rb_treeIN5Moose18SingleSidedFaceArgESt4pairIKS1_dESt10_Select1stIS4_ESt4lessIS1_ESaIS4_EE29_M_get_insert_hint_unique_posESt23_Rb_tree_const_iteratorIS4_ERS3_
FN:2193,_ZNSt8_Rb_treeIN5Moose7FaceArgESt4pairIKS1_dESt10_Select1stIS4_ESt4lessIS1_ESaIS4_EE29_M_get_insert_hint_unique_posESt23_Rb_tree_const_iteratorIS4_ERS3_
FNDA:0,_ZNSt8_Rb_treeIN5Moose7FaceArgESt4pairIKS1_dESt10_Select1stIS4_ESt4lessIS1_ESaIS4_EE29_M_get_insert_hint_unique_posESt23_Rb_tree_const_iteratorIS4_ERS3_
FN:2193,_ZNSt8_Rb_treeIN5Moose15ElemFromFaceArgESt4pairIKS1_dESt10_Select1stIS4_ESt4lessIS1_ESaIS4_EE29_M_get_insert_hint_unique_posESt23_Rb_tree_const_iteratorIS4_ERS3_
FNDA:0,_ZNSt8_Rb_treeIN5Moose15ElemFromFaceArgESt4pairIKS1_dESt10_Select1stIS4_ESt4lessIS1_ESaIS4_EE29_M_get_insert_hint_unique_posESt23_Rb_tree_const_iteratorIS4_ERS3_
FN:2193,_ZNSt8_Rb_treeINSt7__cxx1112basic_stringIcSt11char_traitsIcESaIcEEESt4pairIKS5_N15InputParameters8MetadataEESt10_Select1stISA_ESt4lessIS5_ESaISA_EE29_M_get_insert_hint_unique_posESt23_Rb_tree_const_iteratorISA_ERS7_
FNDA:0,_ZNSt8_Rb_treeINSt7__cxx1112basic_stringIcSt11char_traitsIcESaIcEEESt4pairIKS5_N15InputParameters8MetadataEESt10_Select1stISA_ESt4lessIS5_ESaISA_EE29_M_get_insert_hint_unique_posESt23_Rb_tree_const_iteratorISA_ERS7_
FN:2193,_ZNSt8_Rb_treeIN5Moose7ElemArgESt4pairIKS1_dESt10_Select1stIS4_ESt4lessIS1_ESaIS4_EE29_M_get_insert_hint_unique_posESt23_Rb_tree_const_iteratorIS4_ERS3_
FNDA:0,_ZNSt8_Rb_treeIN5Moose7ElemArgESt4pairIKS1_dESt10_Select1stIS4_ESt4lessIS1_ESaIS4_EE29_M_get_insert_hint_unique_posESt23_Rb_tree_const_iteratorIS4_ERS3_
FN:2193,_ZNSt8_Rb_treeIN5Moose18SingleSidedFaceArgESt4pairIKS1_N11MetaPhysicL10DualNumberIdNS4_28SemiDynamicSparseNumberArrayIdmNS4_8NWrapperILm53EEEEELb1EEEESt10_Select1stISB_ESt4lessIS1_ESaISB_EE29_M_get_insert_hint_unique_posESt23_Rb_tree_const_iteratorISB_ERS3_
FNDA:0,_ZNSt8_Rb_treeIN5Moose18SingleSidedFaceArgESt4pairIKS1_N11MetaPhysicL10DualNumberIdNS4_28SemiDynamicSparseNumberArrayIdmNS4_8NWrapperILm53EEEEELb1EEEESt10_Select1stISB_ESt4lessIS1_ESaISB_EE29_M_get_insert_hint_unique_posESt23_Rb_tree_const_iteratorISB_ERS3_
FN:2193,_ZNSt8_Rb_treeIN5Moose7FaceArgESt4pairIKS1_N11MetaPhysicL10DualNumberIdNS4_28SemiDynamicSparseNumberArrayIdmNS4_8NWrapperILm53EEEEELb1EEEESt10_Select1stISB_ESt4lessIS1_ESaISB_EE29_M_get_insert_hint_unique_posESt23_Rb_tree_const_iteratorISB_ERS3_
FNDA:0,_ZNSt8_Rb_treeIN5Moose7FaceArgESt4pairIKS1_N11MetaPhysicL10DualNumberIdNS4_28SemiDynamicSparseNumberArrayIdmNS4_8NWrapperILm53EEEEELb1EEEESt10_Select1stISB_ESt4lessIS1_ESaISB_EE29_M_get_insert_hint_unique_posESt23_Rb_tree_const_iteratorISB_ERS3_
FN:2193,_ZNSt8_Rb_treeIN5Moose7ElemArgESt4pairIKS1_N11MetaPhysicL10DualNumberIdNS4_28SemiDynamicSparseNumberArrayIdmNS4_8NWrapperILm53EEEEELb1EEEESt10_Select1stISB_ESt4lessIS1_ESaISB_EE29_M_get_insert_hint_unique_posESt23_Rb_tree_const_iteratorISB_ERS3_
FNDA:0,_ZNSt8_Rb_treeIN5Moose7ElemArgESt4pairIKS1_N11MetaPhysicL10DualNumberIdNS4_28SemiDynamicSparseNumberArrayIdmNS4_8NWrapperILm53EEEEELb1EEEESt10_Select1stISB_ESt4lessIS1_ESaISB_EE29_M_get_insert_hint_unique_posESt23_Rb_tree_const_iteratorISB_ERS3_
FN:2193,_ZNSt8_Rb_treeIN5Moose15ElemFromFaceArgESt4pairIKS1_N11MetaPhysicL10DualNumberIdNS4_28SemiDynamicSparseNumberArrayIdmNS4_8NWrapperILm53EEEEELb1EEEESt10_Select1stISB_ESt4lessIS1_ESaISB_EE29_M_get_insert_hint_unique_posESt23_Rb_tree_const_iteratorISB_ERS3_
FNDA:0,_ZNSt8_Rb_treeIN5Moose15ElemFromFaceArgESt4pairIKS1_N11MetaPhysicL10DualNumberIdNS4_28SemiDynamicSparseNumberArrayIdmNS4_8NWrapperILm53EEEEELb1EEEESt10_Select1stISB_ESt4lessIS1_ESaISB_EE29_M_get_insert_hint_unique_posESt23_Rb_tree_const_iteratorISB_ERS3_
FN:2360,_ZNSt8_Rb_treeIN5Moose18SingleSidedFaceArgESt4pairIKS1_N11MetaPhysicL10DualNumberIdNS4_28SemiDynamicSparseNumberArrayIdmNS4_8NWrapperILm53EEEEELb1EEEESt10_Select1stISB_ESt4lessIS1_ESaISB_EE14_M_insert_nodeEPSt18_Rb_tree_node_baseSJ_PSt13_Rb_tree_nodeISB_E
FNDA:0,_ZNSt8_Rb_treeIN5Moose18SingleSidedFaceArgESt4pairIKS1_N11MetaPhysicL10DualNumberIdNS4_28SemiDynamicSparseNumberArrayIdmNS4_8NWrapperILm53EEEEELb1EEEESt10_Select1stISB_ESt4lessIS1_ESaISB_EE14_M_insert_nodeEPSt18_Rb_tree_node_baseSJ_PSt13_Rb_tree_nodeISB_E
FN:2360,_ZNSt8_Rb_treeIN5Moose7FaceArgESt4pairIKS1_N11MetaPhysicL10DualNumberIdNS4_28SemiDynamicSparseNumberArrayIdmNS4_8NWrapperILm53EEEEELb1EEEESt10_Select1stISB_ESt4lessIS1_ESaISB_EE14_M_insert_nodeEPSt18_Rb_tree_node_baseSJ_PSt13_Rb_tree_nodeISB_E
FNDA:0,_ZNSt8_Rb_treeIN5Moose7FaceArgESt4pairIKS1_N11MetaPhysicL10DualNumberIdNS4_28SemiDynamicSparseNumberArrayIdmNS4_8NWrapperILm53EEEEELb1EEEESt10_Select1stISB_ESt4lessIS1_ESaISB_EE14_M_insert_nodeEPSt18_Rb_tree_node_baseSJ_PSt13_Rb_tree_nodeISB_E
FN:2360,_ZNSt8_Rb_treeINSt7__cxx1112basic_stringIcSt11char_traitsIcESaIcEEESt4pairIKS5_N15InputParameters8MetadataEESt10_Select1stISA_ESt4lessIS5_ESaISA_EE14_M_insert_nodeEPSt18_Rb_tree_node_baseSI_PSt13_Rb_tree_nodeISA_E
FNDA:0,_ZNSt8_Rb_treeINSt7__cxx1112basic_stringIcSt11char_traitsIcESaIcEEESt4pairIKS5_N15InputParameters8MetadataEESt10_Select1stISA_ESt4lessIS5_ESaISA_EE14_M_insert_nodeEPSt18_Rb_tree_node_baseSI_PSt13_Rb_tree_nodeISA_E
FN:2360,_ZNSt8_Rb_treeIN5Moose7ElemArgESt4pairIKS1_dESt10_Select1stIS4_ESt4lessIS1_ESaIS4_EE14_M_insert_nodeEPSt18_Rb_tree_node_baseSC_PSt13_Rb_tree_nodeIS4_E
FNDA:0,_ZNSt8_Rb_treeIN5Moose7ElemArgESt4pairIKS1_dESt10_Select1stIS4_ESt4lessIS1_ESaIS4_EE14_M_insert_nodeEPSt18_Rb_tree_node_baseSC_PSt13_Rb_tree_nodeIS4_E
FN:2360,_ZNSt8_Rb_treeINSt7__cxx1112basic_stringIcSt11char_traitsIcESaIcEEESt4pairIKS5_PN7libMesh10Parameters5ValueEESt10_Select1stISC_ESt4lessIvESaISC_EE14_M_insert_nodeEPSt18_Rb_tree_node_baseSK_PSt13_Rb_tree_nodeISC_E
FNDA:0,_ZNSt8_Rb_treeINSt7__cxx1112basic_stringIcSt11char_traitsIcESaIcEEESt4pairIKS5_PN7libMesh10Parameters5ValueEESt10_Select1stISC_ESt4lessIvESaISC_EE14_M_insert_nodeEPSt18_Rb_tree_node_baseSK_PSt13_Rb_tree_nodeISC_E
FN:2360,_ZNSt8_Rb_treeIN5Moose7ElemArgESt4pairIKS1_N11MetaPhysicL10DualNumberIdNS4_28SemiDynamicSparseNumberArrayIdmNS4_8NWrapperILm53EEEEELb1EEEESt10_Select1stISB_ESt4lessIS1_ESaISB_EE14_M_insert_nodeEPSt18_Rb_tree_node_baseSJ_PSt13_Rb_tree_nodeISB_E
FNDA:0,_ZNSt8_Rb_treeIN5Moose7ElemArgESt4pairIKS1_N11MetaPhysicL10DualNumberIdNS4_28SemiDynamicSparseNumberArrayIdmNS4_8NWrapperILm53EEEEELb1EEEESt10_Select1stISB_ESt4lessIS1_ESaISB_EE14_M_insert_nodeEPSt18_Rb_tree_node_baseSJ_PSt13_Rb_tree_nodeISB_E
FN:2360,_ZNSt8_Rb_treeIN5Moose15ElemFromFaceArgESt4pairIKS1_dESt10_Select1stIS4_ESt4lessIS1_ESaIS4_EE14_M_insert_nodeEPSt18_Rb_tree_node_baseSC_PSt13_Rb_tree_nodeIS4_E
FNDA:0,_ZNSt8_Rb_treeIN5Moose15ElemFromFaceArgESt4pairIKS1_dESt10_Select1stIS4_ESt4lessIS1_ESaIS4_EE14_M_insert_nodeEPSt18_Rb_tree_node_baseSC_PSt13_Rb_tree_nodeIS4_E
FN:2360,_ZNSt8_Rb_treeIN5Moose15ElemFromFaceArgESt4pairIKS1_N11MetaPhysicL10DualNumberIdNS4_28SemiDynamicSparseNumberArrayIdmNS4_8NWrapperILm53EEEEELb1EEEESt10_Select1stISB_ESt4lessIS1_ESaISB_EE14_M_insert_nodeEPSt18_Rb_tree_node_baseSJ_PSt13_Rb_tree_nodeISB_E
FNDA:0,_ZNSt8_Rb_treeIN5Moose15ElemFromFaceArgESt4pairIKS1_N11MetaPhysicL10DualNumberIdNS4_28SemiDynamicSparseNumberArrayIdmNS4_8NWrapperILm53EEEEELb1EEEESt10_Select1stISB_ESt4lessIS1_ESaISB_EE14_M_insert_nodeEPSt18_Rb_tree_node_baseSJ_PSt13_Rb_tree_nodeISB_E
FN:2360,_ZNSt8_Rb_treeIN5Moose7FaceArgESt4pairIKS1_dESt10_Select1stIS4_ESt4lessIS1_ESaIS4_EE14_M_insert_nodeEPSt18_Rb_tree_node_baseSC_PSt13_Rb_tree_nodeIS4_E
FNDA:0,_ZNSt8_Rb_treeIN5Moose7FaceArgESt4pairIKS1_dESt10_Select1stIS4_ESt4lessIS1_ESaIS4_EE14_M_insert_nodeEPSt18_Rb_tree_node_baseSC_PSt13_Rb_tree_nodeIS4_E
FN:2360,_ZNSt8_Rb_treeIN5Moose18SingleSidedFaceArgESt4pairIKS1_dESt10_Select1stIS4_ESt4lessIS1_ESaIS4_EE14_M_insert_nodeEPSt18_Rb_tree_node_baseSC_PSt13_Rb_tree_nodeIS4_E
FNDA:0,_ZNSt8_Rb_treeIN5Moose18SingleSidedFaceArgESt4pairIKS1_dESt10_Select1stIS4_ESt4lessIS1_ESaIS4_EE14_M_insert_nodeEPSt18_Rb_tree_node_baseSC_PSt13_Rb_tree_nodeIS4_E
FN:2458,_ZNSt8_Rb_treeINSt7__cxx1112basic_stringIcSt11char_traitsIcESaIcEEESt4pairIKS5_PN7libMesh10Parameters5ValueEESt10_Select1stISC_ESt4lessIvESaISC_EE22_M_emplace_hint_uniqueIJRKSt21piecewise_construct_tSt5tupleIJRS7_EESN_IJEEEEESt17_Rb_tree_iteratorISC_ESt23_Rb_tree_const_iteratorISC_EDpOT_
FNDA:0,_ZNSt8_Rb_treeINSt7__cxx1112basic_stringIcSt11char_traitsIcESaIcEEESt4pairIKS5_PN7libMesh10Parameters5ValueEESt10_Select1stISC_ESt4lessIvESaISC_EE22_M_emplace_hint_uniqueIJRKSt21piecewise_construct_tSt5tupleIJRS7_EESN_IJEEEEESt17_Rb_tree_iteratorISC_ESt23_Rb_tree_const_iteratorISC_EDpOT_
FN:2458,_ZNSt8_Rb_treeINSt7__cxx1112basic_stringIcSt11char_traitsIcESaIcEEESt4pairIKS5_N15InputParameters8MetadataEESt10_Select1stISA_ESt4lessIS5_ESaISA_EE22_M_emplace_hint_uniqueIJRKSt21piecewise_construct_tSt5tupleIJRS7_EESL_IJEEEEESt17_Rb_tree_iteratorISA_ESt23_Rb_tree_const_iteratorISA_EDpOT_
FNDA:0,_ZNSt8_Rb_treeINSt7__cxx1112basic_stringIcSt11char_traitsIcESaIcEEESt4pairIKS5_N15InputParameters8MetadataEESt10_Select1stISA_ESt4lessIS5_ESaISA_EE22_M_emplace_hint_uniqueIJRKSt21piecewise_construct_tSt5tupleIJRS7_EESL_IJEEEEESt17_Rb_tree_iteratorISA_ESt23_Rb_tree_const_iteratorISA_EDpOT_
FN:2458,_ZNSt8_Rb_treeIN5Moose7FaceArgESt4pairIKS1_N11MetaPhysicL10DualNumberIdNS4_28SemiDynamicSparseNumberArrayIdmNS4_8NWrapperILm53EEEEELb1EEEESt10_Select1stISB_ESt4lessIS1_ESaISB_EE22_M_emplace_hint_uniqueIJRKSt21piecewise_construct_tSt5tupleIJRS3_EESM_IJOSA_EEEEESt17_Rb_tree_iteratorISB_ESt23_Rb_tree_const_iteratorISB_EDpOT_
FNDA:0,_ZNSt8_Rb_treeIN5Moose7FaceArgESt4pairIKS1_N11MetaPhysicL10DualNumberIdNS4_28SemiDynamicSparseNumberArrayIdmNS4_8NWrapperILm53EEEEELb1EEEESt10_Select1stISB_ESt4lessIS1_ESaISB_EE22_M_emplace_hint_uniqueIJRKSt21piecewise_construct_tSt5tupleIJRS3_EESM_IJOSA_EEEEESt17_Rb_tree_iteratorISB_ESt23_Rb_tree_const_iteratorISB_EDpOT_
FN:2458,_ZNSt8_Rb_treeIN5Moose15ElemFromFaceArgESt4pairIKS1_N11MetaPhysicL10DualNumberIdNS4_28SemiDynamicSparseNumberArrayIdmNS4_8NWrapperILm53EEEEELb1EEEESt10_Select1stISB_ESt4lessIS1_ESaISB_EE22_M_emplace_hint_uniqueIJRKSt21piecewise_construct_tSt5tupleIJRS3_EESM_IJOSA_EEEEESt17_Rb_tree_iteratorISB_ESt23_Rb_tree_const_iteratorISB_EDpOT_
FNDA:0,_ZNSt8_Rb_treeIN5Moose15ElemFromFaceArgESt4pairIKS1_N11MetaPhysicL10DualNumberIdNS4_28SemiDynamicSparseNumberArrayIdmNS4_8NWrapperILm53EEEEELb1EEEESt10_Select1stISB_ESt4lessIS1_ESaISB_EE22_M_emplace_hint_uniqueIJRKSt21piecewise_construct_tSt5tupleIJRS3_EESM_IJOSA_EEEEESt17_Rb_tree_iteratorISB_ESt23_Rb_tree_const_iteratorISB_EDpOT_
FN:2458,_ZNSt8_Rb_treeIN5Moose7FaceArgESt4pairIKS1_dESt10_Select1stIS4_ESt4lessIS1_ESaIS4_EE22_M_emplace_hint_uniqueIJRKSt21piecewise_construct_tSt5tupleIJRS3_EESF_IJOdEEEEESt17_Rb_tree_iteratorIS4_ESt23_Rb_tree_const_iteratorIS4_EDpOT_
FNDA:0,_ZNSt8_Rb_treeIN5Moose7FaceArgESt4pairIKS1_dESt10_Select1stIS4_ESt4lessIS1_ESaIS4_EE22_M_emplace_hint_uniqueIJRKSt21piecewise_construct_tSt5tupleIJRS3_EESF_IJOdEEEEESt17_Rb_tree_iteratorIS4_ESt23_Rb_tree_const_iteratorIS4_EDpOT_
FN:2458,_ZNSt8_Rb_treeIN5Moose7ElemArgESt4pairIKS1_N11MetaPhysicL10DualNumberIdNS4_28SemiDynamicSparseNumberArrayIdmNS4_8NWrapperILm53EEEEELb1EEEESt10_Select1stISB_ESt4lessIS1_ESaISB_EE22_M_emplace_hint_uniqueIJRKSt21piecewise_construct_tSt5tupleIJRS3_EESM_IJOSA_EEEEESt17_Rb_tree_iteratorISB_ESt23_Rb_tree_const_iteratorISB_EDpOT_
FNDA:0,_ZNSt8_Rb_treeIN5Moose7ElemArgESt4pairIKS1_N11MetaPhysicL10DualNumberIdNS4_28SemiDynamicSparseNumberArrayIdmNS4_8NWrapperILm53EEEEELb1EEEESt10_Select1stISB_ESt4lessIS1_ESaISB_EE22_M_emplace_hint_uniqueIJRKSt21piecewise_construct_tSt5tupleIJRS3_EESM_IJOSA_EEEEESt17_Rb_tree_iteratorISB_ESt23_Rb_tree_const_iteratorISB_EDpOT_
FN:2458,_ZNSt8_Rb_treeIN5Moose18SingleSidedFaceArgESt4pairIKS1_N11MetaPhysicL10DualNumberIdNS4_28SemiDynamicSparseNumberArrayIdmNS4_8NWrapperILm53EEEEELb1EEEESt10_Select1stISB_ESt4lessIS1_ESaISB_EE22_M_emplace_hint_uniqueIJRKSt21piecewise_construct_tSt5tupleIJRS3_EESM_IJOSA_EEEEESt17_Rb_tree_iteratorISB_ESt23_Rb_tree_const_iteratorISB_EDpOT_
FNDA:0,_ZNSt8_Rb_treeIN5Moose18SingleSidedFaceArgESt4pairIKS1_N11MetaPhysicL10DualNumberIdNS4_28SemiDynamicSparseNumberArrayIdmNS4_8NWrapperILm53EEEEELb1EEEESt10_Select1stISB_ESt4lessIS1_ESaISB_EE22_M_emplace_hint_uniqueIJRKSt21piecewise_construct_tSt5tupleIJRS3_EESM_IJOSA_EEEEESt17_Rb_tree_iteratorISB_ESt23_Rb_tree_const_iteratorISB_EDpOT_
FN:2458,_ZNSt8_Rb_treeIN5Moose7ElemArgESt4pairIKS1_dESt10_Select1stIS4_ESt4lessIS1_ESaIS4_EE22_M_emplace_hint_uniqueIJRKSt21piecewise_construct_tSt5tupleIJRS3_EESF_IJOdEEEEESt17_Rb_tree_iteratorIS4_ESt23_Rb_tree_const_iteratorIS4_EDpOT_
FNDA:0,_ZNSt8_Rb_treeIN5Moose7ElemArgESt4pairIKS1_dESt10_Select1stIS4_ESt4lessIS1_ESaIS4_EE22_M_emplace_hint_uniqueIJRKSt21piecewise_construct_tSt5tupleIJRS3_EESF_IJOdEEEEESt17_Rb_tree_iteratorIS4_ESt23_Rb_tree_const_iteratorIS4_EDpOT_
FN:2458,_ZNSt8_Rb_treeIN5Moose15ElemFromFaceArgESt4pairIKS1_dESt10_Select1stIS4_ESt4lessIS1_ESaIS4_EE22_M_emplace_hint_uniqueIJRKSt21piecewise_construct_tSt5tupleIJRS3_EESF_IJOdEEEEESt17_Rb_tree_iteratorIS4_ESt23_Rb_tree_const_iteratorIS4_EDpOT_
FNDA:0,_ZNSt8_Rb_treeIN5Moose15ElemFromFaceArgESt4pairIKS1_dESt10_Select1stIS4_ESt4lessIS1_ESaIS4_EE22_M_emplace_hint_uniqueIJRKSt21piecewise_construct_tSt5tupleIJRS3_EESF_IJOdEEEEESt17_Rb_tree_iteratorIS4_ESt23_Rb_tree_const_iteratorIS4_EDpOT_
FN:2458,_ZNSt8_Rb_treeIN5Moose18SingleSidedFaceArgESt4pairIKS1_dESt10_Select1stIS4_ESt4lessIS1_ESaIS4_EE22_M_emplace_hint_uniqueIJRKSt21piecewise_construct_tSt5tupleIJRS3_EESF_IJOdEEEEESt17_Rb_tree_iteratorIS4_ESt23_Rb_tree_const_iteratorIS4_EDpOT_
FNDA:0,_ZNSt8_Rb_treeIN5Moose18SingleSidedFaceArgESt4pairIKS1_dESt10_Select1stIS4_ESt4lessIS1_ESaIS4_EE22_M_emplace_hint_uniqueIJRKSt21piecewise_construct_tSt5tupleIJRS3_EESF_IJOdEEEEESt17_Rb_tree_iteratorIS4_ESt23_Rb_tree_const_iteratorIS4_EDpOT_
FN:2510,_ZNSt8_Rb_treeINSt7__cxx1112basic_stringIcSt11char_traitsIcESaIcEEESt4pairIKS5_PN7libMesh10Parameters5ValueEESt10_Select1stISC_ESt4lessIvESaISC_EE12_M_erase_auxESt23_Rb_tree_const_iteratorISC_E
FNDA:0,_ZNSt8_Rb_treeINSt7__cxx1112basic_stringIcSt11char_traitsIcESaIcEEESt4pairIKS5_PN7libMesh10Parameters5ValueEESt10_Select1stISC_ESt4lessIvESaISC_EE12_M_erase_auxESt23_Rb_tree_const_iteratorISC_E
FN:2550,_ZNSt8_Rb_treeINSt7__cxx1112basic_stringIcSt11char_traitsIcESaIcEEESt4pairIKS5_PN7libMesh10Parameters5ValueEESt10_Select1stISC_ESt4lessIvESaISC_EE4findERS7_
FNDA:0,_ZNSt8_Rb_treeINSt7__cxx1112basic_stringIcSt11char_traitsIcESaIcEEESt4pairIKS5_PN7libMesh10Parameters5ValueEESt10_Select1stISC_ESt4lessIvESaISC_EE4findERS7_
FN:2563,_ZNKSt8_Rb_treeINSt7__cxx1112basic_stringIcSt11char_traitsIcESaIcEEESt4pairIKS5_N15InputParameters8MetadataEESt10_Select1stISA_ESt4lessIS5_ESaISA_EE4findERS7_
FNDA:0,_ZNKSt8_Rb_treeINSt7__cxx1112basic_stringIcSt11char_traitsIcESaIcEEESt4pairIKS5_N15InputParameters8MetadataEESt10_Select1stISA_ESt4lessIS5_ESaISA_EE4findERS7_
FN:2563,_ZNKSt8_Rb_treeINSt7__cxx1112basic_stringIcSt11char_traitsIcESaIcEEESt4pairIKS5_PN7libMesh10Parameters5ValueEESt10_Select1stISC_ESt4lessIvESaISC_EE4findERS7_
FNDA:0,_ZNKSt8_Rb_treeINSt7__cxx1112basic_stringIcSt11char_traitsIcESaIcEEESt4pairIKS5_PN7libMesh10Parameters5ValueEESt10_Select1stISC_ESt4lessIvESaISC_EE4findERS7_
FN:2563,_ZNKSt8_Rb_treeI13MooseEnumItemS0_St9_IdentityIS0_ESt4lessIS0_ESaIS0_EE4findERKS0_
FNDA:0,_ZNKSt8_Rb_treeI13MooseEnumItemS0_St9_IdentityIS0_ESt4lessIS0_ESaIS0_EE4findERKS0_
FNF:109
FNH:10
DA:208,0
DA:209,0
DA:210,0
DA:211,0
DA:282,0
DA:287,0
DA:302,0
DA:303,0
DA:350,0
DA:351,0
DA:355,0
DA:368,0
DA:369,0
DA:397,0
DA:542,1197
DA:543,1197
DA:552,1197
DA:571,0
DA:613,1197
DA:622,0
DA:624,0
DA:626,0
DA:628,1197
DA:613,0
DA:622,0
DA:624,0
DA:626,0
DA:628,0
DA:613,0
DA:622,0
DA:624,0
DA:626,0
DA:628,0
DA:632,0
DA:636,0
DA:632,0
DA:636,0
DA:632,0
DA:636,0
DA:632,0
DA:636,0
DA:632,0
DA:636,0
DA:632,0
DA:636,0
DA:632,1197
DA:635,1197
DA:636,1197
DA:632,0
DA:635,0
DA:636,0
DA:632,0
DA:635,0
DA:636,0
DA:647,5631
DA:652,0
DA:656,0
DA:652,0
DA:656,0
DA:652,0
DA:656,0
DA:749,0
DA:755,0
DA:760,1197
DA:764,0
DA:790,7875
DA:794,0
DA:798,0
DA:802,0
DA:991,0
DA:1003,0
DA:1007,0
DA:1011,0
DA:1015,8821
DA:1035,0
DA:1039,0
DA:1211,0
DA:1214,0
DA:1216,0
DA:1217,0
DA:1259,0
DA:1261,0
DA:1263,0
DA:1259,0
DA:1261,0
DA:1263,0
DA:1259,0
DA:1261,0
DA:1263,0
DA:1259,0
DA:1261,0
DA:1263,0
DA:1259,0
DA:1261,0
DA:1263,0
DA:1259,0
DA:1261,0
DA:1263,0
DA:1259,0
DA:1261,0
DA:1263,0
DA:1259,0
DA:1261,0
DA:1263,0
DA:1277,0
DA:1281,0
DA:1310,0
DA:1312,0
DA:1313,0
DA:1315,0
DA:1339,0
DA:1343,0
DA:1344,0
DA:1351,0
DA:1803,0
DA:1812,0
DA:1813,0
DA:1818,0
DA:1819,0
DA:1820,0
DA:1821,0
DA:1803,1197
DA:1812,1197
DA:1813,2025
DA:1818,1197
DA:1819,1197
DA:1820,1197
DA:1821,1197
DA:1913,0
DA:1917,0
DA:1919,0
DA:1921,0
DA:1924,0
DA:1913,0
DA:1917,0
DA:1919,0
DA:1924,0
DA:1913,0
DA:1917,0
DA:1919,0
DA:1924,0
DA:1913,0
DA:1917,0
DA:1919,0
DA:1924,0
DA:1913,4563
DA:1917,7908
DA:1919,3345
DA:1924,4563
DA:1913,1176
DA:1917,1743
DA:1919,567
DA:1924,1176
DA:1913,2286
DA:1917,3963
DA:1919,1677
DA:1924,2286
DA:1913,609
DA:1917,609
DA:1919,0
DA:1921,0
DA:1924,609
DA:1913,1218
DA:1917,1827
DA:1919,609
DA:1924,1218
DA:1913,2286
DA:1917,3963
DA:1919,1677
DA:1924,2286
DA:1913,0
DA:1917,0
DA:1919,0
DA:1921,0
DA:1924,0
DA:1913,0
DA:1917,0
DA:1919,0
DA:1924,0
DA:1913,0
DA:1917,0
DA:1919,0
DA:1924,0
DA:1913,0
DA:1917,0
DA:1919,0
DA:1924,0
DA:1913,0
DA:1917,0
DA:1919,0
DA:1924,0
DA:1913,0
DA:1917,0
DA:1919,0
DA:1924,0
DA:1913,0
DA:1917,0
DA:1919,0
DA:1924,0
DA:1913,0
DA:1917,0
DA:1919,0
DA:1924,0
DA:1913,0
DA:1917,0
DA:1919,0
DA:1924,0
DA:1930,0
DA:1934,0
DA:1935,0
DA:1939,0
DA:1930,0
DA:1934,0
DA:1935,0
DA:1939,0
DA:1930,0
DA:1934,0
DA:1935,0
DA:1939,0
DA:1930,0
DA:1934,0
DA:1939,0
DA:1930,0
DA:1934,0
DA:1935,0
DA:1939,0
DA:1930,0
DA:1934,0
DA:1935,0
DA:1939,0
DA:1930,0
DA:1934,0
DA:1935,0
DA:1939,0
DA:1930,0
DA:1934,0
DA:1939,0
DA:1930,0
DA:1934,0
DA:1935,0
DA:1939,0
DA:1930,0
DA:1934,0
DA:1935,0
DA:1939,0
DA:1946,0
DA:1950,0
DA:1951,0
DA:1955,0
DA:1946,0
DA:1950,0
DA:1951,0
DA:1955,0
DA:1946,0
DA:1950,0
DA:1951,0
DA:1955,0
DA:2091,0
DA:2098,0
DA:2102,0
DA:2105,0
DA:2107,0
DA:2108,0
DA:2112,0
DA:2113,0
DA:2114,0
DA:2091,0
DA:2098,0
DA:2102,0
DA:2105,0
DA:2107,0
DA:2108,0
DA:2112,0
DA:2113,0
DA:2114,0
DA:2091,0
DA:2098,0
DA:2102,0
DA:2105,0
DA:2107,0
DA:2108,0
DA:2112,0
DA:2113,0
DA:2114,0
DA:2091,0
DA:2098,0
DA:2105,0
DA:2107,0
DA:2108,0
DA:2113,0
DA:2114,0
DA:2091,0
DA:2098,0
DA:2102,0
DA:2105,0
DA:2107,0
DA:2108,0
DA:2112,0
DA:2113,0
DA:2114,0
DA:2091,0
DA:2098,0
DA:2102,0
DA:2105,0
DA:2107,0
DA:2108,0
DA:2112,0
DA:2113,0
DA:2114,0
DA:2091,0
DA:2098,0
DA:2102,0
DA:2105,0
DA:2107,0
DA:2108,0
DA:2112,0
DA:2113,0
DA:2114,0
DA:2091,0
DA:2098,0
DA:2105,0
DA:2107,0
DA:2108,0
DA:2113,0
DA:2114,0
DA:2091,0
DA:2098,0
DA:2102,0
DA:2105,0
DA:2107,0
DA:2108,0
DA:2112,0
DA:2113,0
DA:2114,0
DA:2091,0
DA:2098,0
DA:2102,0
DA:2105,0
DA:2107,0
DA:2108,0
DA:2112,0
DA:2113,0
DA:2114,0
DA:2091,0
DA:2098,0
DA:2102,0
DA:2105,0
DA:2107,0
DA:2108,0
DA:2112,0
DA:2113,0
DA:2114,0
DA:2091,0
DA:2098,0
DA:2102,0
DA:2105,0
DA:2107,0
DA:2108,0
DA:2112,0
DA:2113,0
DA:2114,0
DA:2145,0
DA:2154,0
DA:2156,0
DA:2159,0
DA:2161,0
DA:2164,0
DA:2145,1197
DA:2154,1197
DA:2156,1197
DA:2159,1197
DA:2161,1197
DA:2164,0
DA:2193,0
DA:2201,0
DA:2204,0
DA:2205,0
DA:2207,0
DA:2209,0
DA:2213,0
DA:2214,0
DA:2215,0
DA:2217,0
DA:2218,0
DA:2220,0
DA:2223,0
DA:2225,0
DA:2229,0
DA:2230,0
DA:2231,0
DA:2233,0
DA:2234,0
DA:2236,0
DA:2239,0
DA:2243,0
DA:2193,0
DA:2201,0
DA:2204,0
DA:2205,0
DA:2207,0
DA:2209,0
DA:2213,0
DA:2214,0
DA:2215,0
DA:2217,0
DA:2218,0
DA:2220,0
DA:2223,0
DA:2225,0
DA:2229,0
DA:2230,0
DA:2231,0
DA:2233,0
DA:2234,0
DA:2236,0
DA:2239,0
DA:2243,0
DA:2193,0
DA:2201,0
DA:2204,0
DA:2205,0
DA:2207,0
DA:2209,0
DA:2213,0
DA:2214,0
DA:2215,0
DA:2217,0
DA:2218,0
DA:2220,0
DA:2223,0
DA:2225,0
DA:2229,0
DA:2230,0
DA:2231,0
DA:2233,0
DA:2234,0
DA:2236,0
DA:2239,0
DA:2243,0
DA:2193,0
DA:2201,0
DA:2204,0
DA:2205,0
DA:2207,0
DA:2213,0
DA:2214,0
DA:2217,0
DA:2218,0
DA:2220,0
DA:2223,0
DA:2229,0
DA:2230,0
DA:2233,0
DA:2234,0
DA:2236,0
DA:2239,0
DA:2243,0
DA:2193,0
DA:2201,0
DA:2204,0
DA:2205,0
DA:2207,0
DA:2209,0
DA:2213,0
DA:2214,0
DA:2215,0
DA:2217,0
DA:2218,0
DA:2220,0
DA:2223,0
DA:2225,0
DA:2229,0
DA:2230,0
DA:2231,0
DA:2233,0
DA:2234,0
DA:2236,0
DA:2239,0
DA:2243,0
DA:2193,0
DA:2201,0
DA:2204,0
DA:2205,0
DA:2207,0
DA:2209,0
DA:2213,0
DA:2214,0
DA:2215,0
DA:2217,0
DA:2218,0
DA:2220,0
DA:2223,0
DA:2225,0
DA:2229,0
DA:2230,0
DA:2231,0
DA:2233,0
DA:2234,0
DA:2236,0
DA:2239,0
DA:2243,0
DA:2193,0
DA:2201,0
DA:2204,0
DA:2205,0
DA:2207,0
DA:2209,0
DA:2213,0
DA:2214,0
DA:2215,0
DA:2217,0
DA:2218,0
DA:2220,0
DA:2223,0
DA:2225,0
DA:2229,0
DA:2230,0
DA:2231,0
DA:2233,0
DA:2234,0
DA:2236,0
DA:2239,0
DA:2243,0
DA:2193,0
DA:2201,0
DA:2204,0
DA:2205,0
DA:2207,0
DA:2213,0
DA:2214,0
DA:2217,0
DA:2218,0
DA:2220,0
DA:2223,0
DA:2229,0
DA:2230,0
DA:2233,0
DA:2234,0
DA:2236,0
DA:2239,0
DA:2243,0
DA:2193,0
DA:2201,0
DA:2204,0
DA:2205,0
DA:2207,0
DA:2209,0
DA:2213,0
DA:2214,0
DA:2215,0
DA:2217,0
DA:2218,0
DA:2220,0
DA:2223,0
DA:2225,0
DA:2229,0
DA:2230,0
DA:2231,0
DA:2233,0
DA:2234,0
DA:2236,0
DA:2239,0
DA:2243,0
DA:2193,0
DA:2201,0
DA:2204,0
DA:2205,0
DA:2207,0
DA:2209,0
DA:2213,0
DA:2214,0
DA:2215,0
DA:2217,0
DA:2218,0
DA:2220,0
DA:2223,0
DA:2225,0
DA:2229,0
DA:2230,0
DA:2231,0
DA:2233,0
DA:2234,0
DA:2236,0
DA:2239,0
DA:2243,0
DA:2360,0
DA:2363,0
DA:2364,0
DA:2367,0
DA:2368,0
DA:2369,0
DA:2370,0
DA:2360,0
DA:2363,0
DA:2364,0
DA:2367,0
DA:2368,0
DA:2369,0
DA:2370,0
DA:2360,0
DA:2363,0
DA:2364,0
DA:2367,0
DA:2368,0
DA:2369,0
DA:2370,0
DA:2360,0
DA:2363,0
DA:2364,0
DA:2367,0
DA:2368,0
DA:2369,0
DA:2370,0
DA:2360,0
DA:2363,0
DA:2364,0
DA:2367,0
DA:2368,0
DA:2369,0
DA:2370,0
DA:2360,0
DA:2363,0
DA:2364,0
DA:2367,0
DA:2368,0
DA:2369,0
DA:2370,0
DA:2360,0
DA:2363,0
DA:2364,0
DA:2367,0
DA:2368,0
DA:2369,0
DA:2370,0
DA:2360,0
DA:2363,0
DA:2364,0
DA:2367,0
DA:2368,0
DA:2369,0
DA:2370,0
DA:2360,0
DA:2363,0
DA:2364,0
DA:2367,0
DA:2368,0
DA:2369,0
DA:2370,0
DA:2360,0
DA:2363,0
DA:2364,0
DA:2367,0
DA:2368,0
DA:2369,0
DA:2370,0
DA:2458,0
DA:2465,0
DA:2467,0
DA:2468,0
DA:2471,0
DA:2458,0
DA:2461,0
DA:2465,0
DA:2467,0
DA:2468,0
DA:2471,0
DA:2458,0
DA:2461,0
DA:2465,0
DA:2467,0
DA:2468,0
DA:2471,0
DA:2458,0
DA:2465,0
DA:2467,0
DA:2468,0
DA:2471,0
DA:2458,0
DA:2461,0
DA:2465,0
DA:2467,0
DA:2468,0
DA:2471,0
DA:2458,0
DA:2461,0
DA:2465,0
DA:2467,0
DA:2468,0
DA:2471,0
DA:2458,0
DA:2461,0
DA:2465,0
DA:2467,0
DA:2468,0
DA:2471,0
DA:2458,0
DA:2461,0
DA:2465,0
DA:2467,0
DA:2468,0
DA:2471,0
DA:2458,0
DA:2461,0
DA:2465,0
DA:2467,0
DA:2468,0
DA:2470,0
DA:2471,0
DA:2458,0
DA:2461,0
DA:2465,0
DA:2467,0
DA:2468,0
DA:2471,0
DA:2510,0
DA:2515,0
DA:2516,0
DA:2518,0
DA:2519,0
DA:2550,0
DA:2553,0
DA:2555,0
DA:2556,0
DA:2563,0
DA:2566,0
DA:2568,0
DA:2569,0
DA:2563,0
DA:2566,0
DA:2568,0
DA:2569,0
DA:2563,0
DA:2566,0
DA:2568,0
DA:2569,0
LF:735
LH:47
end_of_record
SF:/home/runner/work/raccoon/raccoon/src/materials/NucleationMicroForce.C
FN:11,_ZN20NucleationMicroForce11validParamsEv
FNDA:161,_ZN20NucleationMicroForce11validParamsEv
FN:45,_ZN20NucleationMicroForceC2ERK15InputParameters
FNDA:3,_ZN20NucleationMicroForceC2ERK15InputParameters
FN:62,_ZN20NucleationMicroForce19computeQpPropertiesEv
FNDA:41856,_ZN20NucleationMicroForce19computeQpPropertiesEv
FNF:3
FNH:3
DA:11,161
DA:13,161
DA:14,161
DA:16,161
DA:20,322
DA:22,322
DA:24,322
DA:27,322
DA:28,322
DA:30,322
DA:32,322
DA:36,322
DA:37,322
DA:42,161
DA:45,3
DA:48,6
DA:49,6
DA:50,6
DA:51,6
DA:52,6
DA:53,6
DA:54,3
DA:55,3
DA:56,6
DA:57,33
DA:59,3
DA:62,41856
DA:65,83712
DA:69,83712
DA:70,41856
DA:71,83712
DA:74,41856
DA:77,41856
DA:78,41856
DA:79,83712
DA:85,41856
DA:86,13920
DA:89,41856
DA:90,41856
DA:91,41856
DA:92,125568
DA:93,41856
DA:94,83712
DA:95,125568
DA:96,41856
LF:45
LH:45
end_of_record
SF:/usr/share/miniconda/envs/moose/x86_64-conda-linux-gnu/include/c++/10.3.0/bits/unique_ptr.h
FN:79,_ZNKSt14default_deleteI10MooseArrayIN7libMesh11VectorValueIN11MetaPhysicL10DualNumberIdNS3_28SemiDynamicSparseNumberArrayIdmNS3_8NWrapperILm53EEEEELb1EEEEEEEclEPSB_
FNDA:0,_ZNKSt14default_deleteI10MooseArrayIN7libMesh11VectorValueIN11MetaPhysicL10DualNumberIdNS3_28SemiDynamicSparseNumberArrayIdmNS3_8NWrapperILm53EEEEELb1EEEEEEEclEPSB_
FN:79,_ZNKSt14default_deleteI10MooseArrayIN5Eigen6MatrixIdLin1ELi1ELi0ELin1ELi1EEEEEclEPS4_
FNDA:0,_ZNKSt14default_deleteI10MooseArrayIN5Eigen6MatrixIdLin1ELi1ELi0ELin1ELi1EEEEEclEPS4_
FN:79,_ZNKSt14default_deleteI10MooseArrayIN7libMesh11VectorValueIdEEEEclEPS4_
FNDA:0,_ZNKSt14default_deleteI10MooseArrayIN7libMesh11VectorValueIdEEEEclEPS4_
FN:79,_ZNKSt14default_deleteI10MooseArrayIN11MetaPhysicL10DualNumberIdNS1_28SemiDynamicSparseNumberArrayIdmNS1_8NWrapperILm53EEEEELb1EEEEEclEPS8_
FNDA:0,_ZNKSt14default_deleteI10MooseArrayIN11MetaPhysicL10DualNumberIdNS1_28SemiDynamicSparseNumberArrayIdmNS1_8NWrapperILm53EEEEELb1EEEEEclEPS8_
FN:79,_ZNKSt14default_deleteI10MooseArrayIdEEclEPS1_
FNDA:0,_ZNKSt14default_deleteI10MooseArrayIdEEclEPS1_
FN:116,_ZNKSt14default_deleteIA_18RankTwoTensorTemplIN11MetaPhysicL10DualNumberIdNS1_28SemiDynamicSparseNumberArrayIdmNS1_8NWrapperILm53EEEEELb1EEEEEclIS8_EENSt9enable_ifIXsrSt14is_convertibleIPA_T_PS9_E5valueEvE4typeEPSE_
FNDA:0,_ZNKSt14default_deleteIA_18RankTwoTensorTemplIN11MetaPhysicL10DualNumberIdNS1_28SemiDynamicSparseNumberArrayIdmNS1_8NWrapperILm53EEEEELb1EEEEEclIS8_EENSt9enable_ifIXsrSt14is_convertibleIPA_T_PS9_E5valueEvE4typeEPSE_
FN:116,_ZNKSt14default_deleteIA_N5Eigen6MatrixIdLin1ELi3ELi0ELin1ELi3EEEEclIS2_EENSt9enable_ifIXsrSt14is_convertibleIPA_T_PS3_E5valueEvE4typeEPS8_
FNDA:0,_ZNKSt14default_deleteIA_N5Eigen6MatrixIdLin1ELi3ELi0ELin1ELi3EEEEclIS2_EENSt9enable_ifIXsrSt14is_convertibleIPA_T_PS3_E5valueEvE4typeEPS8_
FN:116,_ZNKSt14default_deleteIA_N5Eigen6MatrixIdLin1ELi1ELi0ELin1ELi1EEEEclIS2_EENSt9enable_ifIXsrSt14is_convertibleIPA_T_PS3_E5valueEvE4typeEPS8_
FNDA:0,_ZNKSt14default_deleteIA_N5Eigen6MatrixIdLin1ELi1ELi0ELin1ELi1EEEEclIS2_EENSt9enable_ifIXsrSt14is_convertibleIPA_T_PS3_E5valueEvE4typeEPS8_
FN:116,_ZNKSt14default_deleteIA_N11MetaPhysicL10DualNumberIdNS0_28SemiDynamicSparseNumberArrayIdmNS0_8NWrapperILm53EEEEELb1EEEEclIS6_EENSt9enable_ifIXsrSt14is_convertibleIPA_T_PS7_E5valueEvE4typeEPSC_
FNDA:0,_ZNKSt14default_deleteIA_N11MetaPhysicL10DualNumberIdNS0_28SemiDynamicSparseNumberArrayIdmNS0_8NWrapperILm53EEEEELb1EEEEclIS6_EENSt9enable_ifIXsrSt14is_convertibleIPA_T_PS7_E5valueEvE4typeEPSC_
FN:116,_ZNKSt14default_deleteIA_N7libMesh11TensorValueIdEEEclIS2_EENSt9enable_ifIXsrSt14is_convertibleIPA_T_PS3_E5valueEvE4typeEPS8_
FNDA:0,_ZNKSt14default_deleteIA_N7libMesh11TensorValueIdEEEclIS2_EENSt9enable_ifIXsrSt14is_convertibleIPA_T_PS3_E5valueEvE4typeEPS8_
FN:116,_ZNKSt14default_deleteIA_N7libMesh11TensorValueIN11MetaPhysicL10DualNumberIdNS2_28SemiDynamicSparseNumberArrayIdmNS2_8NWrapperILm53EEEEELb1EEEEEEclIS9_EENSt9enable_ifIXsrSt14is_convertibleIPA_T_PSA_E5valueEvE4typeEPSF_
FNDA:0,_ZNKSt14default_deleteIA_N7libMesh11TensorValueIN11MetaPhysicL10DualNumberIdNS2_28SemiDynamicSparseNumberArrayIdmNS2_8NWrapperILm53EEEEELb1EEEEEEclIS9_EENSt9enable_ifIXsrSt14is_convertibleIPA_T_PSA_E5valueEvE4typeEPSF_
FN:116,_ZNKSt14default_deleteIA_N7libMesh11VectorValueIN11MetaPhysicL10DualNumberIdNS2_28SemiDynamicSparseNumberArrayIdmNS2_8NWrapperILm53EEEEELb1EEEEEEclIS9_EENSt9enable_ifIXsrSt14is_convertibleIPA_T_PSA_E5valueEvE4typeEPSF_
FNDA:0,_ZNKSt14default_deleteIA_N7libMesh11VectorValueIN11MetaPhysicL10DualNumberIdNS2_28SemiDynamicSparseNumberArrayIdmNS2_8NWrapperILm53EEEEELb1EEEEEEclIS9_EENSt9enable_ifIXsrSt14is_convertibleIPA_T_PSA_E5valueEvE4typeEPSF_
FN:116,_ZNKSt14default_deleteIA_18RankTwoTensorTemplIdEEclIS1_EENSt9enable_ifIXsrSt14is_convertibleIPA_T_PS2_E5valueEvE4typeEPS7_
FNDA:0,_ZNKSt14default_deleteIA_18RankTwoTensorTemplIdEEclIS1_EENSt9enable_ifIXsrSt14is_convertibleIPA_T_PS2_E5valueEvE4typeEPS7_
FN:355,_ZNSt10unique_ptrINSt13__future_base12_Result_baseENS1_8_DeleterEED2Ev
FNDA:0,_ZNSt10unique_ptrINSt13__future_base12_Result_baseENS1_8_DeleterEED2Ev
FN:355,_ZNSt10unique_ptrI16MaterialPropertyIdESt14default_deleteIS1_EED2Ev
FNDA:0,_ZNSt10unique_ptrI16MaterialPropertyIdESt14default_deleteIS1_EED2Ev
FN:355,_ZNSt10unique_ptrI18ADMaterialPropertyIdESt14default_deleteIS1_EED2Ev
FNDA:0,_ZNSt10unique_ptrI18ADMaterialPropertyIdESt14default_deleteIS1_EED2Ev
FN:355,_ZNSt10unique_ptrI16MaterialPropertyIN7libMesh11VectorValueIdEEESt14default_deleteIS4_EED2Ev
FNDA:0,_ZNSt10unique_ptrI16MaterialPropertyIN7libMesh11VectorValueIdEEESt14default_deleteIS4_EED2Ev
FN:355,_ZNSt10unique_ptrI18ADMaterialPropertyIN7libMesh11VectorValueIdEEESt14default_deleteIS4_EED2Ev
FNDA:0,_ZNSt10unique_ptrI18ADMaterialPropertyIN7libMesh11VectorValueIdEEESt14default_deleteIS4_EED2Ev
FN:355,_ZNSt10unique_ptrI33OptionalMaterialPropertyProxyBaseI25MaterialPropertyInterfaceESt14default_deleteIS2_EED2Ev
FNDA:0,_ZNSt10unique_ptrI33OptionalMaterialPropertyProxyBaseI25MaterialPropertyInterfaceESt14default_deleteIS2_EED2Ev
FN:355,_ZNSt10unique_ptrIN5Moose11FunctorBaseIN11MetaPhysicL10DualNumberIdNS2_28SemiDynamicSparseNumberArrayIdmNS2_8NWrapperILm53EEEEELb1EEEEESt14default_deleteIS9_EED2Ev
FNDA:0,_ZNSt10unique_ptrIN5Moose11FunctorBaseIN11MetaPhysicL10DualNumberIdNS2_28SemiDynamicSparseNumberArrayIdmNS2_8NWrapperILm53EEEEELb1EEEEESt14default_deleteIS9_EED2Ev
FN:355,_ZNSt10unique_ptrI10MooseArrayIdESt14default_deleteIS1_EED2Ev
FNDA:0,_ZNSt10unique_ptrI10MooseArrayIdESt14default_deleteIS1_EED2Ev
FN:355,_ZNSt10unique_ptrI10MooseArrayIN11MetaPhysicL10DualNumberIdNS1_28SemiDynamicSparseNumberArrayIdmNS1_8NWrapperILm53EEEEELb1EEEESt14default_deleteIS8_EED2Ev
FNDA:0,_ZNSt10unique_ptrI10MooseArrayIN11MetaPhysicL10DualNumberIdNS1_28SemiDynamicSparseNumberArrayIdmNS1_8NWrapperILm53EEEEELb1EEEESt14default_deleteIS8_EED2Ev
FN:355,_ZNSt10unique_ptrIdSt14default_deleteIdEED2Ev
FNDA:0,_ZNSt10unique_ptrIdSt14default_deleteIdEED2Ev
FN:355,_ZNSt10unique_ptrI10MooseArrayIN7libMesh11VectorValueIdEEESt14default_deleteIS4_EED2Ev
FNDA:0,_ZNSt10unique_ptrI10MooseArrayIN7libMesh11VectorValueIdEEESt14default_deleteIS4_EED2Ev
FN:355,_ZNSt10unique_ptrI10MooseArrayIN5Eigen6MatrixIdLin1ELi1ELi0ELin1ELi1EEEESt14default_deleteIS4_EED2Ev
FNDA:0,_ZNSt10unique_ptrI10MooseArrayIN5Eigen6MatrixIdLin1ELi1ELi0ELin1ELi1EEEESt14default_deleteIS4_EED2Ev
FN:355,_ZNSt10unique_ptrI10MooseArrayIN7libMesh11VectorValueIN11MetaPhysicL10DualNumberIdNS3_28SemiDynamicSparseNumberArrayIdmNS3_8NWrapperILm53EEEEELb1EEEEEESt14default_deleteISB_EED2Ev
FNDA:0,_ZNSt10unique_ptrI10MooseArrayIN7libMesh11VectorValueIN11MetaPhysicL10DualNumberIdNS3_28SemiDynamicSparseNumberArrayIdmNS3_8NWrapperILm53EEEEELb1EEEEEESt14default_deleteISB_EED2Ev
FN:355,_ZNSt10unique_ptrI33OptionalMaterialPropertyProxyBaseI8MaterialESt14default_deleteIS2_EED2Ev
FNDA:0,_ZNSt10unique_ptrI33OptionalMaterialPropertyProxyBaseI8MaterialESt14default_deleteIS2_EED2Ev
FN:355,_ZNSt10unique_ptrIN5Moose11FunctorBaseIdEESt14default_deleteIS2_EED2Ev
FNDA:0,_ZNSt10unique_ptrIN5Moose11FunctorBaseIdEESt14default_deleteIS2_EED2Ev
FN:608,_ZNSt10unique_ptrIA_18RankTwoTensorTemplIN11MetaPhysicL10DualNumberIdNS1_28SemiDynamicSparseNumberArrayIdmNS1_8NWrapperILm53EEEEELb1EEEESt14default_deleteIS9_EED2Ev
FNDA:0,_ZNSt10unique_ptrIA_18RankTwoTensorTemplIN11MetaPhysicL10DualNumberIdNS1_28SemiDynamicSparseNumberArrayIdmNS1_8NWrapperILm53EEEEELb1EEEESt14default_deleteIS9_EED2Ev
FN:608,_ZNSt10unique_ptrIA_N7libMesh11VectorValueIN11MetaPhysicL10DualNumberIdNS2_28SemiDynamicSparseNumberArrayIdmNS2_8NWrapperILm53EEEEELb1EEEEESt14default_deleteISA_EED2Ev
FNDA:0,_ZNSt10unique_ptrIA_N7libMesh11VectorValueIN11MetaPhysicL10DualNumberIdNS2_28SemiDynamicSparseNumberArrayIdmNS2_8NWrapperILm53EEEEELb1EEEEESt14default_deleteISA_EED2Ev
FN:608,_ZNSt10unique_ptrIA_N7libMesh11TensorValueIN11MetaPhysicL10DualNumberIdNS2_28SemiDynamicSparseNumberArrayIdmNS2_8NWrapperILm53EEEEELb1EEEEESt14default_deleteISA_EED2Ev
FNDA:0,_ZNSt10unique_ptrIA_N7libMesh11TensorValueIN11MetaPhysicL10DualNumberIdNS2_28SemiDynamicSparseNumberArrayIdmNS2_8NWrapperILm53EEEEELb1EEEEESt14default_deleteISA_EED2Ev
FN:608,_ZNSt10unique_ptrIA_N7libMesh11TensorValueIdEESt14default_deleteIS3_EED2Ev
FNDA:0,_ZNSt10unique_ptrIA_N7libMesh11TensorValueIdEESt14default_deleteIS3_EED2Ev
FN:608,_ZNSt10unique_ptrIA_N5Eigen6MatrixIdLin1ELi1ELi0ELin1ELi1EEESt14default_deleteIS3_EED2Ev
FNDA:0,_ZNSt10unique_ptrIA_N5Eigen6MatrixIdLin1ELi1ELi0ELin1ELi1EEESt14default_deleteIS3_EED2Ev
FN:608,_ZNSt10unique_ptrIA_N5Eigen6MatrixIdLin1ELi3ELi0ELin1ELi3EEESt14default_deleteIS3_EED2Ev
FNDA:0,_ZNSt10unique_ptrIA_N5Eigen6MatrixIdLin1ELi3ELi0ELin1ELi3EEESt14default_deleteIS3_EED2Ev
FN:608,_ZNSt10unique_ptrIA_18RankTwoTensorTemplIdESt14default_deleteIS2_EED2Ev
FNDA:0,_ZNSt10unique_ptrIA_18RankTwoTensorTemplIdESt14default_deleteIS2_EED2Ev
FN:608,_ZNSt10unique_ptrIA_N11MetaPhysicL10DualNumberIdNS0_28SemiDynamicSparseNumberArrayIdmNS0_8NWrapperILm53EEEEELb1EEESt14default_deleteIS7_EED2Ev
FNDA:0,_ZNSt10unique_ptrIA_N11MetaPhysicL10DualNumberIdNS0_28SemiDynamicSparseNumberArrayIdmNS0_8NWrapperILm53EEEEELb1EEESt14default_deleteIS7_EED2Ev
FNF:36
FNH:0
DA:79,0
DA:85,0
DA:86,0
DA:79,0
DA:85,0
DA:86,0
DA:79,0
DA:85,0
DA:86,0
DA:79,0
DA:85,0
DA:86,0
DA:79,0
DA:85,0
DA:86,0
DA:85,0
DA:86,0
DA:116,0
DA:120,0
DA:121,0
DA:116,0
DA:120,0
DA:121,0
DA:116,0
DA:120,0
DA:121,0
DA:116,0
DA:120,0
DA:121,0
DA:116,0
DA:120,0
DA:121,0
DA:116,0
DA:120,0
DA:121,0
DA:116,0
DA:120,0
DA:121,0
DA:116,0
DA:120,0
DA:121,0
DA:120,0
DA:121,0
DA:173,0
DA:174,0
DA:179,0
DA:180,0
DA:181,0
DA:182,0
DA:355,0
DA:360,0
DA:363,0
DA:355,0
DA:360,0
DA:363,0
DA:355,0
DA:360,0
DA:361,0
DA:363,0
DA:355,0
DA:360,0
DA:361,0
DA:363,0
DA:355,0
DA:360,0
DA:361,0
DA:363,0
DA:355,0
DA:360,0
DA:363,0
DA:355,0
DA:360,0
DA:361,0
DA:363,0
DA:355,0
DA:360,0
DA:361,0
DA:363,0
DA:355,0
DA:360,0
DA:363,0
DA:355,0
DA:360,0
DA:363,0
DA:355,0
DA:360,0
DA:363,0
DA:355,0
DA:360,0
DA:363,0
DA:355,0
DA:360,0
DA:363,0
DA:355,0
DA:360,0
DA:363,0
DA:355,0
DA:360,0
DA:363,0
DA:360,0
DA:363,0
DA:608,0
DA:611,0
DA:612,0
DA:614,0
DA:608,0
DA:611,0
DA:612,0
DA:614,0
DA:608,0
DA:611,0
DA:612,0
DA:614,0
DA:608,0
DA:611,0
DA:612,0
DA:614,0
DA:608,0
DA:611,0
DA:612,0
DA:614,0
DA:608,0
DA:611,0
DA:612,0
DA:614,0
DA:608,0
DA:611,0
DA:612,0
DA:614,0
DA:608,0
DA:611,0
DA:612,0
DA:614,0
DA:611,0
LF:134
LH:0
end_of_record
SF:/home/runner/work/raccoon/raccoon/moose/framework/build/header_symlinks/MaterialBase.h
FN:75,_ZN12MaterialBase19isInterfaceMaterialEv
FNDA:0,_ZN12MaterialBase19isInterfaceMaterialEv
FN:172,_ZN12MaterialBase17getRequestedItemsB5cxx11Ev
FNDA:1844,_ZN12MaterialBase17getRequestedItemsB5cxx11Ev
FN:178,_ZN12MaterialBase16getSuppliedItemsB5cxx11Ev
FNDA:9103,_ZN12MaterialBase16getSuppliedItemsB5cxx11Ev
FN:258,_ZNK12MaterialBase9miProblemEv
FNDA:0,_ZNK12MaterialBase9miProblemEv
FN:259,_ZN12MaterialBase9miProblemEv
FNDA:0,_ZN12MaterialBase9miProblemEv
FN:435,_ZN12MaterialBase17declareADPropertyI18RankTwoTensorTemplIdEEER18ADMaterialPropertyIT_ERKNSt7__cxx1112basic_stringIcSt11char_traitsIcESaIcEEE
FNDA:441,_ZN12MaterialBase17declareADPropertyI18RankTwoTensorTemplIdEEER18ADMaterialPropertyIT_ERKNSt7__cxx1112basic_stringIcSt11char_traitsIcESaIcEEE
FN:435,_ZN12MaterialBase17declareADPropertyIdEER18ADMaterialPropertyIT_ERKNSt7__cxx1112basic_stringIcSt11char_traitsIcESaIcEEE
FNDA:2226,_ZN12MaterialBase17declareADPropertyIdEER18ADMaterialPropertyIT_ERKNSt7__cxx1112basic_stringIcSt11char_traitsIcESaIcEEE
FN:447,_ZN12MaterialBase23declareADPropertyByNameI18RankTwoTensorTemplIdEEER18ADMaterialPropertyIT_ERKNSt7__cxx1112basic_stringIcSt11char_traitsIcESaIcEEE
FNDA:441,_ZN12MaterialBase23declareADPropertyByNameI18RankTwoTensorTemplIdEEER18ADMaterialPropertyIT_ERKNSt7__cxx1112basic_stringIcSt11char_traitsIcESaIcEEE
FN:447,_ZN12MaterialBase23declareADPropertyByNameIdEER18ADMaterialPropertyIT_ERKNSt7__cxx1112basic_stringIcSt11char_traitsIcESaIcEEE
FNDA:2226,_ZN12MaterialBase23declareADPropertyByNameIdEER18ADMaterialPropertyIT_ERKNSt7__cxx1112basic_stringIcSt11char_traitsIcESaIcEEE
FNF:9
FNH:6
DA:75,0
DA:172,1844
DA:178,9103
DA:258,0
DA:259,0
DA:435,441
DA:438,441
DA:439,441
DA:440,0
DA:442,882
DA:435,2226
DA:438,2226
DA:439,2226
DA:440,0
DA:442,4452
DA:447,441
DA:449,441
DA:452,441
DA:453,441
DA:454,882
DA:447,2226
DA:449,2226
DA:452,2226
DA:453,2226
DA:454,4452
LF:25
LH:20
end_of_record
SF:/usr/share/miniconda/envs/moose/libmesh/include/metaphysicl/dynamicsparsenumberbase_decl.h
FN:71,_ZN11MetaPhysicL23DynamicSparseNumberBaseINS_22DynamicStdArrayWrapperIdNS_8NWrapperILm53EEEEENS1_ImS3_EENS_28SemiDynamicSparseNumberArrayEJdmS3_EEC2EOS7_
FNDA:0,_ZN11MetaPhysicL23DynamicSparseNumberBaseINS_22DynamicStdArrayWrapperIdNS_8NWrapperILm53EEEEENS1_ImS3_EENS_28SemiDynamicSparseNumberArrayEJdmS3_EEC2EOS7_
FN:74,_ZN11MetaPhysicL23DynamicSparseNumberBaseINS_22DynamicStdArrayWrapperIdNS_8NWrapperILm53EEEEENS1_ImS3_EENS_28SemiDynamicSparseNumberArrayEJdmS3_EEaSEOS7_
FNDA:10633600,_ZN11MetaPhysicL23DynamicSparseNumberBaseINS_22DynamicStdArrayWrapperIdNS_8NWrapperILm53EEEEENS1_ImS3_EENS_28SemiDynamicSparseNumberArrayEJdmS3_EEaSEOS7_
FN:78,_ZN11MetaPhysicL23DynamicSparseNumberBaseINS_22DynamicStdArrayWrapperIdNS_8NWrapperILm53EEEEENS1_ImS3_EENS_28SemiDynamicSparseNumberArrayEJdmS3_EEC2ERKS7_
FNDA:0,_ZN11MetaPhysicL23DynamicSparseNumberBaseINS_22DynamicStdArrayWrapperIdNS_8NWrapperILm53EEEEENS1_ImS3_EENS_28SemiDynamicSparseNumberArrayEJdmS3_EEC2ERKS7_
FN:80,_ZN11MetaPhysicL23DynamicSparseNumberBaseINS_22DynamicStdArrayWrapperIdNS_8NWrapperILm53EEEEENS1_ImS3_EENS_28SemiDynamicSparseNumberArrayEJdmS3_EEaSERKS7_
FNDA:0,_ZN11MetaPhysicL23DynamicSparseNumberBaseINS_22DynamicStdArrayWrapperIdNS_8NWrapperILm53EEEEENS1_ImS3_EENS_28SemiDynamicSparseNumberArrayEJdmS3_EEaSERKS7_
FNF:4
FNH:1
DA:71,0
DA:74,10633600
DA:78,0
DA:80,0
LF:4
LH:1
end_of_record
SF:/home/runner/work/raccoon/raccoon/moose/framework/build/header_symlinks/Conversion.h
DA:92,0
LF:1
LH:0
end_of_record
SF:/home/runner/work/raccoon/raccoon/moose/framework/build/header_symlinks/RankTwoTensor.h
FN:543,_ZN11MetaPhysicL7RawTypeI18RankTwoTensorTemplIdEvE5valueERKS2_
FNDA:0,_ZN11MetaPhysicL7RawTypeI18RankTwoTensorTemplIdEvE5valueERKS2_
FN:543,_ZN11MetaPhysicL7RawTypeI18RankTwoTensorTemplINS_10DualNumberIdNS_28SemiDynamicSparseNumberArrayIdmNS_8NWrapperILm53EEEEELb1EEEEvE5valueERKS8_
FNDA:0,_ZN11MetaPhysicL7RawTypeI18RankTwoTensorTemplINS_10DualNumberIdNS_28SemiDynamicSparseNumberArrayIdmNS_8NWrapperILm53EEEEELb1EEEEvE5valueERKS8_
FN:598,_ZNK18RankTwoTensorTemplIN11MetaPhysicL10DualNumberIdNS0_28SemiDynamicSparseNumberArrayIdmNS0_8NWrapperILm53EEEEELb1EEEEdvIS6_Li0EEES_IN7libMesh12CompareTypesIS6_T_E9supertypeEERKSB_
FNDA:400000,_ZNK18RankTwoTensorTemplIN11MetaPhysicL10DualNumberIdNS0_28SemiDynamicSparseNumberArrayIdmNS0_8NWrapperILm53EEEEELb1EEEEdvIS6_Li0EEES_IN7libMesh12CompareTypesIS6_T_E9supertypeEERKSB_
FN:598,_ZNK18RankTwoTensorTemplIN11MetaPhysicL10DualNumberIdNS0_28SemiDynamicSparseNumberArrayIdmNS0_8NWrapperILm53EEEEELb1EEEEdvIiLi0EEES_IN7libMesh12CompareTypesIS6_T_E9supertypeEERKSB_
FNDA:400000,_ZNK18RankTwoTensorTemplIN11MetaPhysicL10DualNumberIdNS0_28SemiDynamicSparseNumberArrayIdmNS0_8NWrapperILm53EEEEELb1EEEEdvIiLi0EEES_IN7libMesh12CompareTypesIS6_T_E9supertypeEERKSB_
FNF:4
FNH:2
DA:75,841856
DA:543,0
DA:545,0
DA:546,0
DA:547,0
DA:548,0
DA:550,0
DA:543,0
DA:545,0
DA:546,0
DA:547,0
DA:548,0
DA:550,0
DA:598,400000
DA:600,400000
DA:598,400000
DA:600,400000
LF:17
LH:5
end_of_record
SF:/usr/share/miniconda/envs/moose/libmesh/include/metaphysicl/metaphysicl_exceptions.h
DA:45,0
LF:1
LH:0
end_of_record
SF:/usr/share/miniconda/envs/moose/x86_64-conda-linux-gnu/include/c++/10.3.0/bits/stl_construct.h
FN:149,_ZNSt12_Destroy_auxILb0EE9__destroyIPSt5tupleIJNSt7__cxx1112basic_stringIcSt11char_traitsIcESaIcEEEN5Moose23RelationshipManagerTypeESt8functionIFvRK15InputParametersRSC_EEEEEEvT_SK_
FNDA:0,_ZNSt12_Destroy_auxILb0EE9__destroyIPSt5tupleIJNSt7__cxx1112basic_stringIcSt11char_traitsIcESaIcEEEN5Moose23RelationshipManagerTypeESt8functionIFvRK15InputParametersRSC_EEEEEEvT_SK_
FN:149,_ZNSt12_Destroy_auxILb0EE9__destroyIPSt10unique_ptrIN5Moose15FunctorEnvelopeIN11MetaPhysicL10DualNumberIdNS5_28SemiDynamicSparseNumberArrayIdmNS5_8NWrapperILm53EEEEELb1EEEEESt14default_deleteISC_EEEEvT_SH_
FNDA:0,_ZNSt12_Destroy_auxILb0EE9__destroyIPSt10unique_ptrIN5Moose15FunctorEnvelopeIN11MetaPhysicL10DualNumberIdNS5_28SemiDynamicSparseNumberArrayIdmNS5_8NWrapperILm53EEEEELb1EEEEESt14default_deleteISC_EEEEvT_SH_
FN:149,_ZNSt12_Destroy_auxILb0EE9__destroyIPSt10unique_ptrIN5Moose15FunctorEnvelopeIdEESt14default_deleteIS5_EEEEvT_SA_
FNDA:0,_ZNSt12_Destroy_auxILb0EE9__destroyIPSt10unique_ptrIN5Moose15FunctorEnvelopeIdEESt14default_deleteIS5_EEEEvT_SA_
FNF:3
FNH:0
DA:109,21
DA:140,0
DA:149,0
DA:151,0
DA:153,0
DA:149,0
DA:151,0
DA:153,0
DA:149,0
DA:151,0
DA:153,0
DA:151,4435
DA:185,0
LF:13
LH:2
end_of_record
SF:/usr/share/miniconda/envs/moose/libmesh/include/libmesh/ostream_proxy.h
DA:116,0
DA:123,0
LF:2
LH:0
end_of_record
SF:/home/runner/work/raccoon/raccoon/build/header_symlinks/ComputeEigenstrainFromFunctionInitialStress.h
LF:0
LH:0
end_of_record
SF:/usr/share/miniconda/envs/moose/libmesh/include/metaphysicl/dualnumber_decl.h
DA:57,2316180
DA:174,818560
DA:177,0
LF:3
LH:2
end_of_record
SF:/home/runner/work/raccoon/raccoon/moose/framework/build/header_symlinks/BlockRestrictable.h
FN:86,_ZN17BlockRestrictableD0Ev
FNDA:0,_ZN17BlockRestrictableD0Ev
FN:86,_ZN17BlockRestrictableD2Ev
FNDA:0,_ZN17BlockRestrictableD2Ev
FNF:2
FNH:0
DA:86,0
DA:86,0
LF:2
LH:0
end_of_record
SF:/usr/share/miniconda/envs/moose/libmesh/include/libmesh/int_range.h
DA:63,0
DA:64,0
LF:2
LH:0
end_of_record
SF:/usr/share/miniconda/envs/moose/x86_64-conda-linux-gnu/include/c++/10.3.0/ext/atomicity.h
DA:50,1218
DA:68,0
DA:69,0
DA:83,1218
DA:84,1218
DA:86,0
LF:6
LH:3
end_of_record
SF:/usr/share/miniconda/envs/moose/x86_64-conda-linux-gnu/include/c++/10.3.0/bits/shared_ptr.h
FN:407,_ZNSt10shared_ptrI30ThinFilmInterfaceEnergyDensityEC2ISaIS0_EJRK15InputParametersEEESt20_Sp_alloc_shared_tagIT_EDpOT0_
FNDA:3,_ZNSt10shared_ptrI30ThinFilmInterfaceEnergyDensityEC2ISaIS0_EJRK15InputParametersEEESt20_Sp_alloc_shared_tagIT_EDpOT0_
FN:407,_ZNSt10shared_ptrI15PressureDensityEC2ISaIS0_EJRK15InputParametersEEESt20_Sp_alloc_shared_tagIT_EDpOT0_
FNDA:6,_ZNSt10shared_ptrI15PressureDensityEC2ISaIS0_EJRK15InputParametersEEESt20_Sp_alloc_shared_tagIT_EDpOT0_
FN:407,_ZNSt10shared_ptrI20NucleationMicroForceEC2ISaIS0_EJRK15InputParametersEEESt20_Sp_alloc_shared_tagIT_EDpOT0_
FNDA:3,_ZNSt10shared_ptrI20NucleationMicroForceEC2ISaIS0_EJRK15InputParametersEEESt20_Sp_alloc_shared_tagIT_EDpOT0_
FN:407,_ZNSt10shared_ptrI19CrackSurfaceDensityEC2ISaIS0_EJRK15InputParametersEEESt20_Sp_alloc_shared_tagIT_EDpOT0_
FNDA:0,_ZNSt10shared_ptrI19CrackSurfaceDensityEC2ISaIS0_EJRK15InputParametersEEESt20_Sp_alloc_shared_tagIT_EDpOT0_
FN:407,_ZNSt10shared_ptrI43ComputeEigenstrainFromFunctionInitialStressEC2ISaIS0_EJRK15InputParametersEEESt20_Sp_alloc_shared_tagIT_EDpOT0_
FNDA:3,_ZNSt10shared_ptrI43ComputeEigenstrainFromFunctionInitialStressEC2ISaIS0_EJRK15InputParametersEEESt20_Sp_alloc_shared_tagIT_EDpOT0_
FN:407,_ZNSt10shared_ptrI12ArrheniusLawEC2ISaIS0_EJRK15InputParametersEEESt20_Sp_alloc_shared_tagIT_EDpOT0_
FNDA:12,_ZNSt10shared_ptrI12ArrheniusLawEC2ISaIS0_EJRK15InputParametersEEESt20_Sp_alloc_shared_tagIT_EDpOT0_
FNF:6
FNH:5
DA:121,27
DA:407,3
DA:408,3
DA:409,3
DA:407,6
DA:408,6
DA:409,6
DA:407,3
DA:408,3
DA:409,3
DA:407,0
DA:408,0
DA:409,0
DA:407,3
DA:408,3
DA:409,3
DA:407,12
DA:408,12
DA:409,12
DA:860,27
DA:875,27
LF:21
LH:18
end_of_record
SF:/usr/share/miniconda/envs/moose/x86_64-conda-linux-gnu/include/c++/10.3.0/bits/std_function.h
FN:242,_ZNSt14_Function_baseD2Ev
FNDA:0,_ZNSt14_Function_baseD2Ev
FNF:1
FNH:0
DA:242,0
DA:243,0
DA:244,0
DA:245,0
DA:246,0
DA:303,0
LF:6
LH:0
end_of_record
SF:/usr/share/miniconda/envs/moose/libmesh/include/metaphysicl/semidynamicsparsenumberarray.h
DA:84,0
DA:85,0
LF:2
LH:0
end_of_record
SF:/usr/share/miniconda/envs/moose/x86_64-conda-linux-gnu/include/c++/10.3.0/bits/stl_iterator.h
DA:240,0
DA:241,0
DA:289,0
DA:311,0
DA:976,1
DA:981,0
DA:985,0
DA:1002,21
DA:1003,3
DA:1113,28
DA:1202,0
DA:1342,0
DA:1371,0
LF:13
LH:4
end_of_record
SF:/usr/share/miniconda/envs/moose/x86_64-conda-linux-gnu/include/c++/10.3.0/iostream
LF:0
LH:0
end_of_record
SF:/usr/share/miniconda/envs/moose/libmesh/include/libmesh/tensor_tools.h
DA:87,272800
LF:1
LH:1
end_of_record
SF:/usr/share/miniconda/envs/moose/x86_64-conda-linux-gnu/include/c++/10.3.0/bits/stl_set.h
FN:281,_ZNSt3setIsSt4lessIsESaIsEED2Ev
FNDA:0,_ZNSt3setIsSt4lessIsESaIsEED2Ev
FN:281,_ZNSt3setItSt4lessItESaItEED2Ev
FNDA:0,_ZNSt3setItSt4lessItESaItEED2Ev
FN:509,_ZNSt3setINSt7__cxx1112basic_stringIcSt11char_traitsIcESaIcEEESt4lessIS5_ESaIS5_EE6insertERKS5_
FNDA:1197,_ZNSt3setINSt7__cxx1112basic_stringIcSt11char_traitsIcESaIcEEESt4lessIS5_ESaIS5_EE6insertERKS5_
FN:518,_ZNSt3setIjSt4lessIjESaIjEE6insertEOj
FNDA:0,_ZNSt3setIjSt4lessIjESaIjEE6insertEOj
FNF:4
FNH:1
DA:281,0
DA:281,0
DA:281,0
DA:509,1197
DA:512,1197
DA:513,1197
DA:518,0
DA:521,0
DA:522,0
DA:749,0
LF:10
LH:3
end_of_record
SF:/usr/share/miniconda/envs/moose/x86_64-conda-linux-gnu/include/c++/10.3.0/bits/basic_string.h
FN:525,_ZNSt7__cxx1112basic_stringIcSt11char_traitsIcESaIcEEC2IS3_EEPKcRKS3_
FNDA:17861,_ZNSt7__cxx1112basic_stringIcSt11char_traitsIcESaIcEEC2IS3_EEPKcRKS3_
FN:1470,_ZNSt7__cxx1112basic_stringIcSt11char_traitsIcESaIcEE6assignIPcvEERS4_T_S8_
FNDA:0,_ZNSt7__cxx1112basic_stringIcSt11char_traitsIcESaIcEE6assignIPcvEERS4_T_S8_
FN:6032,_ZStplIcSt11char_traitsIcESaIcEENSt7__cxx1112basic_stringIT_T0_T1_EERKS8_SA_
FNDA:0,_ZStplIcSt11char_traitsIcESaIcEENSt7__cxx1112basic_stringIT_T0_T1_EERKS8_SA_
FN:6069,_ZStplIcSt11char_traitsIcESaIcEENSt7__cxx1112basic_stringIT_T0_T1_EERKS8_PKS5_
FNDA:3,_ZStplIcSt11char_traitsIcESaIcEENSt7__cxx1112basic_stringIT_T0_T1_EERKS8_PKS5_
FN:6097,_ZStplIcSt11char_traitsIcESaIcEENSt7__cxx1112basic_stringIT_T0_T1_EEOS8_RKS8_
FNDA:0,_ZStplIcSt11char_traitsIcESaIcEENSt7__cxx1112basic_stringIT_T0_T1_EEOS8_RKS8_
FN:6109,_ZStplIcSt11char_traitsIcESaIcEENSt7__cxx1112basic_stringIT_T0_T1_EEOS8_S9_
FNDA:0,_ZStplIcSt11char_traitsIcESaIcEENSt7__cxx1112basic_stringIT_T0_T1_EEOS8_S9_
FN:6143,_ZStplIcSt11char_traitsIcESaIcEENSt7__cxx1112basic_stringIT_T0_T1_EEOS8_PKS5_
FNDA:0,_ZStplIcSt11char_traitsIcESaIcEENSt7__cxx1112basic_stringIT_T0_T1_EEOS8_PKS5_
FN:6627,_ZNSt7__cxx119to_stringEm
FNDA:0,_ZNSt7__cxx119to_stringEm
FNF:8
FNH:2
DA:156,17861
DA:157,17861
DA:159,3
DA:160,3
DA:179,10982
DA:183,33392
DA:187,71837
DA:193,0
DA:203,0
DA:211,10982
DA:217,33389
DA:247,17861
DA:393,15528
DA:398,17861
DA:431,3
DA:525,17861
DA:527,17861
DA:542,0
DA:552,0
DA:555,0
DA:563,0
DA:572,0
DA:658,31698
DA:667,0
DA:814,0
DA:902,8920
DA:908,0
DA:966,0
DA:1041,0
DA:1149,0
DA:1193,0
DA:1366,10095
DA:1470,0
DA:1471,0
DA:1640,0
DA:6032,0
DA:6035,0
DA:6037,0
DA:6069,3
DA:6072,3
DA:6073,3
DA:6074,3
DA:6097,0
DA:6099,0
DA:6109,0
DA:6122,0
DA:6123,0
DA:6143,0
DA:6145,0
DA:6280,828
DA:6473,3
DA:6627,0
DA:6629,0
DA:6630,0
DA:6631,0
LF:55
LH:24
end_of_record
SF:/usr/share/miniconda/envs/moose/x86_64-conda-linux-gnu/include/c++/10.3.0/bits/hashtable_policy.h
FN:701,_ZNSt8__detail9_Map_baseImSt4pairIKmSt6vectorIS3_IS1_IbdESaIS4_EESaIS6_EEESaIS9_ENS_10_Select1stESt8equal_toImESt4hashImENS_18_Mod_range_hashingENS_20_Default_ranged_hashENS_20_Prime_rehash_policyENS_17_Hashtable_traitsILb0ELb0ELb1EEELb1EEixERS2_
FNDA:0,_ZNSt8__detail9_Map_baseImSt4pairIKmSt6vectorIS3_IS1_IbdESaIS4_EESaIS6_EEESaIS9_ENS_10_Select1stESt8equal_toImESt4hashImENS_18_Mod_range_hashingENS_20_Default_ranged_hashENS_20_Prime_rehash_policyENS_17_Hashtable_traitsILb0ELb0ELb1EEELb1EEixERS2_
FN:701,_ZNSt8__detail9_Map_baseImSt4pairIKmSt6vectorIS1_IbdESaIS4_EEESaIS7_ENS_10_Select1stESt8equal_toImESt4hashImENS_18_Mod_range_hashingENS_20_Default_ranged_hashENS_20_Prime_rehash_policyENS_17_Hashtable_traitsILb0ELb0ELb1EEELb1EEixERS2_
FNDA:0,_ZNSt8__detail9_Map_baseImSt4pairIKmSt6vectorIS1_IbdESaIS4_EEESaIS7_ENS_10_Select1stESt8equal_toImESt4hashImENS_18_Mod_range_hashingENS_20_Default_ranged_hashENS_20_Prime_rehash_policyENS_17_Hashtable_traitsILb0ELb0ELb1EEELb1EEixERS2_
FN:701,_ZNSt8__detail9_Map_baseImSt4pairIKmSt6vectorIS3_IS1_IbN11MetaPhysicL10DualNumberIdNS4_28SemiDynamicSparseNumberArrayIdmNS4_8NWrapperILm53EEEEELb1EEEESaISB_EESaISD_EEESaISG_ENS_10_Select1stESt8equal_toImESt4hashImENS_18_Mod_range_hashingENS_20_Default_ranged_hashENS_20_Prime_rehash_policyENS_17_Hashtable_traitsILb0ELb0ELb1EEELb1EEixERS2_
FNDA:0,_ZNSt8__detail9_Map_baseImSt4pairIKmSt6vectorIS3_IS1_IbN11MetaPhysicL10DualNumberIdNS4_28SemiDynamicSparseNumberArrayIdmNS4_8NWrapperILm53EEEEELb1EEEESaISB_EESaISD_EEESaISG_ENS_10_Select1stESt8equal_toImESt4hashImENS_18_Mod_range_hashingENS_20_Default_ranged_hashENS_20_Prime_rehash_policyENS_17_Hashtable_traitsILb0ELb0ELb1EEELb1EEixERS2_
FN:701,_ZNSt8__detail9_Map_baseImSt4pairIKmSt6vectorIS1_IbN11MetaPhysicL10DualNumberIdNS4_28SemiDynamicSparseNumberArrayIdmNS4_8NWrapperILm53EEEEELb1EEEESaISB_EEESaISE_ENS_10_Select1stESt8equal_toImESt4hashImENS_18_Mod_range_hashingENS_20_Default_ranged_hashENS_20_Prime_rehash_policyENS_17_Hashtable_traitsILb0ELb0ELb1EEELb1EEixERS2_
FNDA:0,_ZNSt8__detail9_Map_baseImSt4pairIKmSt6vectorIS1_IbN11MetaPhysicL10DualNumberIdNS4_28SemiDynamicSparseNumberArrayIdmNS4_8NWrapperILm53EEEEELb1EEEESaISB_EEESaISE_ENS_10_Select1stESt8equal_toImESt4hashImENS_18_Mod_range_hashingENS_20_Default_ranged_hashENS_20_Prime_rehash_policyENS_17_Hashtable_traitsILb0ELb0ELb1EEELb1EEixERS2_
FN:2029,_ZNSt8__detail16_Hashtable_allocISaINS_10_Hash_nodeISt4pairIKmSt6vectorIS4_IS2_IbdESaIS5_EESaIS7_EEELb0EEEEE16_M_allocate_nodeIJRKSt21piecewise_construct_tSt5tupleIJRS3_EESI_IJEEEEEPSB_DpOT_
FNDA:0,_ZNSt8__detail16_Hashtable_allocISaINS_10_Hash_nodeISt4pairIKmSt6vectorIS4_IS2_IbdESaIS5_EESaIS7_EEELb0EEEEE16_M_allocate_nodeIJRKSt21piecewise_construct_tSt5tupleIJRS3_EESI_IJEEEEEPSB_DpOT_
FN:2029,_ZNSt8__detail16_Hashtable_allocISaINS_10_Hash_nodeISt4pairIKmSt6vectorIS2_IbdESaIS5_EEELb0EEEEE16_M_allocate_nodeIJRKSt21piecewise_construct_tSt5tupleIJRS3_EESG_IJEEEEEPS9_DpOT_
FNDA:0,_ZNSt8__detail16_Hashtable_allocISaINS_10_Hash_nodeISt4pairIKmSt6vectorIS2_IbdESaIS5_EEELb0EEEEE16_M_allocate_nodeIJRKSt21piecewise_construct_tSt5tupleIJRS3_EESG_IJEEEEEPS9_DpOT_
FN:2029,_ZNSt8__detail16_Hashtable_allocISaINS_10_Hash_nodeISt4pairIKmSt6vectorIS4_IS2_IbN11MetaPhysicL10DualNumberIdNS5_28SemiDynamicSparseNumberArrayIdmNS5_8NWrapperILm53EEEEELb1EEEESaISC_EESaISE_EEELb0EEEEE16_M_allocate_nodeIJRKSt21piecewise_construct_tSt5tupleIJRS3_EESP_IJEEEEEPSI_DpOT_
FNDA:0,_ZNSt8__detail16_Hashtable_allocISaINS_10_Hash_nodeISt4pairIKmSt6vectorIS4_IS2_IbN11MetaPhysicL10DualNumberIdNS5_28SemiDynamicSparseNumberArrayIdmNS5_8NWrapperILm53EEEEELb1EEEESaISC_EESaISE_EEELb0EEEEE16_M_allocate_nodeIJRKSt21piecewise_construct_tSt5tupleIJRS3_EESP_IJEEEEEPSI_DpOT_
FN:2029,_ZNSt8__detail16_Hashtable_allocISaINS_10_Hash_nodeISt4pairIKmSt6vectorIS2_IbN11MetaPhysicL10DualNumberIdNS5_28SemiDynamicSparseNumberArrayIdmNS5_8NWrapperILm53EEEEELb1EEEESaISC_EEELb0EEEEE16_M_allocate_nodeIJRKSt21piecewise_construct_tSt5tupleIJRS3_EESN_IJEEEEEPSG_DpOT_
FNDA:0,_ZNSt8__detail16_Hashtable_allocISaINS_10_Hash_nodeISt4pairIKmSt6vectorIS2_IbN11MetaPhysicL10DualNumberIdNS5_28SemiDynamicSparseNumberArrayIdmNS5_8NWrapperILm53EEEEELb1EEEESaISC_EEELb0EEEEE16_M_allocate_nodeIJRKSt21piecewise_construct_tSt5tupleIJRS3_EESN_IJEEEEEPSG_DpOT_
FN:2051,_ZNSt8__detail16_Hashtable_allocISaINS_10_Hash_nodeISt4pairIKNSt7__cxx1112basic_stringIcSt11char_traitsIcESaIcEEESt10unique_ptrI10MooseArrayIN7libMesh11VectorValueIN11MetaPhysicL10DualNumberIdNSE_28SemiDynamicSparseNumberArrayIdmNSE_8NWrapperILm53EEEEELb1EEEEEESt14default_deleteISM_EEELb1EEEEE18_M_deallocate_nodeEPSR_
FNDA:0,_ZNSt8__detail16_Hashtable_allocISaINS_10_Hash_nodeISt4pairIKNSt7__cxx1112basic_stringIcSt11char_traitsIcESaIcEEESt10unique_ptrI10MooseArrayIN7libMesh11VectorValueIN11MetaPhysicL10DualNumberIdNSE_28SemiDynamicSparseNumberArrayIdmNSE_8NWrapperILm53EEEEELb1EEEEEESt14default_deleteISM_EEELb1EEEEE18_M_deallocate_nodeEPSR_
FN:2051,_ZNSt8__detail16_Hashtable_allocISaINS_10_Hash_nodeISt4pairIKNSt7__cxx1112basic_stringIcSt11char_traitsIcESaIcEEESt6vectorIjSaIjEEELb1EEEEE18_M_deallocate_nodeEPSE_
FNDA:0,_ZNSt8__detail16_Hashtable_allocISaINS_10_Hash_nodeISt4pairIKNSt7__cxx1112basic_stringIcSt11char_traitsIcESaIcEEESt6vectorIjSaIjEEELb1EEEEE18_M_deallocate_nodeEPSE_
FN:2051,_ZNSt8__detail16_Hashtable_allocISaINS_10_Hash_nodeISt4pairIKNSt7__cxx1112basic_stringIcSt11char_traitsIcESaIcEEESt10unique_ptrI10MooseArrayIN5Eigen6MatrixIdLin1ELi1ELi0ELin1ELi1EEEESt14default_deleteISF_EEELb1EEEEE18_M_deallocate_nodeEPSK_
FNDA:0,_ZNSt8__detail16_Hashtable_allocISaINS_10_Hash_nodeISt4pairIKNSt7__cxx1112basic_stringIcSt11char_traitsIcESaIcEEESt10unique_ptrI10MooseArrayIN5Eigen6MatrixIdLin1ELi1ELi0ELin1ELi1EEEESt14default_deleteISF_EEELb1EEEEE18_M_deallocate_nodeEPSK_
FN:2051,_ZNSt8__detail16_Hashtable_allocISaINS_10_Hash_nodeISt4pairIKNSt7__cxx1112basic_stringIcSt11char_traitsIcESaIcEEESt10unique_ptrI10MooseArrayIN7libMesh11VectorValueIdEEESt14default_deleteISF_EEELb1EEEEE18_M_deallocate_nodeEPSK_
FNDA:0,_ZNSt8__detail16_Hashtable_allocISaINS_10_Hash_nodeISt4pairIKNSt7__cxx1112basic_stringIcSt11char_traitsIcESaIcEEESt10unique_ptrI10MooseArrayIN7libMesh11VectorValueIdEEESt14default_deleteISF_EEELb1EEEEE18_M_deallocate_nodeEPSK_
FN:2051,_ZNSt8__detail16_Hashtable_allocISaINS_10_Hash_nodeISt4pairIKNSt7__cxx1112basic_stringIcSt11char_traitsIcESaIcEEESt6vectorISt10unique_ptrI10MooseArrayIdESt14default_deleteISD_EESaISG_EEELb1EEEEE18_M_deallocate_nodeEPSK_
FNDA:0,_ZNSt8__detail16_Hashtable_allocISaINS_10_Hash_nodeISt4pairIKNSt7__cxx1112basic_stringIcSt11char_traitsIcESaIcEEESt6vectorISt10unique_ptrI10MooseArrayIdESt14default_deleteISD_EESaISG_EEELb1EEEEE18_M_deallocate_nodeEPSK_
FN:2051,_ZNSt8__detail16_Hashtable_allocISaINS_10_Hash_nodeISt4pairIKNSt7__cxx1112basic_stringIcSt11char_traitsIcESaIcEEESt6vectorIP22MooseVariableFieldBaseSaISC_EEELb1EEEEE18_M_deallocate_nodeEPSG_
FNDA:0,_ZNSt8__detail16_Hashtable_allocISaINS_10_Hash_nodeISt4pairIKNSt7__cxx1112basic_stringIcSt11char_traitsIcESaIcEEESt6vectorIP22MooseVariableFieldBaseSaISC_EEELb1EEEEE18_M_deallocate_nodeEPSG_
FN:2051,_ZNSt8__detail16_Hashtable_allocISaINS_10_Hash_nodeISt4pairIKNSt7__cxx1112basic_stringIcSt11char_traitsIcESaIcEEES8_ELb1EEEEE18_M_deallocate_nodeEPSB_
FNDA:0,_ZNSt8__detail16_Hashtable_allocISaINS_10_Hash_nodeISt4pairIKNSt7__cxx1112basic_stringIcSt11char_traitsIcESaIcEEES8_ELb1EEEEE18_M_deallocate_nodeEPSB_
FN:2051,_ZNSt8__detail16_Hashtable_allocISaINS_10_Hash_nodeISt4pairIKNSt7__cxx1112basic_stringIcSt11char_traitsIcESaIcEEESt10unique_ptrI10MooseArrayIN11MetaPhysicL10DualNumberIdNSC_28SemiDynamicSparseNumberArrayIdmNSC_8NWrapperILm53EEEEELb1EEEESt14default_deleteISJ_EEELb1EEEEE18_M_deallocate_nodeEPSO_
FNDA:0,_ZNSt8__detail16_Hashtable_allocISaINS_10_Hash_nodeISt4pairIKNSt7__cxx1112basic_stringIcSt11char_traitsIcESaIcEEESt10unique_ptrI10MooseArrayIN11MetaPhysicL10DualNumberIdNSC_28SemiDynamicSparseNumberArrayIdmNSC_8NWrapperILm53EEEEELb1EEEESt14default_deleteISJ_EEELb1EEEEE18_M_deallocate_nodeEPSO_
FN:2051,_ZNSt8__detail16_Hashtable_allocISaINS_10_Hash_nodeISt4pairIKNSt7__cxx1112basic_stringIcSt11char_traitsIcESaIcEEESt10unique_ptrI10MooseArrayIdESt14default_deleteISC_EEELb1EEEEE18_M_deallocate_nodeEPSH_
FNDA:0,_ZNSt8__detail16_Hashtable_allocISaINS_10_Hash_nodeISt4pairIKNSt7__cxx1112basic_stringIcSt11char_traitsIcESaIcEEESt10unique_ptrI10MooseArrayIdESt14default_deleteISC_EEELb1EEEEE18_M_deallocate_nodeEPSH_
FN:2051,_ZNSt8__detail16_Hashtable_allocISaINS_10_Hash_nodeISt4pairIKNSt7__cxx1112basic_stringIcSt11char_traitsIcESaIcEEESt6vectorIP19MooseVariableScalarSaISC_EEELb1EEEEE18_M_deallocate_nodeEPSG_
FNDA:0,_ZNSt8__detail16_Hashtable_allocISaINS_10_Hash_nodeISt4pairIKNSt7__cxx1112basic_stringIcSt11char_traitsIcESaIcEEESt6vectorIP19MooseVariableScalarSaISC_EEELb1EEEEE18_M_deallocate_nodeEPSG_
FN:2069,_ZNSt8__detail16_Hashtable_allocISaINS_10_Hash_nodeISt4pairIKmSt6vectorIS4_IS2_IbN11MetaPhysicL10DualNumberIdNS5_28SemiDynamicSparseNumberArrayIdmNS5_8NWrapperILm53EEEEELb1EEEESaISC_EESaISE_EEELb0EEEEE19_M_deallocate_nodesEPSI_
FNDA:0,_ZNSt8__detail16_Hashtable_allocISaINS_10_Hash_nodeISt4pairIKmSt6vectorIS4_IS2_IbN11MetaPhysicL10DualNumberIdNS5_28SemiDynamicSparseNumberArrayIdmNS5_8NWrapperILm53EEEEELb1EEEESaISC_EESaISE_EEELb0EEEEE19_M_deallocate_nodesEPSI_
FN:2069,_ZNSt8__detail16_Hashtable_allocISaINS_10_Hash_nodeISt4pairIKmSt6vectorIS2_IbdESaIS5_EEELb0EEEEE19_M_deallocate_nodesEPS9_
FNDA:0,_ZNSt8__detail16_Hashtable_allocISaINS_10_Hash_nodeISt4pairIKmSt6vectorIS2_IbdESaIS5_EEELb0EEEEE19_M_deallocate_nodesEPS9_
FN:2069,_ZNSt8__detail16_Hashtable_allocISaINS_10_Hash_nodeISt4pairIKmSt6vectorIS4_IS2_IbdESaIS5_EESaIS7_EEELb0EEEEE19_M_deallocate_nodesEPSB_
FNDA:0,_ZNSt8__detail16_Hashtable_allocISaINS_10_Hash_nodeISt4pairIKmSt6vectorIS4_IS2_IbdESaIS5_EESaIS7_EEELb0EEEEE19_M_deallocate_nodesEPSB_
FN:2069,_ZNSt8__detail16_Hashtable_allocISaINS_10_Hash_nodeISt4pairIKmSt6vectorIS2_IbN11MetaPhysicL10DualNumberIdNS5_28SemiDynamicSparseNumberArrayIdmNS5_8NWrapperILm53EEEEELb1EEEESaISC_EEELb0EEEEE19_M_deallocate_nodesEPSG_
FNDA:0,_ZNSt8__detail16_Hashtable_allocISaINS_10_Hash_nodeISt4pairIKmSt6vectorIS2_IbN11MetaPhysicL10DualNumberIdNS5_28SemiDynamicSparseNumberArrayIdmNS5_8NWrapperILm53EEEEELb1EEEESaISC_EEELb0EEEEE19_M_deallocate_nodesEPSG_
FN:2081,_ZNSt8__detail16_Hashtable_allocISaINS_10_Hash_nodeISt4pairIKmSt6vectorIS4_IS2_IbdESaIS5_EESaIS7_EEELb0EEEEE19_M_allocate_bucketsEm
FNDA:0,_ZNSt8__detail16_Hashtable_allocISaINS_10_Hash_nodeISt4pairIKmSt6vectorIS4_IS2_IbdESaIS5_EESaIS7_EEELb0EEEEE19_M_allocate_bucketsEm
FN:2081,_ZNSt8__detail16_Hashtable_allocISaINS_10_Hash_nodeISt4pairIKmSt6vectorIS2_IbN11MetaPhysicL10DualNumberIdNS5_28SemiDynamicSparseNumberArrayIdmNS5_8NWrapperILm53EEEEELb1EEEESaISC_EEELb0EEEEE19_M_allocate_bucketsEm
FNDA:0,_ZNSt8__detail16_Hashtable_allocISaINS_10_Hash_nodeISt4pairIKmSt6vectorIS2_IbN11MetaPhysicL10DualNumberIdNS5_28SemiDynamicSparseNumberArrayIdmNS5_8NWrapperILm53EEEEELb1EEEESaISC_EEELb0EEEEE19_M_allocate_bucketsEm
FN:2081,_ZNSt8__detail16_Hashtable_allocISaINS_10_Hash_nodeISt4pairIKmSt6vectorIS4_IS2_IbN11MetaPhysicL10DualNumberIdNS5_28SemiDynamicSparseNumberArrayIdmNS5_8NWrapperILm53EEEEELb1EEEESaISC_EESaISE_EEELb0EEEEE19_M_allocate_bucketsEm
FNDA:0,_ZNSt8__detail16_Hashtable_allocISaINS_10_Hash_nodeISt4pairIKmSt6vectorIS4_IS2_IbN11MetaPhysicL10DualNumberIdNS5_28SemiDynamicSparseNumberArrayIdmNS5_8NWrapperILm53EEEEELb1EEEESaISC_EESaISE_EEELb0EEEEE19_M_allocate_bucketsEm
FN:2081,_ZNSt8__detail16_Hashtable_allocISaINS_10_Hash_nodeISt4pairIKmSt6vectorIS2_IbdESaIS5_EEELb0EEEEE19_M_allocate_bucketsEm
FNDA:0,_ZNSt8__detail16_Hashtable_allocISaINS_10_Hash_nodeISt4pairIKmSt6vectorIS2_IbdESaIS5_EEELb0EEEEE19_M_allocate_bucketsEm
FNF:26
FNH:0
DA:218,0
DA:270,0
DA:283,0
DA:349,0
DA:355,0
DA:433,0
DA:477,0
DA:485,0
DA:701,0
DA:709,0
DA:710,0
DA:712,0
DA:715,0
DA:716,0
DA:719,0
DA:720,0
DA:721,0
DA:701,0
DA:709,0
DA:710,0
DA:712,0
DA:715,0
DA:716,0
DA:719,0
DA:720,0
DA:721,0
DA:701,0
DA:709,0
DA:710,0
DA:712,0
DA:715,0
DA:716,0
DA:719,0
DA:720,0
DA:721,0
DA:701,0
DA:709,0
DA:710,0
DA:712,0
DA:715,0
DA:716,0
DA:719,0
DA:720,0
DA:721,0
DA:1294,0
DA:1307,0
DA:1804,0
DA:2029,0
DA:2040,0
DA:2029,0
DA:2040,0
DA:2029,0
DA:2040,0
DA:2029,0
DA:2040,0
DA:2051,0
DA:2055,0
DA:2051,0
DA:2055,0
DA:2051,0
DA:2055,0
DA:2051,0
DA:2055,0
DA:2051,0
DA:2055,0
DA:2051,0
DA:2055,0
DA:2051,0
DA:2055,0
DA:2051,0
DA:2055,0
DA:2051,0
DA:2055,0
DA:2051,0
DA:2055,0
DA:2055,0
DA:2063,0
DA:2069,0
DA:2071,0
DA:2077,0
DA:2069,0
DA:2071,0
DA:2077,0
DA:2069,0
DA:2071,0
DA:2077,0
DA:2069,0
DA:2071,0
DA:2077,0
DA:2071,0
DA:2075,0
DA:2081,0
DA:2085,0
DA:2087,0
DA:2088,0
DA:2081,0
DA:2085,0
DA:2087,0
DA:2088,0
DA:2081,0
DA:2085,0
DA:2087,0
DA:2088,0
DA:2081,0
DA:2085,0
DA:2087,0
DA:2088,0
DA:2100,0
LF:108
LH:0
end_of_record
SF:/usr/share/miniconda/envs/moose/x86_64-conda-linux-gnu/include/c++/10.3.0/bits/char_traits.h
DA:329,3
DA:346,0
DA:361,0
DA:371,17861
LF:4
LH:2
end_of_record
SF:/usr/share/miniconda/envs/moose/libmesh/include/Eigen/src/Core/PlainObjectBase.h
DA:143,0
LF:1
LH:0
end_of_record
SF:/home/runner/work/raccoon/raccoon/build/header_symlinks/NucleationMicroForce.h
LF:0
LH:0
end_of_record
SF:/home/runner/work/raccoon/raccoon/src/materials/CrackSurfaceDensity.C
FN:10,_ZN19CrackSurfaceDensity11validParamsEv
FNDA:157,_ZN19CrackSurfaceDensity11validParamsEv
FN:32,_ZN19CrackSurfaceDensityC2ERK15InputParameters
FNDA:0,_ZN19CrackSurfaceDensityC2ERK15InputParameters
FN:44,_ZN19CrackSurfaceDensity19computeQpPropertiesEv
FNDA:0,_ZN19CrackSurfaceDensity19computeQpPropertiesEv
FNF:3
FNH:1
DA:10,157
DA:12,157
DA:13,157
DA:14,157
DA:19,314
DA:20,314
DA:22,314
DA:24,314
DA:26,314
DA:29,157
DA:32,0
DA:35,0
DA:36,0
DA:37,0
DA:38,0
DA:39,0
DA:41,0
DA:44,0
DA:46,0
DA:47,0
DA:48,0
LF:21
LH:10
end_of_record
SF:/usr/share/miniconda/envs/moose/libmesh/include/metaphysicl/dynamicsparsenumberbase.h
FN:46,_ZN11MetaPhysicL23DynamicSparseNumberBaseINS_22DynamicStdArrayWrapperIdNS_8NWrapperILm53EEEEENS1_ImS3_EENS_28SemiDynamicSparseNumberArrayEJdmS3_EE6resizeEm
FNDA:0,_ZN11MetaPhysicL23DynamicSparseNumberBaseINS_22DynamicStdArrayWrapperIdNS_8NWrapperILm53EEEEENS1_ImS3_EENS_28SemiDynamicSparseNumberArrayEJdmS3_EE6resizeEm
FN:262,_ZNK11MetaPhysicL23DynamicSparseNumberBaseINS_22DynamicStdArrayWrapperIdNS_8NWrapperILm53EEEEENS1_ImS3_EENS_28SemiDynamicSparseNumberArrayEJdmS3_EEngEv
FNDA:0,_ZNK11MetaPhysicL23DynamicSparseNumberBaseINS_22DynamicStdArrayWrapperIdNS_8NWrapperILm53EEEEENS1_ImS3_EENS_28SemiDynamicSparseNumberArrayEJdmS3_EEngEv
FN:280,_ZN11MetaPhysicL23DynamicSparseNumberBaseINS_22DynamicStdArrayWrapperIdNS_8NWrapperILm53EEEEENS1_ImS3_EENS_28SemiDynamicSparseNumberArrayEJdmS3_EE14sparsity_unionIS5_EEvRKT_
FNDA:0,_ZN11MetaPhysicL23DynamicSparseNumberBaseINS_22DynamicStdArrayWrapperIdNS_8NWrapperILm53EEEEENS1_ImS3_EENS_28SemiDynamicSparseNumberArrayEJdmS3_EE14sparsity_unionIS5_EEvRKT_
FN:551,_ZN11MetaPhysicL23DynamicSparseNumberBaseINS_22DynamicStdArrayWrapperIdNS_8NWrapperILm53EEEEENS1_ImS3_EENS_28SemiDynamicSparseNumberArrayEJdmS3_EEpLIJdmS3_EEERNS6_IdmS3_EERKNS6_IDpT_EE
FNDA:71073500,_ZN11MetaPhysicL23DynamicSparseNumberBaseINS_22DynamicStdArrayWrapperIdNS_8NWrapperILm53EEEEENS1_ImS3_EENS_28SemiDynamicSparseNumberArrayEJdmS3_EEpLIJdmS3_EEERNS6_IdmS3_EERKNS6_IDpT_EE
FN:586,_ZN11MetaPhysicL23DynamicSparseNumberBaseINS_22DynamicStdArrayWrapperIdNS_8NWrapperILm53EEEEENS1_ImS3_EENS_28SemiDynamicSparseNumberArrayEJdmS3_EEmIIJdmS3_EEERNS6_IdmS3_EERKNS6_IDpT_EE
FNDA:3818470,_ZN11MetaPhysicL23DynamicSparseNumberBaseINS_22DynamicStdArrayWrapperIdNS_8NWrapperILm53EEEEENS1_ImS3_EENS_28SemiDynamicSparseNumberArrayEJdmS3_EEmIIJdmS3_EEERNS6_IdmS3_EERKNS6_IDpT_EE
FN:948,_ZN11MetaPhysicLmlINS_28SemiDynamicSparseNumberArrayENS_22DynamicStdArrayWrapperIdNS_8NWrapperILm53EEEEENS2_ImS4_EEJdmS4_EdEENS_14MultipliesTypeIT_IJDpT2_EET3_Lb1EvE9supertypeERKSC_RKNS_23DynamicSparseNumberBaseIT0_T1_T_JSA_EEE
FNDA:0,_ZN11MetaPhysicLmlINS_28SemiDynamicSparseNumberArrayENS_22DynamicStdArrayWrapperIdNS_8NWrapperILm53EEEEENS2_ImS4_EEJdmS4_EdEENS_14MultipliesTypeIT_IJDpT2_EET3_Lb1EvE9supertypeERKSC_RKNS_23DynamicSparseNumberBaseIT0_T1_T_JSA_EEE
FN:970,_ZN11MetaPhysicLmlINS_28SemiDynamicSparseNumberArrayENS_22DynamicStdArrayWrapperIdNS_8NWrapperILm53EEEEENS2_ImS4_EEJdmS4_EdEENS_14MultipliesTypeIT_IJDpT2_EET3_Lb0EvE9supertypeERKNS_23DynamicSparseNumberBaseIT0_T1_T_JSA_EEERKSC_
FNDA:0,_ZN11MetaPhysicLmlINS_28SemiDynamicSparseNumberArrayENS_22DynamicStdArrayWrapperIdNS_8NWrapperILm53EEEEENS2_ImS4_EEJdmS4_EdEENS_14MultipliesTypeIT_IJDpT2_EET3_Lb0EvE9supertypeERKNS_23DynamicSparseNumberBaseIT0_T1_T_JSA_EEERKSC_
FN:991,_ZN11MetaPhysicLdvINS_28SemiDynamicSparseNumberArrayENS_22DynamicStdArrayWrapperIdNS_8NWrapperILm53EEEEENS2_ImS4_EEJdmS4_EdEENS_11DividesTypeIT_IJDpT2_EET3_Lb0EvE9supertypeERKNS_23DynamicSparseNumberBaseIT0_T1_T_JSA_EEERKSC_
FNDA:0,_ZN11MetaPhysicLdvINS_28SemiDynamicSparseNumberArrayENS_22DynamicStdArrayWrapperIdNS_8NWrapperILm53EEEEENS2_ImS4_EEJdmS4_EdEENS_11DividesTypeIT_IJDpT2_EET3_Lb0EvE9supertypeERKNS_23DynamicSparseNumberBaseIT0_T1_T_JSA_EEERKSC_
FNF:8
FNH:2
DA:46,0
DA:48,0
DA:49,0
DA:53,17722600
DA:95,0
DA:125,74892000
DA:262,0
DA:265,0
DA:266,0
DA:268,0
DA:269,0
DA:271,0
DA:280,0
DA:302,0
DA:303,0
DA:304,0
DA:306,0
DA:307,0
DA:308,0
DA:311,0
DA:312,0
DA:313,0
DA:314,0
DA:315,0
DA:316,0
DA:319,0
DA:320,0
DA:321,0
DA:322,0
DA:324,0
DA:329,0
DA:334,0
DA:355,0
DA:356,0
DA:357,0
DA:358,0
DA:359,0
DA:360,0
DA:363,0
DA:364,0
DA:368,0
DA:369,0
DA:551,71073500
DA:554,71073500
DA:562,542560000
DA:564,471486000
DA:565,471486000
DA:567,914321000
DA:568,442835000
DA:569,442835000
DA:571,442835000
DA:575,471486000
DA:578,71073500
DA:586,3818470
DA:589,3818470
DA:597,23038800
DA:599,19220400
DA:600,19220400
DA:602,36432300
DA:603,17211900
DA:604,17211900
DA:606,17211900
DA:610,19220400
DA:613,3818470
DA:691,1275220
DA:692,368384
DA:703,5475940
DA:704,2625150
DA:948,0
DA:950,0
DA:954,0
DA:956,0
DA:957,0
DA:958,0
DA:961,0
DA:970,0
DA:972,0
DA:976,0
DA:978,0
DA:979,0
DA:980,0
DA:982,0
DA:991,0
DA:993,0
DA:996,0
DA:998,0
DA:999,0
DA:1000,0
DA:1003,0
LF:89
LH:28
end_of_record
SF:/usr/share/miniconda/envs/moose/libmesh/include/libmesh/type_vector.h
FN:464,_ZN7libMesh10TypeVectorIN11MetaPhysicL10DualNumberIdNS1_28SemiDynamicSparseNumberArrayIdmNS1_8NWrapperILm53EEEEELb1EEEEC2Ev
FNDA:0,_ZN7libMesh10TypeVectorIN11MetaPhysicL10DualNumberIdNS1_28SemiDynamicSparseNumberArrayIdmNS1_8NWrapperILm53EEEEELb1EEEEC2Ev
FN:481,_ZN7libMesh10TypeVectorIN11MetaPhysicL10DualNumberIdNS1_28SemiDynamicSparseNumberArrayIdmNS1_8NWrapperILm53EEEEELb1EEEEC2ERKS7_SA_SA_
FNDA:400000,_ZN7libMesh10TypeVectorIN11MetaPhysicL10DualNumberIdNS1_28SemiDynamicSparseNumberArrayIdmNS1_8NWrapperILm53EEEEELb1EEEEC2ERKS7_SA_SA_
FN:557,_ZN7libMesh10TypeVectorIN11MetaPhysicL10DualNumberIdNS1_28SemiDynamicSparseNumberArrayIdmNS1_8NWrapperILm53EEEEELb1EEEEC2IdEERKNS0_IT_EE
FNDA:0,_ZN7libMesh10TypeVectorIN11MetaPhysicL10DualNumberIdNS1_28SemiDynamicSparseNumberArrayIdmNS1_8NWrapperILm53EEEEELb1EEEEC2IdEERKNS0_IT_EE
FN:776,_ZNK7libMesh10TypeVectorIN11MetaPhysicL10DualNumberIdNS1_28SemiDynamicSparseNumberArrayIdmNS1_8NWrapperILm53EEEEELb1EEEEmlIS7_EENS_9boostcopy11enable_if_cIXsrNS_12ScalarTraitsIT_EE5valueENS0_INS_12CompareTypesIS7_SD_E9supertypeEEEE4typeERKSD_
FNDA:0,_ZNK7libMesh10TypeVectorIN11MetaPhysicL10DualNumberIdNS1_28SemiDynamicSparseNumberArrayIdmNS1_8NWrapperILm53EEEEELb1EEEEmlIS7_EENS_9boostcopy11enable_if_cIXsrNS_12ScalarTraitsIT_EE5valueENS0_INS_12CompareTypesIS7_SD_E9supertypeEEEE4typeERKSD_
FN:887,_ZNK7libMesh10TypeVectorIN11MetaPhysicL10DualNumberIdNS1_28SemiDynamicSparseNumberArrayIdmNS1_8NWrapperILm53EEEEELb1EEEEmlIS7_EENS_12CompareTypesIS7_T_E9supertypeERKNS0_ISB_EE
FNDA:400000,_ZNK7libMesh10TypeVectorIN11MetaPhysicL10DualNumberIdNS1_28SemiDynamicSparseNumberArrayIdmNS1_8NWrapperILm53EEEEELb1EEEEmlIS7_EENS_12CompareTypesIS7_T_E9supertypeERKNS0_ISB_EE
FN:942,_ZNK7libMesh10TypeVectorIN11MetaPhysicL10DualNumberIdNS1_28SemiDynamicSparseNumberArrayIdmNS1_8NWrapperILm53EEEEELb1EEEE4normEv
FNDA:272800,_ZNK7libMesh10TypeVectorIN11MetaPhysicL10DualNumberIdNS1_28SemiDynamicSparseNumberArrayIdmNS1_8NWrapperILm53EEEEELb1EEEE4normEv
FN:961,_ZNK7libMesh10TypeVectorIN11MetaPhysicL10DualNumberIdNS1_28SemiDynamicSparseNumberArrayIdmNS1_8NWrapperILm53EEEEELb1EEEE7norm_sqEv
FNDA:272800,_ZNK7libMesh10TypeVectorIN11MetaPhysicL10DualNumberIdNS1_28SemiDynamicSparseNumberArrayIdmNS1_8NWrapperILm53EEEEELb1EEEE7norm_sqEv
FNF:7
FNH:4
DA:178,400000
DA:464,0
DA:466,0
DA:469,0
DA:473,0
DA:475,0
DA:481,400000
DA:483,1600000
DA:485,400000
DA:488,400000
DA:495,400000
DA:500,400000
DA:557,0
DA:560,0
DA:561,0
DA:562,0
DA:583,0
DA:776,0
DA:790,0
DA:791,0
DA:792,0
DA:806,400000
DA:887,400000
DA:899,400000
DA:900,400000
DA:901,400000
DA:942,272800
DA:944,272800
DA:961,272800
DA:973,272800
DA:974,272800
DA:975,545600
LF:32
LH:18
end_of_record
SF:/usr/share/miniconda/envs/moose/x86_64-conda-linux-gnu/include/c++/10.3.0/bits/alloc_traits.h
FN:459,_ZNSt16allocator_traitsISaISt4pairIbdEEE8allocateERS2_m
FNDA:0,_ZNSt16allocator_traitsISaISt4pairIbdEEE8allocateERS2_m
FN:459,_ZNSt16allocator_traitsISaISt4pairIbN11MetaPhysicL10DualNumberIdNS1_28SemiDynamicSparseNumberArrayIdmNS1_8NWrapperILm53EEEEELb1EEEEEE8allocateERS9_m
FNDA:0,_ZNSt16allocator_traitsISaISt4pairIbN11MetaPhysicL10DualNumberIdNS1_28SemiDynamicSparseNumberArrayIdmNS1_8NWrapperILm53EEEEELb1EEEEEE8allocateERS9_m
FN:459,_ZNSt16allocator_traitsISaISt6vectorISt4pairIbdESaIS2_EEEE8allocateERS5_m
FNDA:0,_ZNSt16allocator_traitsISaISt6vectorISt4pairIbdESaIS2_EEEE8allocateERS5_m
FN:459,_ZNSt16allocator_traitsISaISt6vectorISt4pairIbN11MetaPhysicL10DualNumberIdNS2_28SemiDynamicSparseNumberArrayIdmNS2_8NWrapperILm53EEEEELb1EEEESaIS9_EEEE8allocateERSC_m
FNDA:0,_ZNSt16allocator_traitsISaISt6vectorISt4pairIbN11MetaPhysicL10DualNumberIdNS2_28SemiDynamicSparseNumberArrayIdmNS2_8NWrapperILm53EEEEELb1EEEESaIS9_EEEE8allocateERSC_m
FN:459,_ZNSt16allocator_traitsISaI12FunctionNameEE8allocateERS1_m
FNDA:7,_ZNSt16allocator_traitsISaI12FunctionNameEE8allocateERS1_m
FN:459,_ZNSt16allocator_traitsISaIPNSt8__detail15_Hash_node_baseEEE8allocateERS3_m
FNDA:0,_ZNSt16allocator_traitsISaIPNSt8__detail15_Hash_node_baseEEE8allocateERS3_m
FN:459,_ZNSt16allocator_traitsISaIP13PropertyValueEE8allocateERS2_m
FNDA:0,_ZNSt16allocator_traitsISaIP13PropertyValueEE8allocateERS2_m
FN:459,_ZNSt16allocator_traitsISaIPK10MooseArrayIN11MetaPhysicL10DualNumberIdNS1_28SemiDynamicSparseNumberArrayIdmNS1_8NWrapperILm53EEEEELb1EEEEEE8allocateERSB_m
FNDA:3,_ZNSt16allocator_traitsISaIPK10MooseArrayIN11MetaPhysicL10DualNumberIdNS1_28SemiDynamicSparseNumberArrayIdmNS1_8NWrapperILm53EEEEELb1EEEEEE8allocateERSB_m
FN:459,_ZNSt16allocator_traitsISaIN11MetaPhysicL10DualNumberIdNS0_28SemiDynamicSparseNumberArrayIdmNS0_8NWrapperILm53EEEEELb1EEEEE8allocateERS7_m
FNDA:400000,_ZNSt16allocator_traitsISaIN11MetaPhysicL10DualNumberIdNS0_28SemiDynamicSparseNumberArrayIdmNS0_8NWrapperILm53EEEEELb1EEEEE8allocateERS7_m
FN:459,_ZNSt16allocator_traitsISaIPK8FunctionEE8allocateERS3_m
FNDA:3,_ZNSt16allocator_traitsISaIPK8FunctionEE8allocateERS3_m
FN:459,_ZNSt16allocator_traitsISaINSt7__cxx1112basic_stringIcSt11char_traitsIcESaIcEEEEE8allocateERS6_m
FNDA:0,_ZNSt16allocator_traitsISaINSt7__cxx1112basic_stringIcSt11char_traitsIcESaIcEEEEE8allocateERS6_m
FN:459,_ZNSt16allocator_traitsISaIdEE8allocateERS0_m
FNDA:0,_ZNSt16allocator_traitsISaIdEE8allocateERS0_m
FNF:12
FNH:4
DA:459,0
DA:460,0
DA:459,0
DA:460,0
DA:459,0
DA:460,0
DA:459,0
DA:460,0
DA:459,7
DA:460,7
DA:459,0
DA:460,0
DA:459,0
DA:460,0
DA:459,3
DA:460,3
DA:459,400000
DA:460,400000
DA:459,3
DA:460,3
DA:459,0
DA:460,0
DA:459,0
DA:460,0
DA:492,400040
DA:512,0
DA:516,1197
LF:27
LH:10
end_of_record
SF:/usr/share/miniconda/envs/moose/x86_64-conda-linux-gnu/include/c++/10.3.0/bits/stl_vector.h
FN:333,_ZNSt12_Vector_baseIP15MooseVariableFEIdESaIS2_EED2Ev
FNDA:0,_ZNSt12_Vector_baseIP15MooseVariableFEIdESaIS2_EED2Ev
FN:333,_ZNSt12_Vector_baseISt6vectorIS0_ISt4pairIhhESaIS2_EESaIS4_EESaIS6_EED2Ev
FNDA:0,_ZNSt12_Vector_baseISt6vectorIS0_ISt4pairIhhESaIS2_EESaIS4_EESaIS6_EED2Ev
FN:333,_ZNSt12_Vector_baseI12FunctionNameSaIS0_EED2Ev
FNDA:3798,_ZNSt12_Vector_baseI12FunctionNameSaIS0_EED2Ev
FN:333,_ZNSt12_Vector_baseIPK10MooseArrayIN11MetaPhysicL10DualNumberIdNS1_28SemiDynamicSparseNumberArrayIdmNS1_8NWrapperILm53EEEEELb1EEEESaISA_EED2Ev
FNDA:3,_ZNSt12_Vector_baseIPK10MooseArrayIN11MetaPhysicL10DualNumberIdNS1_28SemiDynamicSparseNumberArrayIdmNS1_8NWrapperILm53EEEEELb1EEEESaISA_EED2Ev
FN:333,_ZNSt12_Vector_baseIN11MetaPhysicL10DualNumberIdNS0_28SemiDynamicSparseNumberArrayIdmNS0_8NWrapperILm53EEEEELb1EEESaIS6_EED2Ev
FNDA:400000,_ZNSt12_Vector_baseIN11MetaPhysicL10DualNumberIdNS0_28SemiDynamicSparseNumberArrayIdmNS0_8NWrapperILm53EEEEELb1EEESaIS6_EED2Ev
FN:333,_ZNSt12_Vector_baseISt10unique_ptrI33OptionalMaterialPropertyProxyBaseI8MaterialESt14default_deleteIS3_EESaIS6_EED2Ev
FNDA:609,_ZNSt12_Vector_baseISt10unique_ptrI33OptionalMaterialPropertyProxyBaseI8MaterialESt14default_deleteIS3_EESaIS6_EED2Ev
FN:333,_ZNSt12_Vector_baseISt10unique_ptrI18ADMaterialPropertyIN7libMesh11VectorValueIdEEESt14default_deleteIS5_EESaIS8_EED2Ev
FNDA:0,_ZNSt12_Vector_baseISt10unique_ptrI18ADMaterialPropertyIN7libMesh11VectorValueIdEEESt14default_deleteIS5_EESaIS8_EED2Ev
FN:333,_ZNSt12_Vector_baseISt10unique_ptrI16MaterialPropertyIN7libMesh11VectorValueIdEEESt14default_deleteIS5_EESaIS8_EED2Ev
FNDA:0,_ZNSt12_Vector_baseISt10unique_ptrI16MaterialPropertyIN7libMesh11VectorValueIdEEESt14default_deleteIS5_EESaIS8_EED2Ev
FN:333,_ZNSt12_Vector_baseISt10unique_ptrI18ADMaterialPropertyIdESt14default_deleteIS2_EESaIS5_EED2Ev
FNDA:0,_ZNSt12_Vector_baseISt10unique_ptrI18ADMaterialPropertyIdESt14default_deleteIS2_EESaIS5_EED2Ev
FN:333,_ZNSt12_Vector_baseISt10unique_ptrI16MaterialPropertyIdESt14default_deleteIS2_EESaIS5_EED2Ev
FNDA:0,_ZNSt12_Vector_baseISt10unique_ptrI16MaterialPropertyIdESt14default_deleteIS2_EESaIS5_EED2Ev
FN:333,_ZNSt12_Vector_baseIP15MooseVariableFVIdESaIS2_EED2Ev
FNDA:0,_ZNSt12_Vector_baseIP15MooseVariableFVIdESaIS2_EED2Ev
FN:333,_ZNSt12_Vector_baseIP15MooseVariableFEIN5Eigen6MatrixIdLin1ELi1ELi0ELin1ELi1EEEESaIS5_EED2Ev
FNDA:0,_ZNSt12_Vector_baseIP15MooseVariableFEIN5Eigen6MatrixIdLin1ELi1ELi0ELin1ELi1EEEESaIS5_EED2Ev
FN:333,_ZNSt12_Vector_baseIP15MooseVariableFEIN7libMesh11VectorValueIdEEESaIS5_EED2Ev
FNDA:0,_ZNSt12_Vector_baseIP15MooseVariableFEIN7libMesh11VectorValueIdEEESaIS5_EED2Ev
FN:333,_ZNSt12_Vector_baseISt10unique_ptrI33OptionalMaterialPropertyProxyBaseI25MaterialPropertyInterfaceESt14default_deleteIS3_EESaIS6_EED2Ev
FNDA:0,_ZNSt12_Vector_baseISt10unique_ptrI33OptionalMaterialPropertyProxyBaseI25MaterialPropertyInterfaceESt14default_deleteIS3_EESaIS6_EED2Ev
FN:333,_ZNSt12_Vector_baseIP22MooseVariableFieldBaseSaIS1_EED2Ev
FNDA:0,_ZNSt12_Vector_baseIP22MooseVariableFieldBaseSaIS1_EED2Ev
FN:333,_ZNSt12_Vector_baseISt10unique_ptrIN5Moose15FunctorEnvelopeIN11MetaPhysicL10DualNumberIdNS3_28SemiDynamicSparseNumberArrayIdmNS3_8NWrapperILm53EEEEELb1EEEEESt14default_deleteISA_EESaISD_EED2Ev
FNDA:0,_ZNSt12_Vector_baseISt10unique_ptrIN5Moose15FunctorEnvelopeIN11MetaPhysicL10DualNumberIdNS3_28SemiDynamicSparseNumberArrayIdmNS3_8NWrapperILm53EEEEELb1EEEEESt14default_deleteISA_EESaISD_EED2Ev
FN:333,_ZNSt12_Vector_baseISt10unique_ptrIN5Moose15FunctorEnvelopeIdEESt14default_deleteIS3_EESaIS6_EED2Ev
FNDA:0,_ZNSt12_Vector_baseISt10unique_ptrIN5Moose15FunctorEnvelopeIdEESt14default_deleteIS3_EESaIS6_EED2Ev
FN:333,_ZNSt12_Vector_baseIP19MooseVariableScalarSaIS1_EED2Ev
FNDA:0,_ZNSt12_Vector_baseIP19MooseVariableScalarSaIS1_EED2Ev
FN:333,_ZNSt12_Vector_baseI13SubdomainNameSaIS0_EED2Ev
FNDA:0,_ZNSt12_Vector_baseI13SubdomainNameSaIS0_EED2Ev
FN:333,_ZNSt12_Vector_baseIPK8FunctionSaIS2_EED2Ev
FNDA:3,_ZNSt12_Vector_baseIPK8FunctionSaIS2_EED2Ev
FN:333,_ZNSt12_Vector_baseItSaItEED2Ev
FNDA:0,_ZNSt12_Vector_baseItSaItEED2Ev
FN:333,_ZNSt12_Vector_baseIdSaIdEED2Ev
FNDA:0,_ZNSt12_Vector_baseIdSaIdEED2Ev
FN:333,_ZNSt12_Vector_baseIjSaIjEED2Ev
FNDA:609,_ZNSt12_Vector_baseIjSaIjEED2Ev
FN:333,_ZNSt12_Vector_baseISt6vectorIS0_IaSaIaEESaIS2_EESaIS4_EED2Ev
FNDA:0,_ZNSt12_Vector_baseISt6vectorIS0_IaSaIaEESaIS2_EESaIS4_EED2Ev
FN:333,_ZNSt12_Vector_baseISt6vectorIS0_IS0_ISt4pairIhhESaIS2_EESaIS4_EESaIS6_EESaIS8_EED2Ev
FNDA:0,_ZNSt12_Vector_baseISt6vectorIS0_IS0_ISt4pairIhhESaIS2_EESaIS4_EESaIS6_EESaIS8_EED2Ev
FN:333,_ZNSt12_Vector_baseINSt7__cxx1112basic_stringIcSt11char_traitsIcESaIcEEESaIS5_EED2Ev
FNDA:0,_ZNSt12_Vector_baseINSt7__cxx1112basic_stringIcSt11char_traitsIcESaIcEEESaIS5_EED2Ev
FN:333,_ZNSt12_Vector_baseISt6vectorISt4pairIhhESaIS2_EESaIS4_EED2Ev
FNDA:0,_ZNSt12_Vector_baseISt6vectorISt4pairIhhESaIS2_EESaIS4_EED2Ev
FN:333,_ZNSt12_Vector_baseISt6vectorIaSaIaEESaIS2_EED2Ev
FNDA:0,_ZNSt12_Vector_baseISt6vectorIaSaIaEESaIS2_EED2Ev
FN:333,_ZNSt12_Vector_baseISt5tupleIJNSt7__cxx1112basic_stringIcSt11char_traitsIcESaIcEEEN5Moose23RelationshipManagerTypeESt8functionIFvRK15InputParametersRSA_EEEESaISG_EED2Ev
FNDA:0,_ZNSt12_Vector_baseISt5tupleIJNSt7__cxx1112basic_stringIcSt11char_traitsIcESaIcEEEN5Moose23RelationshipManagerTypeESt8functionIFvRK15InputParametersRSA_EEEESaISG_EED2Ev
FN:333,_ZNSt12_Vector_baseISt4pairIhhESaIS1_EED2Ev
FNDA:0,_ZNSt12_Vector_baseISt4pairIhhESaIS1_EED2Ev
FN:333,_ZNSt12_Vector_baseISt6vectorISt4pairIbN11MetaPhysicL10DualNumberIdNS2_28SemiDynamicSparseNumberArrayIdmNS2_8NWrapperILm53EEEEELb1EEEESaIS9_EESaISB_EED2Ev
FNDA:0,_ZNSt12_Vector_baseISt6vectorISt4pairIbN11MetaPhysicL10DualNumberIdNS2_28SemiDynamicSparseNumberArrayIdmNS2_8NWrapperILm53EEEEELb1EEEESaIS9_EESaISB_EED2Ev
FN:333,_ZNSt12_Vector_baseISt4pairIbN11MetaPhysicL10DualNumberIdNS1_28SemiDynamicSparseNumberArrayIdmNS1_8NWrapperILm53EEEEELb1EEEESaIS8_EED2Ev
FNDA:0,_ZNSt12_Vector_baseISt4pairIbN11MetaPhysicL10DualNumberIdNS1_28SemiDynamicSparseNumberArrayIdmNS1_8NWrapperILm53EEEEELb1EEEESaIS8_EED2Ev
FN:333,_ZNSt12_Vector_baseISt6vectorISt4pairIbdESaIS2_EESaIS4_EED2Ev
FNDA:0,_ZNSt12_Vector_baseISt6vectorISt4pairIbdESaIS2_EESaIS4_EED2Ev
FN:333,_ZNSt12_Vector_baseISt4pairIbdESaIS1_EED2Ev
FNDA:0,_ZNSt12_Vector_baseISt4pairIbdESaIS1_EED2Ev
FN:333,_ZNSt12_Vector_baseIaSaIaEED2Ev
FNDA:0,_ZNSt12_Vector_baseIaSaIaEED2Ev
FN:333,_ZNSt12_Vector_baseISt10unique_ptrI10MooseArrayIdESt14default_deleteIS2_EESaIS5_EED2Ev
FNDA:0,_ZNSt12_Vector_baseISt10unique_ptrI10MooseArrayIdESt14default_deleteIS2_EESaIS5_EED2Ev
FN:359,_ZNSt12_Vector_baseIN11MetaPhysicL10DualNumberIdNS0_28SemiDynamicSparseNumberArrayIdmNS0_8NWrapperILm53EEEEELb1EEESaIS6_EE17_M_create_storageEm
FNDA:400000,_ZNSt12_Vector_baseIN11MetaPhysicL10DualNumberIdNS0_28SemiDynamicSparseNumberArrayIdmNS0_8NWrapperILm53EEEEELb1EEESaIS6_EE17_M_create_storageEm
FN:359,_ZNSt12_Vector_baseIPK10MooseArrayIN11MetaPhysicL10DualNumberIdNS1_28SemiDynamicSparseNumberArrayIdmNS1_8NWrapperILm53EEEEELb1EEEESaISA_EE17_M_create_storageEm
FNDA:3,_ZNSt12_Vector_baseIPK10MooseArrayIN11MetaPhysicL10DualNumberIdNS1_28SemiDynamicSparseNumberArrayIdmNS1_8NWrapperILm53EEEEELb1EEEESaISA_EE17_M_create_storageEm
FN:510,_ZNSt6vectorIN11MetaPhysicL10DualNumberIdNS0_28SemiDynamicSparseNumberArrayIdmNS0_8NWrapperILm53EEEEELb1EEESaIS6_EEC2EmRKS7_
FNDA:400000,_ZNSt6vectorIN11MetaPhysicL10DualNumberIdNS0_28SemiDynamicSparseNumberArrayIdmNS0_8NWrapperILm53EEEEELb1EEESaIS6_EEC2EmRKS7_
FN:510,_ZNSt6vectorIPK10MooseArrayIN11MetaPhysicL10DualNumberIdNS1_28SemiDynamicSparseNumberArrayIdmNS1_8NWrapperILm53EEEEELb1EEEESaISA_EEC2EmRKSB_
FNDA:3,_ZNSt6vectorIPK10MooseArrayIN11MetaPhysicL10DualNumberIdNS1_28SemiDynamicSparseNumberArrayIdmNS1_8NWrapperILm53EEEEELb1EEEESaISA_EEC2EmRKSB_
FN:625,_ZNSt6vectorIdSaIdEEC2ESt16initializer_listIdERKS0_
FNDA:0,_ZNSt6vectorIdSaIdEEC2ESt16initializer_listIdERKS0_
FN:625,_ZNSt6vectorINSt7__cxx1112basic_stringIcSt11char_traitsIcESaIcEEESaIS5_EEC2ESt16initializer_listIS5_ERKS6_
FNDA:0,_ZNSt6vectorINSt7__cxx1112basic_stringIcSt11char_traitsIcESaIcEEESaIS5_EEC2ESt16initializer_listIS5_ERKS6_
FN:678,_ZNSt6vectorISt10unique_ptrI16MaterialPropertyIN7libMesh11VectorValueIdEEESt14default_deleteIS5_EESaIS8_EED2Ev
FNDA:0,_ZNSt6vectorISt10unique_ptrI16MaterialPropertyIN7libMesh11VectorValueIdEEESt14default_deleteIS5_EESaIS8_EED2Ev
FN:678,_ZNSt6vectorISt10unique_ptrI18ADMaterialPropertyIN7libMesh11VectorValueIdEEESt14default_deleteIS5_EESaIS8_EED2Ev
FNDA:0,_ZNSt6vectorISt10unique_ptrI18ADMaterialPropertyIN7libMesh11VectorValueIdEEESt14default_deleteIS5_EESaIS8_EED2Ev
FN:678,_ZNSt6vectorISt10unique_ptrI33OptionalMaterialPropertyProxyBaseI25MaterialPropertyInterfaceESt14default_deleteIS3_EESaIS6_EED2Ev
FNDA:0,_ZNSt6vectorISt10unique_ptrI33OptionalMaterialPropertyProxyBaseI25MaterialPropertyInterfaceESt14default_deleteIS3_EESaIS6_EED2Ev
FN:678,_ZNSt6vectorIS_IaSaIaEESaIS1_EED2Ev
FNDA:0,_ZNSt6vectorIS_IaSaIaEESaIS1_EED2Ev
FN:678,_ZNSt6vectorISt10unique_ptrI33OptionalMaterialPropertyProxyBaseI8MaterialESt14default_deleteIS3_EESaIS6_EED2Ev
FNDA:609,_ZNSt6vectorISt10unique_ptrI33OptionalMaterialPropertyProxyBaseI8MaterialESt14default_deleteIS3_EESaIS6_EED2Ev
FN:678,_ZNSt6vectorISt10unique_ptrI18ADMaterialPropertyIdESt14default_deleteIS2_EESaIS5_EED2Ev
FNDA:0,_ZNSt6vectorISt10unique_ptrI18ADMaterialPropertyIdESt14default_deleteIS2_EESaIS5_EED2Ev
FN:678,_ZNSt6vectorISt10unique_ptrI16MaterialPropertyIdESt14default_deleteIS2_EESaIS5_EED2Ev
FNDA:0,_ZNSt6vectorISt10unique_ptrI16MaterialPropertyIdESt14default_deleteIS2_EESaIS5_EED2Ev
FN:678,_ZNSt6vectorISt10unique_ptrIN5Moose15FunctorEnvelopeIN11MetaPhysicL10DualNumberIdNS3_28SemiDynamicSparseNumberArrayIdmNS3_8NWrapperILm53EEEEELb1EEEEESt14default_deleteISA_EESaISD_EED2Ev
FNDA:0,_ZNSt6vectorISt10unique_ptrIN5Moose15FunctorEnvelopeIN11MetaPhysicL10DualNumberIdNS3_28SemiDynamicSparseNumberArrayIdmNS3_8NWrapperILm53EEEEELb1EEEEESt14default_deleteISA_EESaISD_EED2Ev
FN:678,_ZNSt6vectorI13SubdomainNameSaIS0_EED2Ev
FNDA:0,_ZNSt6vectorI13SubdomainNameSaIS0_EED2Ev
FN:678,_ZNSt6vectorISt10unique_ptrIN5Moose15FunctorEnvelopeIdEESt14default_deleteIS3_EESaIS6_EED2Ev
FNDA:0,_ZNSt6vectorISt10unique_ptrIN5Moose15FunctorEnvelopeIdEESt14default_deleteIS3_EESaIS6_EED2Ev
FN:678,_ZNSt6vectorISt5tupleIJNSt7__cxx1112basic_stringIcSt11char_traitsIcESaIcEEEN5Moose23RelationshipManagerTypeESt8functionIFvRK15InputParametersRSA_EEEESaISG_EED2Ev
FNDA:0,_ZNSt6vectorISt5tupleIJNSt7__cxx1112basic_stringIcSt11char_traitsIcESaIcEEEN5Moose23RelationshipManagerTypeESt8functionIFvRK15InputParametersRSA_EEEESaISG_EED2Ev
FN:678,_ZNSt6vectorIS_ISt4pairIbN11MetaPhysicL10DualNumberIdNS1_28SemiDynamicSparseNumberArrayIdmNS1_8NWrapperILm53EEEEELb1EEEESaIS8_EESaISA_EED2Ev
FNDA:0,_ZNSt6vectorIS_ISt4pairIbN11MetaPhysicL10DualNumberIdNS1_28SemiDynamicSparseNumberArrayIdmNS1_8NWrapperILm53EEEEELb1EEEESaIS8_EESaISA_EED2Ev
FN:678,_ZNSt6vectorIS_ISt4pairIbdESaIS1_EESaIS3_EED2Ev
FNDA:0,_ZNSt6vectorIS_ISt4pairIbdESaIS1_EESaIS3_EED2Ev
FN:678,_ZNSt6vectorIS_IS_ISt4pairIhhESaIS1_EESaIS3_EESaIS5_EED2Ev
FNDA:0,_ZNSt6vectorIS_IS_ISt4pairIhhESaIS1_EESaIS3_EESaIS5_EED2Ev
FN:678,_ZNSt6vectorIS_IS_IaSaIaEESaIS1_EESaIS3_EED2Ev
FNDA:0,_ZNSt6vectorIS_IS_IaSaIaEESaIS1_EESaIS3_EED2Ev
FN:678,_ZNSt6vectorIS_ISt4pairIhhESaIS1_EESaIS3_EED2Ev
FNDA:0,_ZNSt6vectorIS_ISt4pairIhhESaIS1_EESaIS3_EED2Ev
FN:678,_ZNSt6vectorIS_IS_IS_ISt4pairIhhESaIS1_EESaIS3_EESaIS5_EESaIS7_EED2Ev
FNDA:0,_ZNSt6vectorIS_IS_IS_ISt4pairIhhESaIS1_EESaIS3_EESaIS5_EESaIS7_EED2Ev
FN:678,_ZNSt6vectorISt10unique_ptrI10MooseArrayIdESt14default_deleteIS2_EESaIS5_EED2Ev
FNDA:0,_ZNSt6vectorISt10unique_ptrI10MooseArrayIdESt14default_deleteIS2_EESaIS5_EED2Ev
FN:678,_ZNSt6vectorI12FunctionNameSaIS0_EED2Ev
FNDA:3798,_ZNSt6vectorI12FunctionNameSaIS0_EED2Ev
FN:678,_ZNSt6vectorINSt7__cxx1112basic_stringIcSt11char_traitsIcESaIcEEESaIS5_EED2Ev
FNDA:0,_ZNSt6vectorINSt7__cxx1112basic_stringIcSt11char_traitsIcESaIcEEESaIS5_EED2Ev
FN:937,_ZNSt6vectorIS_ISt4pairIbN11MetaPhysicL10DualNumberIdNS1_28SemiDynamicSparseNumberArrayIdmNS1_8NWrapperILm53EEEEELb1EEEESaIS8_EESaISA_EE6resizeEm
FNDA:0,_ZNSt6vectorIS_ISt4pairIbN11MetaPhysicL10DualNumberIdNS1_28SemiDynamicSparseNumberArrayIdmNS1_8NWrapperILm53EEEEELb1EEEESaIS8_EESaISA_EE6resizeEm
FN:937,_ZNSt6vectorIS_ISt4pairIbdESaIS1_EESaIS3_EE6resizeEm
FNDA:0,_ZNSt6vectorIS_ISt4pairIbdESaIS1_EESaIS3_EE6resizeEm
FN:937,_ZNSt6vectorIPK8FunctionSaIS2_EE6resizeEm
FNDA:3,_ZNSt6vectorIPK8FunctionSaIS2_EE6resizeEm
FN:957,_ZNSt6vectorISt4pairIbdESaIS1_EE6resizeEmRKS1_
FNDA:0,_ZNSt6vectorISt4pairIbdESaIS1_EE6resizeEmRKS1_
FN:957,_ZNSt6vectorIP13PropertyValueSaIS1_EE6resizeEmRKS1_
FNDA:0,_ZNSt6vectorIP13PropertyValueSaIS1_EE6resizeEmRKS1_
FN:957,_ZNSt6vectorISt4pairIbN11MetaPhysicL10DualNumberIdNS1_28SemiDynamicSparseNumberArrayIdmNS1_8NWrapperILm53EEEEELb1EEEESaIS8_EE6resizeEmRKS8_
FNDA:0,_ZNSt6vectorISt4pairIbN11MetaPhysicL10DualNumberIdNS1_28SemiDynamicSparseNumberArrayIdmNS1_8NWrapperILm53EEEEELb1EEEESaIS8_EE6resizeEmRKS8_
FN:1508,_ZNSt6vectorI12FunctionNameSaIS0_EE20_M_allocate_and_copyIN9__gnu_cxx17__normal_iteratorIPKS0_S2_EEEEPS0_mT_SA_
FNDA:7,_ZNSt6vectorI12FunctionNameSaIS0_EE20_M_allocate_and_copyIN9__gnu_cxx17__normal_iteratorIPKS0_S2_EEEEPS0_mT_SA_
FN:1577,_ZNSt6vectorINSt7__cxx1112basic_stringIcSt11char_traitsIcESaIcEEESaIS5_EE19_M_range_initializeIPKS5_EEvT_SB_St20forward_iterator_tag
FNDA:0,_ZNSt6vectorINSt7__cxx1112basic_stringIcSt11char_traitsIcESaIcEEESaIS5_EE19_M_range_initializeIPKS5_EEvT_SB_St20forward_iterator_tag
FN:1577,_ZNSt6vectorIdSaIdEE19_M_range_initializeIPKdEEvT_S5_St20forward_iterator_tag
FNDA:0,_ZNSt6vectorIdSaIdEE19_M_range_initializeIPKdEEvT_S5_St20forward_iterator_tag
FN:1603,_ZNSt6vectorIN11MetaPhysicL10DualNumberIdNS0_28SemiDynamicSparseNumberArrayIdmNS0_8NWrapperILm53EEEEELb1EEESaIS6_EE21_M_default_initializeEm
FNDA:400000,_ZNSt6vectorIN11MetaPhysicL10DualNumberIdNS0_28SemiDynamicSparseNumberArrayIdmNS0_8NWrapperILm53EEEEELb1EEESaIS6_EE21_M_default_initializeEm
FN:1756,_ZNKSt6vectorISt4pairIbdESaIS1_EE12_M_check_lenEmPKc
FNDA:0,_ZNKSt6vectorISt4pairIbdESaIS1_EE12_M_check_lenEmPKc
FN:1756,_ZNKSt6vectorIS_ISt4pairIbN11MetaPhysicL10DualNumberIdNS1_28SemiDynamicSparseNumberArrayIdmNS1_8NWrapperILm53EEEEELb1EEEESaIS8_EESaISA_EE12_M_check_lenEmPKc
FNDA:0,_ZNKSt6vectorIS_ISt4pairIbN11MetaPhysicL10DualNumberIdNS1_28SemiDynamicSparseNumberArrayIdmNS1_8NWrapperILm53EEEEELb1EEEESaIS8_EESaISA_EE12_M_check_lenEmPKc
FN:1756,_ZNKSt6vectorIS_ISt4pairIbdESaIS1_EESaIS3_EE12_M_check_lenEmPKc
FNDA:0,_ZNKSt6vectorIS_ISt4pairIbdESaIS1_EESaIS3_EE12_M_check_lenEmPKc
FN:1756,_ZNKSt6vectorIPK8FunctionSaIS2_EE12_M_check_lenEmPKc
FNDA:3,_ZNKSt6vectorIPK8FunctionSaIS2_EE12_M_check_lenEmPKc
FN:1756,_ZNKSt6vectorIP13PropertyValueSaIS1_EE12_M_check_lenEmPKc
FNDA:0,_ZNKSt6vectorIP13PropertyValueSaIS1_EE12_M_check_lenEmPKc
FN:1756,_ZNKSt6vectorISt4pairIbN11MetaPhysicL10DualNumberIdNS1_28SemiDynamicSparseNumberArrayIdmNS1_8NWrapperILm53EEEEELb1EEEESaIS8_EE12_M_check_lenEmPKc
FNDA:0,_ZNKSt6vectorISt4pairIbN11MetaPhysicL10DualNumberIdNS1_28SemiDynamicSparseNumberArrayIdmNS1_8NWrapperILm53EEEEELb1EEEESaIS8_EE12_M_check_lenEmPKc
FN:1792,_ZNSt6vectorIS_ISt4pairIbN11MetaPhysicL10DualNumberIdNS1_28SemiDynamicSparseNumberArrayIdmNS1_8NWrapperILm53EEEEELb1EEEESaIS8_EESaISA_EE15_M_erase_at_endEPSA_
FNDA:0,_ZNSt6vectorIS_ISt4pairIbN11MetaPhysicL10DualNumberIdNS1_28SemiDynamicSparseNumberArrayIdmNS1_8NWrapperILm53EEEEELb1EEEESaIS8_EESaISA_EE15_M_erase_at_endEPSA_
FN:1792,_ZNSt6vectorIS_ISt4pairIbdESaIS1_EESaIS3_EE15_M_erase_at_endEPS3_
FNDA:0,_ZNSt6vectorIS_ISt4pairIbdESaIS1_EESaIS3_EE15_M_erase_at_endEPS3_
FNF:80
FNH:16
DA:97,402371
DA:98,2368
DA:102,0
DA:103,0
DA:104,0
DA:105,0
DA:277,0
DA:305,400003
DA:333,0
DA:336,0
DA:337,0
DA:333,0
DA:336,0
DA:337,0
DA:333,0
DA:336,0
DA:337,0
DA:333,0
DA:336,0
DA:337,0
DA:333,0
DA:336,0
DA:337,0
DA:333,0
DA:336,0
DA:337,0
DA:333,0
DA:336,0
DA:337,0
DA:333,0
DA:336,0
DA:337,0
DA:333,0
DA:336,0
DA:337,0
DA:333,0
DA:336,0
DA:337,0
DA:333,0
DA:336,0
DA:337,0
DA:333,3
DA:336,3
DA:337,3
DA:333,0
DA:336,0
DA:337,0
DA:333,0
DA:336,0
DA:337,0
DA:333,609
DA:336,609
DA:337,609
DA:333,0
DA:336,0
DA:337,0
DA:333,0
DA:336,0
DA:337,0
DA:333,0
DA:336,0
DA:337,0
DA:333,0
DA:336,0
DA:337,0
DA:333,0
DA:336,0
DA:337,0
DA:333,0
DA:336,0
DA:337,0
DA:333,0
DA:336,0
DA:337,0
DA:333,0
DA:336,0
DA:337,0
DA:333,0
DA:336,0
DA:337,0
DA:333,0
DA:335,0
DA:336,0
DA:337,0
DA:333,0
DA:336,0
DA:337,0
DA:333,0
DA:336,0
DA:337,0
DA:333,0
DA:336,0
DA:337,0
DA:333,0
DA:336,0
DA:337,0
DA:333,3798
DA:336,3798
DA:337,3798
DA:333,3
DA:336,3
DA:337,3
DA:333,400000
DA:336,400000
DA:337,400000
DA:333,609
DA:336,609
DA:337,609
DA:333,0
DA:336,0
DA:337,0
DA:333,0
DA:336,0
DA:337,0
DA:333,0
DA:336,0
DA:337,0
DA:346,400013
DA:353,405032
DA:359,3
DA:361,3
DA:362,3
DA:363,3
DA:364,3
DA:359,400000
DA:361,400000
DA:362,400000
DA:363,400000
DA:364,400000
DA:510,3
DA:511,3
DA:512,3
DA:510,400000
DA:511,400000
DA:512,400000
DA:625,0
DA:627,0
DA:629,0
DA:631,0
DA:625,0
DA:627,0
DA:629,0
DA:631,0
DA:678,0
DA:680,0
DA:683,0
DA:678,0
DA:680,0
DA:683,0
DA:678,0
DA:680,0
DA:683,0
DA:678,0
DA:680,0
DA:683,0
DA:678,0
DA:680,0
DA:683,0
DA:678,0
DA:680,0
DA:683,0
DA:678,0
DA:680,0
DA:683,0
DA:678,0
DA:680,0
DA:683,0
DA:678,0
DA:680,0
DA:683,0
DA:678,0
DA:680,0
DA:683,0
DA:678,0
DA:680,0
DA:683,0
DA:678,0
DA:680,0
DA:683,0
DA:678,609
DA:680,609
DA:683,609
DA:678,3798
DA:680,3798
DA:683,3798
DA:678,0
DA:680,0
DA:683,0
DA:678,0
DA:680,0
DA:683,0
DA:678,0
DA:680,0
DA:683,0
DA:678,0
DA:680,0
DA:683,0
DA:678,0
DA:680,0
DA:683,0
DA:678,0
DA:680,0
DA:683,0
DA:683,400000
DA:919,400006
DA:937,0
DA:939,0
DA:940,0
DA:941,0
DA:942,0
DA:943,0
DA:937,0
DA:939,0
DA:940,0
DA:941,0
DA:942,0
DA:943,0
DA:937,3
DA:939,3
DA:940,3
DA:941,0
DA:942,0
DA:943,3
DA:957,0
DA:959,0
DA:960,0
DA:961,0
DA:962,0
DA:963,0
DA:957,0
DA:959,0
DA:960,0
DA:961,0
DA:962,0
DA:963,0
DA:957,0
DA:959,0
DA:960,0
DA:961,0
DA:962,0
DA:963,0
DA:999,7
DA:1000,7
DA:1046,1602680
DA:1064,9
DA:1508,7
DA:1514,7
DA:1516,7
DA:1518,0
DA:1521,0
DA:1577,0
DA:1580,0
DA:1582,0
DA:1583,0
DA:1584,0
DA:1588,0
DA:1577,0
DA:1580,0
DA:1582,0
DA:1583,0
DA:1584,0
DA:1588,0
DA:1603,400000
DA:1605,400003
DA:1606,400003
DA:1608,400000
DA:1709,0
DA:1716,0
DA:1756,0
DA:1758,0
DA:1759,0
DA:1761,0
DA:1762,0
DA:1756,0
DA:1758,0
DA:1759,0
DA:1761,0
DA:1762,0
DA:1756,0
DA:1758,0
DA:1759,0
DA:1761,0
DA:1762,0
DA:1756,0
DA:1758,0
DA:1759,0
DA:1761,0
DA:1762,0
DA:1756,0
DA:1758,0
DA:1759,0
DA:1761,0
DA:1762,0
DA:1756,3
DA:1758,3
DA:1759,0
DA:1761,3
DA:1762,3
DA:1769,400003
DA:1770,0
DA:1792,0
DA:1794,0
DA:1798,0
DA:1801,0
DA:1792,0
DA:1794,0
DA:1798,0
DA:1801,0
DA:1794,0
DA:1798,0
LF:310
LH:67
end_of_record
SF:/usr/share/miniconda/envs/moose/libmesh/include/Eigen/src/Core/DenseStorage.h
DA:542,0
LF:1
LH:0
end_of_record
SF:/usr/share/miniconda/envs/moose/x86_64-conda-linux-gnu/include/c++/10.3.0/typeinfo
FN:120,_ZNKSt9type_infoeqERKS_
FNDA:0,_ZNKSt9type_infoeqERKS_
FNF:1
FNH:0
DA:100,0
DA:120,0
DA:122,0
DA:123,0
DA:124,0
LF:5
LH:0
end_of_record
SF:/home/runner/work/raccoon/raccoon/moose/framework/build/header_symlinks/ScalarCoupleable.h
LF:0
LH:0
end_of_record
SF:/home/runner/work/raccoon/raccoon/moose/framework/build/header_symlinks/MooseTypes.h
DA:863,3
DA:869,0
DA:872,0
DA:878,42
DA:899,609
DA:902,12962
DA:905,0
LF:7
LH:4
end_of_record
SF:/usr/share/miniconda/envs/moose/x86_64-conda-linux-gnu/include/c++/10.3.0/streambuf
LF:0
LH:0
end_of_record
SF:/home/runner/work/raccoon/raccoon/moose/framework/contrib/hit/parse.h
LF:0
LH:0
end_of_record
SF:/home/runner/work/raccoon/raccoon/moose/framework/build/header_symlinks/Coupleable.h
FN:114,_ZNK10Coupleable15coupledCallbackERKNSt7__cxx1112basic_stringIcSt11char_traitsIcESaIcEEEb
FNDA:0,_ZNK10Coupleable15coupledCallbackERKNSt7__cxx1112basic_stringIcSt11char_traitsIcESaIcEEEb
FNF:1
FNH:0
DA:114,0
LF:1
LH:0
end_of_record
SF:/usr/share/miniconda/envs/moose/x86_64-conda-linux-gnu/include/c++/10.3.0/ext/new_allocator.h
FN:148,_ZN9__gnu_cxx13new_allocatorISt13_Rb_tree_nodeISt4pairIKNSt7__cxx1112basic_stringIcSt11char_traitsIcESaIcEEEN15InputParameters8MetadataEEEE9constructISC_JRKSt21piecewise_construct_tSt5tupleIJRS9_EESJ_IJEEEEEvPT_DpOT0_
FNDA:0,_ZN9__gnu_cxx13new_allocatorISt13_Rb_tree_nodeISt4pairIKNSt7__cxx1112basic_stringIcSt11char_traitsIcESaIcEEEN15InputParameters8MetadataEEEE9constructISC_JRKSt21piecewise_construct_tSt5tupleIJRS9_EESJ_IJEEEEEvPT_DpOT0_
FNF:1
FNH:0
DA:105,400013
DA:106,0
DA:115,401237
DA:133,407915
DA:148,0
DA:150,1224
DA:156,27
LF:7
LH:5
end_of_record
SF:/home/runner/work/raccoon/raccoon/src/materials/ComputeEigenstrainFromFunctionInitialStress.C
FN:10,_ZN43ComputeEigenstrainFromFunctionInitialStress11validParamsEv
FNDA:161,_ZN43ComputeEigenstrainFromFunctionInitialStress11validParamsEv
FN:32,_ZN43ComputeEigenstrainFromFunctionInitialStressC2ERK15InputParameters
FNDA:3,_ZN43ComputeEigenstrainFromFunctionInitialStressC2ERK15InputParameters
FN:58,_ZN43ComputeEigenstrainFromFunctionInitialStress24initQpStatefulPropertiesEv
FNDA:0,_ZN43ComputeEigenstrainFromFunctionInitialStress24initQpStatefulPropertiesEv
FN:64,_ZN43ComputeEigenstrainFromFunctionInitialStress19computeQpPropertiesEv
FNDA:400000,_ZN43ComputeEigenstrainFromFunctionInitialStress19computeQpPropertiesEv
FNF:4
FNH:3
DA:10,161
DA:12,161
DA:13,161
DA:14,161
DA:20,322
DA:21,322
DA:22,322
DA:27,322
DA:29,161
DA:32,3
DA:33,3
DA:36,6
DA:37,6
DA:38,6
DA:39,18
DA:42,6
DA:45,3
DA:46,0
DA:48,0
DA:49,0
DA:50,0
DA:52,3
DA:53,12
DA:54,9
DA:55,3
DA:58,0
DA:60,0
DA:61,0
DA:64,400000
DA:67,400000
DA:68,1600000
DA:69,1200000
DA:70,400000
DA:71,400000
DA:73,400000
DA:74,400000
DA:75,1200000
DA:76,400000
LF:38
LH:31
end_of_record
SF:/home/runner/work/raccoon/raccoon/moose/framework/build/header_symlinks/MaterialProperty.h
FN:113,_ZN20MaterialPropertyBaseIdLb1EED2Ev
FNDA:0,_ZN20MaterialPropertyBaseIdLb1EED2Ev
FN:113,_ZN20MaterialPropertyBaseIN7libMesh11VectorValueIdEELb1EED0Ev
FNDA:0,_ZN20MaterialPropertyBaseIN7libMesh11VectorValueIdEELb1EED0Ev
FN:113,_ZN20MaterialPropertyBaseIN7libMesh11VectorValueIdEELb1EED2Ev
FNDA:0,_ZN20MaterialPropertyBaseIN7libMesh11VectorValueIdEELb1EED2Ev
FN:113,_ZN20MaterialPropertyBaseIN7libMesh11VectorValueIdEELb0EED0Ev
FNDA:0,_ZN20MaterialPropertyBaseIN7libMesh11VectorValueIdEELb0EED0Ev
FN:113,_ZN20MaterialPropertyBaseIN7libMesh11VectorValueIdEELb0EED2Ev
FNDA:0,_ZN20MaterialPropertyBaseIN7libMesh11VectorValueIdEELb0EED2Ev
FN:113,_ZN20MaterialPropertyBaseI18RankTwoTensorTemplIdELb0EED0Ev
FNDA:0,_ZN20MaterialPropertyBaseI18RankTwoTensorTemplIdELb0EED0Ev
FN:113,_ZN20MaterialPropertyBaseI18RankTwoTensorTemplIdELb0EED2Ev
FNDA:0,_ZN20MaterialPropertyBaseI18RankTwoTensorTemplIdELb0EED2Ev
FN:113,_ZN20MaterialPropertyBaseI18RankTwoTensorTemplIdELb1EED2Ev
FNDA:0,_ZN20MaterialPropertyBaseI18RankTwoTensorTemplIdELb1EED2Ev
FN:113,_ZN20MaterialPropertyBaseIdLb0EED0Ev
FNDA:0,_ZN20MaterialPropertyBaseIdLb0EED0Ev
FN:113,_ZN20MaterialPropertyBaseIdLb0EED2Ev
FNDA:0,_ZN20MaterialPropertyBaseIdLb0EED2Ev
FN:113,_ZN20MaterialPropertyBaseIdLb1EED0Ev
FNDA:0,_ZN20MaterialPropertyBaseIdLb1EED0Ev
FN:113,_ZN20MaterialPropertyBaseI18RankTwoTensorTemplIdELb1EED0Ev
FNDA:0,_ZN20MaterialPropertyBaseI18RankTwoTensorTemplIdELb1EED0Ev
FN:115,_ZN20MaterialPropertyBaseIdLb1EE4isADEv
FNDA:0,_ZN20MaterialPropertyBaseIdLb1EE4isADEv
FN:115,_ZN20MaterialPropertyBaseIdLb0EE4isADEv
FNDA:0,_ZN20MaterialPropertyBaseIdLb0EE4isADEv
FN:115,_ZN20MaterialPropertyBaseI18RankTwoTensorTemplIdELb0EE4isADEv
FNDA:0,_ZN20MaterialPropertyBaseI18RankTwoTensorTemplIdELb0EE4isADEv
FN:115,_ZN20MaterialPropertyBaseI18RankTwoTensorTemplIdELb1EE4isADEv
FNDA:0,_ZN20MaterialPropertyBaseI18RankTwoTensorTemplIdELb1EE4isADEv
FN:115,_ZN20MaterialPropertyBaseIN7libMesh11VectorValueIdEELb1EE4isADEv
FNDA:0,_ZN20MaterialPropertyBaseIN7libMesh11VectorValueIdEELb1EE4isADEv
FN:115,_ZN20MaterialPropertyBaseIN7libMesh11VectorValueIdEELb0EE4isADEv
FNDA:0,_ZN20MaterialPropertyBaseIN7libMesh11VectorValueIdEELb0EE4isADEv
FN:137,_ZNK20MaterialPropertyBaseI18RankTwoTensorTemplIdELb1EE4sizeEv
FNDA:0,_ZNK20MaterialPropertyBaseI18RankTwoTensorTemplIdELb1EE4sizeEv
FN:137,_ZNK20MaterialPropertyBaseIdLb0EE4sizeEv
FNDA:0,_ZNK20MaterialPropertyBaseIdLb0EE4sizeEv
FN:137,_ZNK20MaterialPropertyBaseIN7libMesh11VectorValueIdEELb0EE4sizeEv
FNDA:0,_ZNK20MaterialPropertyBaseIN7libMesh11VectorValueIdEELb0EE4sizeEv
FN:137,_ZNK20MaterialPropertyBaseIN7libMesh11VectorValueIdEELb1EE4sizeEv
FNDA:0,_ZNK20MaterialPropertyBaseIN7libMesh11VectorValueIdEELb1EE4sizeEv
FN:137,_ZNK20MaterialPropertyBaseIdLb1EE4sizeEv
FNDA:0,_ZNK20MaterialPropertyBaseIdLb1EE4sizeEv
FN:137,_ZNK20MaterialPropertyBaseI18RankTwoTensorTemplIdELb0EE4sizeEv
FNDA:0,_ZNK20MaterialPropertyBaseI18RankTwoTensorTemplIdELb0EE4sizeEv
FN:221,_ZN5moose8internal22rawValueEqualityHelperI18RankTwoTensorTemplIN11MetaPhysicL10DualNumberIdNS3_28SemiDynamicSparseNumberArrayIdmNS3_8NWrapperILm53EEEEELb1EEEES2_IdEEEvRT_RKT0_
FNDA:0,_ZN5moose8internal22rawValueEqualityHelperI18RankTwoTensorTemplIN11MetaPhysicL10DualNumberIdNS3_28SemiDynamicSparseNumberArrayIdmNS3_8NWrapperILm53EEEEELb1EEEES2_IdEEEvRT_RKT0_
FN:221,_ZN5moose8internal22rawValueEqualityHelperI18RankTwoTensorTemplIdES2_IN11MetaPhysicL10DualNumberIdNS4_28SemiDynamicSparseNumberArrayIdmNS4_8NWrapperILm53EEEEELb1EEEEEEvRT_RKT0_
FNDA:0,_ZN5moose8internal22rawValueEqualityHelperI18RankTwoTensorTemplIdES2_IN11MetaPhysicL10DualNumberIdNS4_28SemiDynamicSparseNumberArrayIdmNS4_8NWrapperILm53EEEEELb1EEEEEEvRT_RKT0_
FN:221,_ZN5moose8internal22rawValueEqualityHelperIN7libMesh11VectorValueIN11MetaPhysicL10DualNumberIdNS4_28SemiDynamicSparseNumberArrayIdmNS4_8NWrapperILm53EEEEELb1EEEEENS3_IdEEEEvRT_RKT0_
FNDA:0,_ZN5moose8internal22rawValueEqualityHelperIN7libMesh11VectorValueIN11MetaPhysicL10DualNumberIdNS4_28SemiDynamicSparseNumberArrayIdmNS4_8NWrapperILm53EEEEELb1EEEEENS3_IdEEEEvRT_RKT0_
FN:221,_ZN5moose8internal22rawValueEqualityHelperIN7libMesh11VectorValueIdEENS3_IN11MetaPhysicL10DualNumberIdNS5_28SemiDynamicSparseNumberArrayIdmNS5_8NWrapperILm53EEEEELb1EEEEEEEvRT_RKT0_
FNDA:0,_ZN5moose8internal22rawValueEqualityHelperIN7libMesh11VectorValueIdEENS3_IN11MetaPhysicL10DualNumberIdNS5_28SemiDynamicSparseNumberArrayIdmNS5_8NWrapperILm53EEEEELb1EEEEEEEvRT_RKT0_
FN:247,_ZN20MaterialPropertyBaseI18RankTwoTensorTemplIdELb1EE4typeB5cxx11Ev
FNDA:0,_ZN20MaterialPropertyBaseI18RankTwoTensorTemplIdELb1EE4typeB5cxx11Ev
FN:247,_ZN20MaterialPropertyBaseI18RankTwoTensorTemplIdELb0EE4typeB5cxx11Ev
FNDA:0,_ZN20MaterialPropertyBaseI18RankTwoTensorTemplIdELb0EE4typeB5cxx11Ev
FN:247,_ZN20MaterialPropertyBaseIN7libMesh11VectorValueIdEELb1EE4typeB5cxx11Ev
FNDA:0,_ZN20MaterialPropertyBaseIN7libMesh11VectorValueIdEELb1EE4typeB5cxx11Ev
FN:247,_ZN20MaterialPropertyBaseIdLb1EE4typeB5cxx11Ev
FNDA:0,_ZN20MaterialPropertyBaseIdLb1EE4typeB5cxx11Ev
FN:247,_ZN20MaterialPropertyBaseIdLb0EE4typeB5cxx11Ev
FNDA:0,_ZN20MaterialPropertyBaseIdLb0EE4typeB5cxx11Ev
FN:247,_ZN20MaterialPropertyBaseIN7libMesh11VectorValueIdEELb0EE4typeB5cxx11Ev
FNDA:0,_ZN20MaterialPropertyBaseIN7libMesh11VectorValueIdEELb0EE4typeB5cxx11Ev
FN:254,_ZN20MaterialPropertyBaseI18RankTwoTensorTemplIdELb1EE6resizeEi
FNDA:0,_ZN20MaterialPropertyBaseI18RankTwoTensorTemplIdELb1EE6resizeEi
FN:254,_ZN20MaterialPropertyBaseI18RankTwoTensorTemplIdELb0EE6resizeEi
FNDA:0,_ZN20MaterialPropertyBaseI18RankTwoTensorTemplIdELb0EE6resizeEi
FN:254,_ZN20MaterialPropertyBaseIdLb1EE6resizeEi
FNDA:0,_ZN20MaterialPropertyBaseIdLb1EE6resizeEi
FN:254,_ZN20MaterialPropertyBaseIN7libMesh11VectorValueIdEELb1EE6resizeEi
FNDA:0,_ZN20MaterialPropertyBaseIN7libMesh11VectorValueIdEELb1EE6resizeEi
FN:254,_ZN20MaterialPropertyBaseIN7libMesh11VectorValueIdEELb0EE6resizeEi
FNDA:0,_ZN20MaterialPropertyBaseIN7libMesh11VectorValueIdEELb0EE6resizeEi
FN:254,_ZN20MaterialPropertyBaseIdLb0EE6resizeEi
FNDA:0,_ZN20MaterialPropertyBaseIdLb0EE6resizeEi
FN:261,_ZN20MaterialPropertyBaseIdLb0EE6qpCopyEjP13PropertyValuej
FNDA:0,_ZN20MaterialPropertyBaseIdLb0EE6qpCopyEjP13PropertyValuej
FN:261,_ZN20MaterialPropertyBaseI18RankTwoTensorTemplIdELb0EE6qpCopyEjP13PropertyValuej
FNDA:0,_ZN20MaterialPropertyBaseI18RankTwoTensorTemplIdELb0EE6qpCopyEjP13PropertyValuej
FN:261,_ZN20MaterialPropertyBaseIN7libMesh11VectorValueIdEELb0EE6qpCopyEjP13PropertyValuej
FNDA:0,_ZN20MaterialPropertyBaseIN7libMesh11VectorValueIdEELb0EE6qpCopyEjP13PropertyValuej
FN:261,_ZN20MaterialPropertyBaseI18RankTwoTensorTemplIdELb1EE6qpCopyEjP13PropertyValuej
FNDA:0,_ZN20MaterialPropertyBaseI18RankTwoTensorTemplIdELb1EE6qpCopyEjP13PropertyValuej
FN:261,_ZN20MaterialPropertyBaseIdLb1EE6qpCopyEjP13PropertyValuej
FNDA:0,_ZN20MaterialPropertyBaseIdLb1EE6qpCopyEjP13PropertyValuej
FN:261,_ZN20MaterialPropertyBaseIN7libMesh11VectorValueIdEELb1EE6qpCopyEjP13PropertyValuej
FNDA:0,_ZN20MaterialPropertyBaseIN7libMesh11VectorValueIdEELb1EE6qpCopyEjP13PropertyValuej
FN:278,_ZN20MaterialPropertyBaseIdLb0EE5storeERSo
FNDA:0,_ZN20MaterialPropertyBaseIdLb0EE5storeERSo
FN:278,_ZN20MaterialPropertyBaseI18RankTwoTensorTemplIdELb0EE5storeERSo
FNDA:0,_ZN20MaterialPropertyBaseI18RankTwoTensorTemplIdELb0EE5storeERSo
FN:278,_ZN20MaterialPropertyBaseIN7libMesh11VectorValueIdEELb1EE5storeERSo
FNDA:0,_ZN20MaterialPropertyBaseIN7libMesh11VectorValueIdEELb1EE5storeERSo
FN:278,_ZN20MaterialPropertyBaseIdLb1EE5storeERSo
FNDA:0,_ZN20MaterialPropertyBaseIdLb1EE5storeERSo
FN:278,_ZN20MaterialPropertyBaseIN7libMesh11VectorValueIdEELb0EE5storeERSo
FNDA:0,_ZN20MaterialPropertyBaseIN7libMesh11VectorValueIdEELb0EE5storeERSo
FN:278,_ZN20MaterialPropertyBaseI18RankTwoTensorTemplIdELb1EE5storeERSo
FNDA:0,_ZN20MaterialPropertyBaseI18RankTwoTensorTemplIdELb1EE5storeERSo
FN:286,_ZN20MaterialPropertyBaseIN7libMesh11VectorValueIdEELb1EE4loadERSi
FNDA:0,_ZN20MaterialPropertyBaseIN7libMesh11VectorValueIdEELb1EE4loadERSi
FN:286,_ZN20MaterialPropertyBaseIdLb0EE4loadERSi
FNDA:0,_ZN20MaterialPropertyBaseIdLb0EE4loadERSi
FN:286,_ZN20MaterialPropertyBaseIN7libMesh11VectorValueIdEELb0EE4loadERSi
FNDA:0,_ZN20MaterialPropertyBaseIN7libMesh11VectorValueIdEELb0EE4loadERSi
FN:286,_ZN20MaterialPropertyBaseI18RankTwoTensorTemplIdELb1EE4loadERSi
FNDA:0,_ZN20MaterialPropertyBaseI18RankTwoTensorTemplIdELb1EE4loadERSi
FN:286,_ZN20MaterialPropertyBaseI18RankTwoTensorTemplIdELb0EE4loadERSi
FNDA:0,_ZN20MaterialPropertyBaseI18RankTwoTensorTemplIdELb0EE4loadERSi
FN:286,_ZN20MaterialPropertyBaseIdLb1EE4loadERSi
FNDA:0,_ZN20MaterialPropertyBaseIdLb1EE4loadERSi
FN:294,_ZN20MaterialPropertyBaseIdLb1EE4swapEP13PropertyValue
FNDA:0,_ZN20MaterialPropertyBaseIdLb1EE4swapEP13PropertyValue
FN:294,_ZN20MaterialPropertyBaseIdLb0EE4swapEP13PropertyValue
FNDA:0,_ZN20MaterialPropertyBaseIdLb0EE4swapEP13PropertyValue
FN:294,_ZN20MaterialPropertyBaseI18RankTwoTensorTemplIdELb0EE4swapEP13PropertyValue
FNDA:0,_ZN20MaterialPropertyBaseI18RankTwoTensorTemplIdELb0EE4swapEP13PropertyValue
FN:294,_ZN20MaterialPropertyBaseI18RankTwoTensorTemplIdELb1EE4swapEP13PropertyValue
FNDA:0,_ZN20MaterialPropertyBaseI18RankTwoTensorTemplIdELb1EE4swapEP13PropertyValue
FN:294,_ZN20MaterialPropertyBaseIN7libMesh11VectorValueIdEELb1EE4swapEP13PropertyValue
FNDA:0,_ZN20MaterialPropertyBaseIN7libMesh11VectorValueIdEELb1EE4swapEP13PropertyValue
FN:294,_ZN20MaterialPropertyBaseIN7libMesh11VectorValueIdEELb0EE4swapEP13PropertyValue
FNDA:0,_ZN20MaterialPropertyBaseIN7libMesh11VectorValueIdEELb0EE4swapEP13PropertyValue
FN:332,_ZN16MaterialPropertyI18RankTwoTensorTemplIdEE4initEi
FNDA:0,_ZN16MaterialPropertyI18RankTwoTensorTemplIdEE4initEi
FN:332,_ZN16MaterialPropertyIdE4initEi
FNDA:0,_ZN16MaterialPropertyIdE4initEi
FN:332,_ZN16MaterialPropertyIN7libMesh11VectorValueIdEEE4initEi
FNDA:0,_ZN16MaterialPropertyIN7libMesh11VectorValueIdEEE4initEi
FN:356,_ZN18ADMaterialPropertyI18RankTwoTensorTemplIdEE4initEi
FNDA:0,_ZN18ADMaterialPropertyI18RankTwoTensorTemplIdEE4initEi
FN:356,_ZN18ADMaterialPropertyIN7libMesh11VectorValueIdEEE4initEi
FNDA:0,_ZN18ADMaterialPropertyIN7libMesh11VectorValueIdEEE4initEi
FN:356,_ZN18ADMaterialPropertyIdE4initEi
FNDA:0,_ZN18ADMaterialPropertyIdE4initEi
FN:437,_Z12_init_helperI16MaterialProperty18RankTwoTensorTemplIdEEP13PropertyValueiPT_IT0_E
FNDA:0,_Z12_init_helperI16MaterialProperty18RankTwoTensorTemplIdEEP13PropertyValueiPT_IT0_E
FN:437,_Z12_init_helperI18ADMaterialPropertyN7libMesh11VectorValueIdEEEP13PropertyValueiPT_IT0_E
FNDA:0,_Z12_init_helperI18ADMaterialPropertyN7libMesh11VectorValueIdEEEP13PropertyValueiPT_IT0_E
FN:437,_Z12_init_helperI16MaterialPropertyN7libMesh11VectorValueIdEEEP13PropertyValueiPT_IT0_E
FNDA:0,_Z12_init_helperI16MaterialPropertyN7libMesh11VectorValueIdEEEP13PropertyValueiPT_IT0_E
FN:437,_Z12_init_helperI16MaterialPropertydEP13PropertyValueiPT_IT0_E
FNDA:0,_Z12_init_helperI16MaterialPropertydEP13PropertyValueiPT_IT0_E
FN:437,_Z12_init_helperI18ADMaterialProperty18RankTwoTensorTemplIdEEP13PropertyValueiPT_IT0_E
FNDA:0,_Z12_init_helperI18ADMaterialProperty18RankTwoTensorTemplIdEEP13PropertyValueiPT_IT0_E
FN:437,_Z12_init_helperI18ADMaterialPropertydEP13PropertyValueiPT_IT0_E
FNDA:0,_Z12_init_helperI18ADMaterialPropertydEP13PropertyValueiPT_IT0_E
FNF:76
FNH:0
DA:109,0
DA:113,0
DA:113,0
DA:113,0
DA:113,0
DA:113,0
DA:113,0
DA:113,0
DA:113,0
DA:113,0
DA:113,0
DA:113,0
DA:113,0
DA:115,0
DA:115,0
DA:115,0
DA:115,0
DA:115,0
DA:115,0
DA:137,0
DA:137,0
DA:137,0
DA:137,0
DA:137,0
DA:137,0
DA:175,2667
DA:221,0
DA:223,0
DA:224,0
DA:221,0
DA:223,0
DA:224,0
DA:221,0
DA:223,0
DA:224,0
DA:221,0
DA:223,0
DA:224,0
DA:223,0
DA:224,0
DA:247,0
DA:249,0
DA:247,0
DA:249,0
DA:247,0
DA:249,0
DA:247,0
DA:249,0
DA:247,0
DA:249,0
DA:247,0
DA:249,0
DA:254,0
DA:256,0
DA:257,0
DA:254,0
DA:256,0
DA:257,0
DA:254,0
DA:256,0
DA:257,0
DA:254,0
DA:256,0
DA:257,0
DA:254,0
DA:256,0
DA:257,0
DA:254,0
DA:256,0
DA:257,0
DA:261,0
DA:268,0
DA:274,0
DA:261,0
DA:268,0
DA:272,0
DA:274,0
DA:261,0
DA:268,0
DA:269,0
DA:274,0
DA:261,0
DA:268,0
DA:272,0
DA:274,0
DA:261,0
DA:268,0
DA:272,0
DA:274,0
DA:261,0
DA:268,0
DA:272,0
DA:274,0
DA:278,0
DA:280,0
DA:282,0
DA:278,0
DA:280,0
DA:282,0
DA:278,0
DA:280,0
DA:282,0
DA:278,0
DA:280,0
DA:282,0
DA:278,0
DA:280,0
DA:282,0
DA:278,0
DA:280,0
DA:282,0
DA:286,0
DA:288,0
DA:290,0
DA:286,0
DA:288,0
DA:290,0
DA:286,0
DA:288,0
DA:290,0
DA:286,0
DA:288,0
DA:290,0
DA:286,0
DA:288,0
DA:290,0
DA:286,0
DA:288,0
DA:290,0
DA:294,0
DA:299,0
DA:302,0
DA:317,0
DA:321,0
DA:322,0
DA:294,0
DA:299,0
DA:302,0
DA:317,0
DA:321,0
DA:322,0
DA:323,0
DA:294,0
DA:299,0
DA:302,0
DA:317,0
DA:321,0
DA:322,0
DA:294,0
DA:299,0
DA:302,0
DA:317,0
DA:321,0
DA:322,0
DA:323,0
DA:294,0
DA:299,0
DA:302,0
DA:317,0
DA:321,0
DA:322,0
DA:323,0
DA:294,0
DA:299,0
DA:302,0
DA:317,0
DA:321,0
DA:322,0
DA:323,0
DA:330,0
DA:332,0
DA:332,0
DA:332,0
DA:352,0
DA:356,0
DA:356,0
DA:356,0
DA:437,0
DA:441,0
DA:442,0
DA:443,0
DA:437,0
DA:441,0
DA:442,0
DA:443,0
DA:437,0
DA:441,0
DA:442,0
DA:443,0
DA:437,0
DA:441,0
DA:442,0
DA:443,0
DA:437,0
DA:441,0
DA:442,0
DA:443,0
DA:437,0
DA:441,0
DA:442,0
DA:443,0
LF:201
LH:1
end_of_record
SF:/usr/share/miniconda/envs/moose/x86_64-conda-linux-gnu/include/c++/10.3.0/bits/charconv.h
FN:47,_ZNSt8__detail14__to_chars_lenImEEjT_i
FNDA:0,_ZNSt8__detail14__to_chars_lenImEEjT_i
FN:72,_ZNSt8__detail18__to_chars_10_implImEEvPcjT_
FNDA:0,_ZNSt8__detail18__to_chars_10_implImEEvPcjT_
FNF:2
FNH:0
DA:47,0
DA:53,0
DA:54,0
DA:55,0
DA:58,0
DA:59,0
DA:60,0
DA:61,0
DA:62,0
DA:63,0
DA:72,0
DA:83,0
DA:84,0
DA:86,0
DA:87,0
DA:88,0
DA:89,0
DA:90,0
DA:92,0
DA:94,0
DA:95,0
DA:96,0
DA:99,0
DA:100,0
LF:24
LH:0
end_of_record
SF:/home/runner/work/raccoon/raccoon/moose/framework/build/header_symlinks/MooseArray.h
FN:213,_ZN10MooseArrayIN11MetaPhysicL10DualNumberIdNS0_28SemiDynamicSparseNumberArrayIdmNS0_8NWrapperILm53EEEEELb1EEEE6resizeILb1EEEvj
FNDA:0,_ZN10MooseArrayIN11MetaPhysicL10DualNumberIdNS0_28SemiDynamicSparseNumberArrayIdmNS0_8NWrapperILm53EEEEELb1EEEE6resizeILb1EEEvj
FN:213,_ZN10MooseArrayI18RankTwoTensorTemplIN11MetaPhysicL10DualNumberIdNS1_28SemiDynamicSparseNumberArrayIdmNS1_8NWrapperILm53EEEEELb1EEEEE6resizeILb1EEEvj
FNDA:0,_ZN10MooseArrayI18RankTwoTensorTemplIN11MetaPhysicL10DualNumberIdNS1_28SemiDynamicSparseNumberArrayIdmNS1_8NWrapperILm53EEEEELb1EEEEE6resizeILb1EEEvj
FN:213,_ZN10MooseArrayIdE6resizeILb1EEEvj
FNDA:0,_ZN10MooseArrayIdE6resizeILb1EEEvj
FN:213,_ZN10MooseArrayIN7libMesh11VectorValueIdEEE6resizeILb1EEEvj
FNDA:0,_ZN10MooseArrayIN7libMesh11VectorValueIdEEE6resizeILb1EEEvj
FN:213,_ZN10MooseArrayIN7libMesh11VectorValueIN11MetaPhysicL10DualNumberIdNS2_28SemiDynamicSparseNumberArrayIdmNS2_8NWrapperILm53EEEEELb1EEEEEE6resizeILb1EEEvj
FNDA:0,_ZN10MooseArrayIN7libMesh11VectorValueIN11MetaPhysicL10DualNumberIdNS2_28SemiDynamicSparseNumberArrayIdmNS2_8NWrapperILm53EEEEELb1EEEEEE6resizeILb1EEEvj
FN:213,_ZN10MooseArrayI18RankTwoTensorTemplIdEE6resizeILb1EEEvj
FNDA:0,_ZN10MooseArrayI18RankTwoTensorTemplIdEE6resizeILb1EEEvj
FNF:6
FNH:0
DA:25,0
DA:55,0
DA:213,0
DA:215,0
DA:216,0
DA:220,0
DA:225,0
DA:226,0
DA:227,0
DA:229,0
DA:213,0
DA:215,0
DA:216,0
DA:220,0
DA:225,0
DA:226,0
DA:227,0
DA:229,0
DA:213,0
DA:215,0
DA:216,0
DA:220,0
DA:225,0
DA:226,0
DA:227,0
DA:229,0
DA:213,0
DA:215,0
DA:216,0
DA:220,0
DA:225,0
DA:226,0
DA:227,0
DA:229,0
DA:213,0
DA:215,0
DA:216,0
DA:220,0
DA:225,0
DA:226,0
DA:227,0
DA:229,0
DA:213,0
DA:215,0
DA:216,0
DA:220,0
DA:225,0
DA:226,0
DA:227,0
DA:229,0
DA:259,0
DA:269,1981330
DA:279,3916180
LF:53
LH:2
end_of_record
SF:/home/runner/work/raccoon/raccoon/moose/framework/build/header_symlinks/MeshChangedInterface.h
FN:34,_ZN20MeshChangedInterface11meshChangedEv
FNDA:0,_ZN20MeshChangedInterface11meshChangedEv
FNF:1
FNH:0
DA:34,0
LF:1
LH:0
end_of_record
SF:/usr/share/miniconda/envs/moose/x86_64-conda-linux-gnu/include/c++/10.3.0/sstream
DA:678,0
DA:832,0
LF:2
LH:0
end_of_record
SF:/usr/share/miniconda/envs/moose/libmesh/include/metaphysicl/semidynamicsparsenumberarray_decl.h
DA:34,1263360
DA:56,0
DA:58,10633600
DA:60,0
DA:62,0
LF:5
LH:2
end_of_record
SF:/usr/share/miniconda/envs/moose/libmesh/include/Eigen/src/Core/util/Memory.h
DA:177,0
DA:235,0
LF:2
LH:0
end_of_record
SF:/home/runner/work/raccoon/raccoon/build/header_symlinks/ThinFilmInterfaceEnergyDensity.h
LF:0
LH:0
end_of_record
SF:/usr/share/miniconda/envs/moose/x86_64-conda-linux-gnu/include/c++/10.3.0/bits/stl_uninitialized.h
FN:84,_ZNSt20__uninitialized_copyILb0EE13__uninit_copyIPKSt4pairIbN11MetaPhysicL10DualNumberIdNS3_28SemiDynamicSparseNumberArrayIdmNS3_8NWrapperILm53EEEEELb1EEEEPSA_EET0_T_SF_SE_
FNDA:0,_ZNSt20__uninitialized_copyILb0EE13__uninit_copyIPKSt4pairIbN11MetaPhysicL10DualNumberIdNS3_28SemiDynamicSparseNumberArrayIdmNS3_8NWrapperILm53EEEEELb1EEEEPSA_EET0_T_SF_SE_
FN:84,_ZNSt20__uninitialized_copyILb0EE13__uninit_copyISt13move_iteratorIPSt4pairIbN11MetaPhysicL10DualNumberIdNS4_28SemiDynamicSparseNumberArrayIdmNS4_8NWrapperILm53EEEEELb1EEEEESC_EET0_T_SF_SE_
FNDA:0,_ZNSt20__uninitialized_copyILb0EE13__uninit_copyISt13move_iteratorIPSt4pairIbN11MetaPhysicL10DualNumberIdNS4_28SemiDynamicSparseNumberArrayIdmNS4_8NWrapperILm53EEEEELb1EEEEESC_EET0_T_SF_SE_
FN:84,_ZNSt20__uninitialized_copyILb0EE13__uninit_copyIN9__gnu_cxx17__normal_iteratorIPK12FunctionNameSt6vectorIS4_SaIS4_EEEEPS4_EET0_T_SD_SC_
FNDA:7,_ZNSt20__uninitialized_copyILb0EE13__uninit_copyIN9__gnu_cxx17__normal_iteratorIPK12FunctionNameSt6vectorIS4_SaIS4_EEEEPS4_EET0_T_SD_SC_
FN:84,_ZNSt20__uninitialized_copyILb0EE13__uninit_copyIP12FunctionNameS3_EET0_T_S5_S4_
FNDA:0,_ZNSt20__uninitialized_copyILb0EE13__uninit_copyIP12FunctionNameS3_EET0_T_S5_S4_
FN:84,_ZNSt20__uninitialized_copyILb0EE13__uninit_copyIPKNSt7__cxx1112basic_stringIcSt11char_traitsIcESaIcEEEPS7_EET0_T_SC_SB_
FNDA:0,_ZNSt20__uninitialized_copyILb0EE13__uninit_copyIPKNSt7__cxx1112basic_stringIcSt11char_traitsIcESaIcEEEPS7_EET0_T_SC_SB_
FN:229,_ZNSt22__uninitialized_fill_nILb0EE15__uninit_fill_nIPSt4pairIbN11MetaPhysicL10DualNumberIdNS3_28SemiDynamicSparseNumberArrayIdmNS3_8NWrapperILm53EEEEELb1EEEEmSA_EET_SC_T0_RKT1_
FNDA:0,_ZNSt22__uninitialized_fill_nILb0EE15__uninit_fill_nIPSt4pairIbN11MetaPhysicL10DualNumberIdNS3_28SemiDynamicSparseNumberArrayIdmNS3_8NWrapperILm53EEEEELb1EEEEmSA_EET_SC_T0_RKT1_
FN:323,_ZSt22__uninitialized_copy_aIN9__gnu_cxx17__normal_iteratorIPK12FunctionNameSt6vectorIS2_SaIS2_EEEEPS2_S2_ET0_T_SB_SA_RSaIT1_E
FNDA:7,_ZSt22__uninitialized_copy_aIN9__gnu_cxx17__normal_iteratorIPK12FunctionNameSt6vectorIS2_SaIS2_EEEEPS2_S2_ET0_T_SB_SA_RSaIT1_E
FN:1000,_ZSt14__relocate_a_1IPSt6vectorISt4pairIbdESaIS2_EES5_SaIS4_EET0_T_S8_S7_RT1_
FNDA:0,_ZSt14__relocate_a_1IPSt6vectorISt4pairIbdESaIS2_EES5_SaIS4_EET0_T_S8_S7_RT1_
FN:1000,_ZSt14__relocate_a_1IPSt6vectorISt4pairIbN11MetaPhysicL10DualNumberIdNS2_28SemiDynamicSparseNumberArrayIdmNS2_8NWrapperILm53EEEEELb1EEEESaIS9_EESC_SaISB_EET0_T_SF_SE_RT1_
FNDA:0,_ZSt14__relocate_a_1IPSt6vectorISt4pairIbN11MetaPhysicL10DualNumberIdNS2_28SemiDynamicSparseNumberArrayIdmNS2_8NWrapperILm53EEEEELb1EEEESaIS9_EESC_SaISB_EET0_T_SF_SE_RT1_
FNF:9
FNH:2
DA:84,0
DA:90,0
DA:92,0
DA:84,0
DA:90,0
DA:92,0
DA:84,7
DA:90,28
DA:92,7
DA:94,0
DA:97,0
DA:84,0
DA:90,0
DA:92,0
DA:94,0
DA:97,0
DA:84,0
DA:90,0
DA:92,0
DA:94,0
DA:97,0
DA:90,0
DA:150,0
DA:229,0
DA:235,0
DA:237,0
DA:289,0
DA:323,7
DA:325,0
DA:566,1600000
DA:991,3
DA:992,3
DA:993,0
DA:1000,0
DA:1013,0
DA:1016,0
DA:1000,0
DA:1013,0
DA:1016,0
DA:1028,0
LF:40
LH:7
end_of_record
SF:/home/runner/work/raccoon/raccoon/moose/framework/build/header_symlinks/MaterialPropertyInterface.h
FN:607,_ZN25MaterialPropertyInterface27getADMaterialPropertyByNameI18RankTwoTensorTemplIdEEERK18ADMaterialPropertyIT_ERK20MaterialPropertyName
FNDA:0,_ZN25MaterialPropertyInterface27getADMaterialPropertyByNameI18RankTwoTensorTemplIdEEERK18ADMaterialPropertyIT_ERK20MaterialPropertyName
FN:607,_ZN25MaterialPropertyInterface27getADMaterialPropertyByNameIdEERK18ADMaterialPropertyIT_ERK20MaterialPropertyName
FNDA:0,_ZN25MaterialPropertyInterface27getADMaterialPropertyByNameIdEERK18ADMaterialPropertyIT_ERK20MaterialPropertyName
FNF:2
FNH:0
DA:305,203
DA:607,0
DA:609,0
DA:611,0
DA:612,0
DA:613,0
DA:616,0
DA:619,0
DA:621,0
DA:624,0
DA:626,0
DA:607,0
DA:609,0
DA:611,0
DA:612,0
DA:613,0
DA:616,0
DA:619,0
DA:621,0
DA:624,0
DA:626,0
LF:21
LH:1
end_of_record
SF:/usr/share/miniconda/envs/moose/libmesh/include/libmesh/tensor_value.h
DA:261,0
DA:262,0
DA:304,400000
DA:305,1200000
LF:4
LH:2
end_of_record
SF:/home/runner/work/raccoon/raccoon/moose/framework/build/header_symlinks/PostprocessorInterface.h
FN:141,_ZNK22PostprocessorInterface32addPostprocessorDependencyHelperERK17PostprocessorName
FNDA:0,_ZNK22PostprocessorInterface32addPostprocessorDependencyHelperERK17PostprocessorName
FNF:1
FNH:0
DA:141,0
LF:1
LH:0
end_of_record
SF:/home/runner/work/raccoon/raccoon/src/materials/ArrheniusLaw.C
FN:10,_ZN12ArrheniusLaw11validParamsEv
FNDA:173,_ZN12ArrheniusLaw11validParamsEv
FN:27,_ZN12ArrheniusLawC2ERK15InputParameters
FNDA:12,_ZN12ArrheniusLawC2ERK15InputParameters
FN:42,_ZN12ArrheniusLaw19computeQpPropertiesEv
FNDA:33336,_ZN12ArrheniusLaw19computeQpPropertiesEv
FNF:3
FNH:3
DA:10,173
DA:12,173
DA:13,173
DA:14,173
DA:18,346
DA:20,346
DA:21,346
DA:22,346
DA:24,173
DA:27,12
DA:31,24
DA:32,12
DA:34,48
DA:35,24
DA:36,12
DA:37,72
DA:39,12
DA:42,33336
DA:44,66672
DA:45,66672
DA:46,33336
LF:21
LH:21
end_of_record
SF:/home/runner/work/raccoon/raccoon/moose/framework/build/header_symlinks/VectorPostprocessorInterface.h
FN:311,_ZNK28VectorPostprocessorInterface38addVectorPostprocessorDependencyHelperERK23VectorPostprocessorName
FNDA:0,_ZNK28VectorPostprocessorInterface38addVectorPostprocessorDependencyHelperERK23VectorPostprocessorName
FNF:1
FNH:0
DA:311,0
DA:313,0
LF:2
LH:0
end_of_record
SF:/usr/share/miniconda/envs/moose/libmesh/include/metaphysicl/dynamic_std_array_wrapper.h
FN:54,_ZN11MetaPhysicL22DynamicStdArrayWrapperImNS_8NWrapperILm53EEEEC2ERKS3_
FNDA:0,_ZN11MetaPhysicL22DynamicStdArrayWrapperImNS_8NWrapperILm53EEEEC2ERKS3_
FN:54,_ZN11MetaPhysicL22DynamicStdArrayWrapperIdNS_8NWrapperILm53EEEEC2ERKS3_
FNDA:0,_ZN11MetaPhysicL22DynamicStdArrayWrapperIdNS_8NWrapperILm53EEEEC2ERKS3_
FN:71,_ZN11MetaPhysicL22DynamicStdArrayWrapperImNS_8NWrapperILm53EEEEaSERKS3_
FNDA:0,_ZN11MetaPhysicL22DynamicStdArrayWrapperImNS_8NWrapperILm53EEEEaSERKS3_
FN:71,_ZN11MetaPhysicL22DynamicStdArrayWrapperIdNS_8NWrapperILm53EEEEaSERKS3_
FNDA:0,_ZN11MetaPhysicL22DynamicStdArrayWrapperIdNS_8NWrapperILm53EEEEaSERKS3_
FN:122,_ZN11MetaPhysicL22DynamicStdArrayWrapperImNS_8NWrapperILm53EEEE6resizeEm
FNDA:0,_ZN11MetaPhysicL22DynamicStdArrayWrapperImNS_8NWrapperILm53EEEE6resizeEm
FN:122,_ZN11MetaPhysicL22DynamicStdArrayWrapperIdNS_8NWrapperILm53EEEE6resizeEm
FNDA:0,_ZN11MetaPhysicL22DynamicStdArrayWrapperIdNS_8NWrapperILm53EEEE6resizeEm
FNF:6
FNH:0
DA:54,0
DA:56,0
DA:58,0
DA:59,0
DA:54,0
DA:56,0
DA:58,0
DA:59,0
DA:62,0
DA:64,0
DA:67,0
DA:68,0
DA:71,0
DA:73,0
DA:75,0
DA:76,0
DA:71,0
DA:73,0
DA:75,0
DA:76,0
DA:82,21267200
DA:85,173745000
DA:86,152478000
DA:90,17722600
DA:99,21267200
DA:105,565599000
DA:120,3757620
DA:122,0
DA:124,0
DA:125,0
DA:126,0
DA:127,0
DA:122,0
DA:124,0
DA:125,0
DA:126,0
DA:127,0
DA:132,0
DA:138,0
DA:143,0
LF:40
LH:7
end_of_record
SF:/usr/share/miniconda/envs/moose/libmesh/include/libmesh/threads_pthread.h
FN:147,_ZN7libMesh7Threads10spin_mutexD2Ev
FNDA:0,_ZN7libMesh7Threads10spin_mutexD2Ev
FN:524,_ZN7libMesh7Threads6atomicIjEppEv
FNDA:2365,_ZN7libMesh7Threads6atomicIjEppEv
FN:538,_ZN7libMesh7Threads6atomicIjEmmEv
FNDA:3798,_ZN7libMesh7Threads6atomicIjEmmEv
FNF:3
FNH:2
DA:147,0
DA:149,6163
DA:150,6163
DA:524,2365
DA:527,2365
DA:528,2365
DA:538,3798
DA:541,3798
DA:542,3798
LF:9
LH:8
end_of_record
SF:/usr/share/miniconda/envs/moose/x86_64-conda-linux-gnu/include/c++/10.3.0/bits/vector.tcc
FN:198,_ZNSt6vectorI12FunctionNameSaIS0_EEaSERKS2_
FNDA:7,_ZNSt6vectorI12FunctionNameSaIS0_EEaSERKS2_
FN:509,_ZNSt6vectorISt4pairIbdESaIS1_EE14_M_fill_insertEN9__gnu_cxx17__normal_iteratorIPS1_S3_EEmRKS1_
FNDA:0,_ZNSt6vectorISt4pairIbdESaIS1_EE14_M_fill_insertEN9__gnu_cxx17__normal_iteratorIPS1_S3_EEmRKS1_
FN:509,_ZNSt6vectorISt4pairIbN11MetaPhysicL10DualNumberIdNS1_28SemiDynamicSparseNumberArrayIdmNS1_8NWrapperILm53EEEEELb1EEEESaIS8_EE14_M_fill_insertEN9__gnu_cxx17__normal_iteratorIPS8_SA_EEmRKS8_
FNDA:0,_ZNSt6vectorISt4pairIbN11MetaPhysicL10DualNumberIdNS1_28SemiDynamicSparseNumberArrayIdmNS1_8NWrapperILm53EEEEELb1EEEESaIS8_EE14_M_fill_insertEN9__gnu_cxx17__normal_iteratorIPS8_SA_EEmRKS8_
FN:509,_ZNSt6vectorIP13PropertyValueSaIS1_EE14_M_fill_insertEN9__gnu_cxx17__normal_iteratorIPS1_S3_EEmRKS1_
FNDA:0,_ZNSt6vectorIP13PropertyValueSaIS1_EE14_M_fill_insertEN9__gnu_cxx17__normal_iteratorIPS1_S3_EEmRKS1_
FN:611,_ZNSt6vectorIS_ISt4pairIbdESaIS1_EESaIS3_EE17_M_default_appendEm
FNDA:0,_ZNSt6vectorIS_ISt4pairIbdESaIS1_EESaIS3_EE17_M_default_appendEm
FN:611,_ZNSt6vectorIS_ISt4pairIbN11MetaPhysicL10DualNumberIdNS1_28SemiDynamicSparseNumberArrayIdmNS1_8NWrapperILm53EEEEELb1EEEESaIS8_EESaISA_EE17_M_default_appendEm
FNDA:0,_ZNSt6vectorIS_ISt4pairIbN11MetaPhysicL10DualNumberIdNS1_28SemiDynamicSparseNumberArrayIdmNS1_8NWrapperILm53EEEEELb1EEEESaIS8_EESaISA_EE17_M_default_appendEm
FN:611,_ZNSt6vectorIPK8FunctionSaIS2_EE17_M_default_appendEm
FNDA:3,_ZNSt6vectorIPK8FunctionSaIS2_EE17_M_default_appendEm
FNF:7
FNH:2
DA:198,7
DA:201,7
DA:224,7
DA:226,7
DA:228,7
DA:231,7
DA:232,7
DA:233,7
DA:234,7
DA:236,0
DA:243,0
DA:245,0
DA:246,0
DA:250,7
DA:252,7
DA:509,0
DA:512,0
DA:514,0
DA:515,0
DA:523,0
DA:525,0
DA:528,0
DA:532,0
DA:534,0
DA:536,0
DA:543,0
DA:551,0
DA:559,0
DA:566,0
DA:573,0
DA:576,0
DA:580,0
DA:599,0
DA:600,0
DA:601,0
DA:602,0
DA:603,0
DA:606,0
DA:509,0
DA:512,0
DA:514,0
DA:515,0
DA:523,0
DA:525,0
DA:528,0
DA:532,0
DA:536,0
DA:542,0
DA:543,0
DA:551,0
DA:559,0
DA:566,0
DA:573,0
DA:576,0
DA:580,0
DA:595,0
DA:599,0
DA:600,0
DA:601,0
DA:602,0
DA:603,0
DA:606,0
DA:509,0
DA:512,0
DA:514,0
DA:515,0
DA:523,0
DA:525,0
DA:528,0
DA:532,0
DA:536,0
DA:542,0
DA:543,0
DA:551,0
DA:559,0
DA:566,0
DA:573,0
DA:576,0
DA:580,0
DA:599,0
DA:600,0
DA:601,0
DA:602,0
DA:603,0
DA:606,0
DA:611,0
DA:614,0
DA:617,0
DA:618,0
DA:620,0
DA:621,0
DA:623,0
DA:626,0
DA:634,0
DA:640,0
DA:648,0
DA:676,0
DA:677,0
DA:678,0
DA:679,0
DA:680,0
DA:683,0
DA:611,0
DA:614,0
DA:617,0
DA:618,0
DA:620,0
DA:621,0
DA:623,0
DA:626,0
DA:634,0
DA:640,0
DA:648,0
DA:676,0
DA:677,0
DA:678,0
DA:679,0
DA:680,0
DA:683,0
DA:611,3
DA:614,3
DA:617,3
DA:618,3
DA:620,3
DA:621,0
DA:623,3
DA:626,0
DA:634,3
DA:640,3
DA:648,3
DA:676,3
DA:677,3
DA:678,3
DA:679,3
DA:680,3
DA:683,3
LF:136
LH:26
end_of_record
SF:/usr/share/miniconda/envs/moose/x86_64-conda-linux-gnu/include/c++/10.3.0/array
DA:235,21267200
DA:239,74892000
LF:2
LH:2
end_of_record
SF:/usr/share/miniconda/envs/moose/libmesh/include/libmesh/parameters.h
FN:132,_ZN7libMesh10Parameters14set_attributesERKNSt7__cxx1112basic_stringIcSt11char_traitsIcESaIcEEEb
FNDA:0,_ZN7libMesh10Parameters14set_attributesERKNSt7__cxx1112basic_stringIcSt11char_traitsIcESaIcEEEb
FN:285,_ZNK7libMesh10Parameters9ParameterIP13FEProblemBaseE4typeB5cxx11Ev
FNDA:0,_ZNK7libMesh10Parameters9ParameterIP13FEProblemBaseE4typeB5cxx11Ev
FN:285,_ZNK7libMesh10Parameters9ParameterISt6vectorI12FunctionNameSaIS3_EEE4typeB5cxx11Ev
FNDA:147,_ZNK7libMesh10Parameters9ParameterISt6vectorI12FunctionNameSaIS3_EEE4typeB5cxx11Ev
FN:285,_ZNK7libMesh10Parameters9ParameterIdE4typeB5cxx11Ev
FNDA:0,_ZNK7libMesh10Parameters9ParameterIdE4typeB5cxx11Ev
FN:285,_ZNK7libMesh10Parameters9ParameterI20MaterialPropertyNameE4typeB5cxx11Ev
FNDA:0,_ZNK7libMesh10Parameters9ParameterI20MaterialPropertyNameE4typeB5cxx11Ev
FN:293,_ZNK7libMesh10Parameters9ParameterIP13FEProblemBaseE5printERSo
FNDA:0,_ZNK7libMesh10Parameters9ParameterIP13FEProblemBaseE5printERSo
FN:293,_ZNK7libMesh10Parameters9ParameterIdE5printERSo
FNDA:0,_ZNK7libMesh10Parameters9ParameterIdE5printERSo
FN:293,_ZNK7libMesh10Parameters9ParameterISt6vectorI12FunctionNameSaIS3_EEE5printERSo
FNDA:1,_ZNK7libMesh10Parameters9ParameterISt6vectorI12FunctionNameSaIS3_EEE5printERSo
FN:293,_ZNK7libMesh10Parameters9ParameterI20MaterialPropertyNameE5printERSo
FNDA:0,_ZNK7libMesh10Parameters9ParameterI20MaterialPropertyNameE5printERSo
FN:301,_ZNK7libMesh10Parameters9ParameterIP13FEProblemBaseE5cloneEv
FNDA:0,_ZNK7libMesh10Parameters9ParameterIP13FEProblemBaseE5cloneEv
FN:301,_ZNK7libMesh10Parameters9ParameterI20MaterialPropertyNameE5cloneEv
FNDA:0,_ZNK7libMesh10Parameters9ParameterI20MaterialPropertyNameE5cloneEv
FN:301,_ZNK7libMesh10Parameters9ParameterIdE5cloneEv
FNDA:0,_ZNK7libMesh10Parameters9ParameterIdE5cloneEv
FN:301,_ZNK7libMesh10Parameters9ParameterISt6vectorI12FunctionNameSaIS3_EEE5cloneEv
FNDA:6,_ZNK7libMesh10Parameters9ParameterISt6vectorI12FunctionNameSaIS3_EEE5cloneEv
FN:316,_ZN7libMesh10Parameters5clearEv
FNDA:0,_ZN7libMesh10Parameters5clearEv
FN:332,_ZN7libMesh10ParametersaSERKS0_
FNDA:0,_ZN7libMesh10ParametersaSERKS0_
FN:341,_ZN7libMesh10ParameterspLERKS0_
FNDA:0,_ZN7libMesh10ParameterspLERKS0_
FN:362,_ZN7libMesh10ParametersD2Ev
FNDA:0,_ZN7libMesh10ParametersD2Ev
FN:362,_ZN7libMesh10ParametersD0Ev
FNDA:0,_ZN7libMesh10ParametersD0Ev
FN:370,_ZNK7libMesh10Parameters5printERSo
FNDA:0,_ZNK7libMesh10Parameters5printERSo
FN:405,_ZNK7libMesh10Parameters14have_parameterISt6vectorI12FunctionNameSaIS3_EEEEbSt17basic_string_viewIcSt11char_traitsIcEE
FNDA:2362,_ZNK7libMesh10Parameters14have_parameterISt6vectorI12FunctionNameSaIS3_EEEEbSt17basic_string_viewIcSt11char_traitsIcEE
FN:405,_ZNK7libMesh10Parameters14have_parameterIdEEbSt17basic_string_viewIcSt11char_traitsIcEE
FNDA:0,_ZNK7libMesh10Parameters14have_parameterIdEEbSt17basic_string_viewIcSt11char_traitsIcEE
FN:405,_ZNK7libMesh10Parameters14have_parameterI20MaterialPropertyNameEEbSt17basic_string_viewIcSt11char_traitsIcEE
FNDA:2667,_ZNK7libMesh10Parameters14have_parameterI20MaterialPropertyNameEEbSt17basic_string_viewIcSt11char_traitsIcEE
FN:424,_ZNK7libMesh10Parameters3getI20MaterialPropertyNameEERKT_St17basic_string_viewIcSt11char_traitsIcEE
FNDA:0,_ZNK7libMesh10Parameters3getI20MaterialPropertyNameEERKT_St17basic_string_viewIcSt11char_traitsIcEE
FN:424,_ZNK7libMesh10Parameters3getIdEERKT_St17basic_string_viewIcSt11char_traitsIcEE
FNDA:0,_ZNK7libMesh10Parameters3getIdEERKT_St17basic_string_viewIcSt11char_traitsIcEE
FN:424,_ZNK7libMesh10Parameters3getISt6vectorI12FunctionNameSaIS3_EEEERKT_St17basic_string_viewIcSt11char_traitsIcEE
FNDA:3,_ZNK7libMesh10Parameters3getISt6vectorI12FunctionNameSaIS3_EEEERKT_St17basic_string_viewIcSt11char_traitsIcEE
FN:452,_ZN7libMesh10Parameters6insertIdEEvRKNSt7__cxx1112basic_stringIcSt11char_traitsIcESaIcEEE
FNDA:0,_ZN7libMesh10Parameters6insertIdEEvRKNSt7__cxx1112basic_stringIcSt11char_traitsIcESaIcEEE
FN:452,_ZN7libMesh10Parameters6insertI20MaterialPropertyNameEEvRKNSt7__cxx1112basic_stringIcSt11char_traitsIcESaIcEEE
FNDA:0,_ZN7libMesh10Parameters6insertI20MaterialPropertyNameEEvRKNSt7__cxx1112basic_stringIcSt11char_traitsIcESaIcEEE
FN:452,_ZN7libMesh10Parameters6insertISt6vectorI12FunctionNameSaIS3_EEEEvRKNSt7__cxx1112basic_stringIcSt11char_traitsIcESaIcEEE
FNDA:2359,_ZN7libMesh10Parameters6insertISt6vectorI12FunctionNameSaIS3_EEEEvRKNSt7__cxx1112basic_stringIcSt11char_traitsIcESaIcEEE
FN:463,_ZN7libMesh10Parameters3setI20MaterialPropertyNameEERT_RKNSt7__cxx1112basic_stringIcSt11char_traitsIcESaIcEEE
FNDA:0,_ZN7libMesh10Parameters3setI20MaterialPropertyNameEERT_RKNSt7__cxx1112basic_stringIcSt11char_traitsIcESaIcEEE
FN:556,_ZN7libMesh12print_helperI12FunctionNameEEvRSoPKSt6vectorIT_SaIS4_EE
FNDA:1,_ZN7libMesh12print_helperI12FunctionNameEEvRSoPKSt6vectorIT_SaIS4_EE
FNF:30
FNH:8
DA:132,0
DA:200,2365
DA:207,3
DA:212,0
DA:285,0
DA:287,0
DA:285,0
DA:287,0
DA:285,0
DA:287,0
DA:285,147
DA:287,147
DA:293,0
DA:297,0
DA:293,0
DA:297,0
DA:293,0
DA:297,0
DA:293,1
DA:296,1
DA:297,1
DA:301,0
DA:303,0
DA:307,0
DA:309,0
DA:301,0
DA:303,0
DA:307,0
DA:309,0
DA:301,0
DA:303,0
DA:309,0
DA:301,6
DA:303,6
DA:307,6
DA:309,6
DA:316,0
DA:318,0
DA:322,0
DA:323,0
DA:325,0
DA:327,0
DA:332,0
DA:334,0
DA:335,0
DA:337,0
DA:341,0
DA:343,0
DA:345,0
DA:346,0
DA:347,0
DA:350,0
DA:362,0
DA:365,0
DA:362,0
DA:364,0
DA:365,0
DA:370,0
DA:375,0
DA:376,0
DA:380,0
DA:382,0
DA:383,0
DA:387,0
DA:397,0
DA:398,0
DA:405,2362
DA:409,2362
DA:411,3
DA:415,3
DA:405,0
DA:409,0
DA:411,0
DA:415,0
DA:405,2667
DA:409,2667
DA:411,0
DA:415,0
DA:424,3
DA:426,3
DA:428,0
DA:430,0
DA:432,0
DA:436,0
DA:439,0
DA:447,3
DA:424,0
DA:426,0
DA:428,0
DA:430,0
DA:432,0
DA:436,0
DA:439,0
DA:447,0
DA:424,0
DA:426,0
DA:428,0
DA:430,0
DA:432,0
DA:436,0
DA:439,0
DA:447,0
DA:452,2359
DA:454,2359
DA:455,4718
DA:457,2359
DA:458,2359
DA:452,0
DA:454,0
DA:455,0
DA:457,0
DA:458,0
DA:452,0
DA:454,0
DA:455,0
DA:457,0
DA:458,0
DA:463,0
DA:465,0
DA:466,0
DA:468,0
DA:470,0
DA:535,0
DA:556,1
DA:558,4
DA:559,3
DA:560,1
LF:127
LH:29
end_of_record
SF:/home/runner/work/raccoon/raccoon/moose/framework/build/header_symlinks/Material.h
FN:36,_ZNK8Material12getElementIDERKNSt7__cxx1112basic_stringIcSt11char_traitsIcESaIcEEEj
FNDA:0,_ZNK8Material12getElementIDERKNSt7__cxx1112basic_stringIcSt11char_traitsIcESaIcEEEj
FN:46,_ZNK8Material20getElementIDNeighborERKNSt7__cxx1112basic_stringIcSt11char_traitsIcESaIcEEEj
FNDA:0,_ZNK8Material20getElementIDNeighborERKNSt7__cxx1112basic_stringIcSt11char_traitsIcESaIcEEEj
FN:60,_ZNK8Material18getElementIDByNameERKNSt7__cxx1112basic_stringIcSt11char_traitsIcESaIcEEE
FNDA:0,_ZNK8Material18getElementIDByNameERKNSt7__cxx1112basic_stringIcSt11char_traitsIcESaIcEEE
FN:70,_ZNK8Material26getElementIDNeighborByNameERKNSt7__cxx1112basic_stringIcSt11char_traitsIcESaIcEEE
FNDA:0,_ZNK8Material26getElementIDNeighborByNameERKNSt7__cxx1112basic_stringIcSt11char_traitsIcESaIcEEE
FN:188,_ZNK8Material18isBoundaryMaterialEv
FNDA:0,_ZNK8Material18isBoundaryMaterialEv
FN:190,_ZNK8Material22getMatPropDependenciesEv
FNDA:203,_ZNK8Material22getMatPropDependenciesEv
FN:203,_ZNK8Material9ghostableEv
FNDA:0,_ZNK8Material9ghostableEv
FN:209,_ZNK8Material12materialDataEv
FNDA:0,_ZNK8Material12materialDataEv
FN:210,_ZN8Material12materialDataEv
FNDA:102413,_ZN8Material12materialDataEv
FN:212,_ZNK8Material5qRuleEv
FNDA:0,_ZNK8Material5qRuleEv
FN:263,_ZN8Material21getADMaterialPropertyI18RankTwoTensorTemplIdEEERK18ADMaterialPropertyIT_ERKNSt7__cxx1112basic_stringIcSt11char_traitsIcESaIcEEE
FNDA:99,_ZN8Material21getADMaterialPropertyI18RankTwoTensorTemplIdEEERK18ADMaterialPropertyIT_ERKNSt7__cxx1112basic_stringIcSt11char_traitsIcESaIcEEE
FN:263,_ZN8Material21getADMaterialPropertyIdEERK18ADMaterialPropertyIT_ERKNSt7__cxx1112basic_stringIcSt11char_traitsIcESaIcEEE
FNDA:1008,_ZN8Material21getADMaterialPropertyIdEERK18ADMaterialPropertyIT_ERKNSt7__cxx1112basic_stringIcSt11char_traitsIcESaIcEEE
FN:324,_ZN8Material27getADMaterialPropertyByNameI18RankTwoTensorTemplIdEEERK18ADMaterialPropertyIT_ERKNSt7__cxx1112basic_stringIcSt11char_traitsIcESaIcEEE
FNDA:99,_ZN8Material27getADMaterialPropertyByNameI18RankTwoTensorTemplIdEEERK18ADMaterialPropertyIT_ERKNSt7__cxx1112basic_stringIcSt11char_traitsIcESaIcEEE
FN:324,_ZN8Material27getADMaterialPropertyByNameIdEERK18ADMaterialPropertyIT_ERKNSt7__cxx1112basic_stringIcSt11char_traitsIcESaIcEEE
FNDA:1098,_ZN8Material27getADMaterialPropertyByNameIdEERK18ADMaterialPropertyIT_ERKNSt7__cxx1112basic_stringIcSt11char_traitsIcESaIcEEE
FNF:14
FNH:6
DA:36,0
DA:39,0
DA:40,0
DA:46,0
DA:49,0
DA:60,0
DA:62,0
DA:63,0
DA:70,0
DA:72,0
DA:188,0
DA:190,203
DA:192,203
DA:203,0
DA:209,0
DA:210,102413
DA:212,0
DA:263,99
DA:266,99
DA:273,99
DA:263,1008
DA:266,1008
DA:269,1008
DA:270,1008
DA:273,924
DA:324,99
DA:326,99
DA:329,99
DA:332,99
DA:333,99
DA:334,99
DA:335,198
DA:324,1098
DA:326,1098
DA:329,1098
DA:332,1098
DA:333,1098
DA:334,1098
DA:335,2196
LF:39
LH:25
end_of_record
SF:/home/runner/work/raccoon/raccoon/moose/framework/build/header_symlinks/MooseObjectName.h
FN:56,_ZN15MooseObjectNameD0Ev
FNDA:0,_ZN15MooseObjectNameD0Ev
FN:56,_ZN15MooseObjectNameD2Ev
FNDA:0,_ZN15MooseObjectNameD2Ev
FNF:2
FNH:0
DA:56,0
DA:56,0
LF:2
LH:0
end_of_record
SF:/usr/share/miniconda/envs/moose/x86_64-conda-linux-gnu/include/c++/10.3.0/bits/stl_algobase.h
FN:375,_ZNSt11__copy_moveILb0ELb0ESt26random_access_iterator_tagE8__copy_mIP12FunctionNameS4_EET0_T_S6_S5_
FNDA:0,_ZNSt11__copy_moveILb0ELb0ESt26random_access_iterator_tagE8__copy_mIP12FunctionNameS4_EET0_T_S6_S5_
FN:375,_ZNSt11__copy_moveILb0ELb0ESt26random_access_iterator_tagE8__copy_mIPK12FunctionNamePS3_EET0_T_S8_S7_
FNDA:0,_ZNSt11__copy_moveILb0ELb0ESt26random_access_iterator_tagE8__copy_mIPK12FunctionNamePS3_EET0_T_S8_S7_
FN:560,_ZSt4copyIPKmPmET0_T_S4_S3_
FNDA:0,_ZSt4copyIPKmPmET0_T_S4_S3_
FN:560,_ZSt4copyIPKdPdET0_T_S4_S3_
FNDA:0,_ZSt4copyIPKdPdET0_T_S4_S3_
FN:663,_ZNSt20__copy_move_backwardILb1ELb0ESt26random_access_iterator_tagE13__copy_move_bIPSt4pairIbN11MetaPhysicL10DualNumberIdNS4_28SemiDynamicSparseNumberArrayIdmNS4_8NWrapperILm53EEEEELb1EEEESC_EET0_T_SE_SD_
FNDA:0,_ZNSt20__copy_move_backwardILb1ELb0ESt26random_access_iterator_tagE13__copy_move_bIPSt4pairIbN11MetaPhysicL10DualNumberIdNS4_28SemiDynamicSparseNumberArrayIdmNS4_8NWrapperILm53EEEEELb1EEEESC_EET0_T_SE_SD_
FN:680,_ZNSt20__copy_move_backwardILb1ELb1ESt26random_access_iterator_tagE13__copy_move_bIP13PropertyValueEEPT_PKS5_S8_S6_
FNDA:0,_ZNSt20__copy_move_backwardILb1ELb1ESt26random_access_iterator_tagE13__copy_move_bIP13PropertyValueEEPT_PKS5_S8_S6_
FN:833,_ZSt13move_backwardIPSt4pairIbdES2_ET0_T_S4_S3_
FNDA:0,_ZSt13move_backwardIPSt4pairIbdES2_ET0_T_S4_S3_
FN:857,_ZSt9__fill_a1IPSt4pairIbN11MetaPhysicL10DualNumberIdNS1_28SemiDynamicSparseNumberArrayIdmNS1_8NWrapperILm53EEEEELb1EEEES8_EN9__gnu_cxx11__enable_ifIXntsrSt11__is_scalarIT0_E7__valueEvE6__typeET_SH_RKSD_
FNDA:0,_ZSt9__fill_a1IPSt4pairIbN11MetaPhysicL10DualNumberIdNS1_28SemiDynamicSparseNumberArrayIdmNS1_8NWrapperILm53EEEEELb1EEEES8_EN9__gnu_cxx11__enable_ifIXntsrSt11__is_scalarIT0_E7__valueEvE6__typeET_SH_RKSD_
FNF:8
FNH:0
DA:235,0
DA:236,0
DA:259,3
DA:260,3
DA:375,0
DA:378,0
DA:381,0
DA:382,0
DA:384,0
DA:375,0
DA:378,0
DA:381,0
DA:382,0
DA:384,0
DA:424,0
DA:425,0
DA:426,0
DA:427,0
DA:472,0
DA:560,0
DA:569,0
DA:560,0
DA:569,0
DA:663,0
DA:666,0
DA:667,0
DA:668,0
DA:669,0
DA:680,0
DA:689,0
DA:690,0
DA:691,0
DA:692,0
DA:709,0
DA:833,0
DA:845,0
DA:857,0
DA:860,0
DA:862,0
DA:871,0
DA:872,24
DA:873,18
DA:914,0
DA:945,0
DA:1060,3
DA:1065,6
LF:46
LH:6
end_of_record
SF:/usr/share/miniconda/envs/moose/libmesh/include/libmesh/elem.h
FN:564,_ZNK7libMesh4Elem9is_remoteEv
FNDA:0,_ZNK7libMesh4Elem9is_remoteEv
FN:622,_ZNK7libMesh4Elem16n_nodes_in_childEj
FNDA:0,_ZNK7libMesh4Elem16n_nodes_in_childEj
FN:708,_ZNK7libMesh4Elem18is_vertex_on_childEjj
FNDA:0,_ZNK7libMesh4Elem18is_vertex_on_childEjj
FN:906,_ZNK7libMesh4Elem18default_side_orderEv
FNDA:0,_ZNK7libMesh4Elem18default_side_orderEv
FN:950,_ZNK7libMesh4Elem17quasicircumcenterEv
FNDA:0,_ZNK7libMesh4Elem17quasicircumcenterEv
FN:994,_ZNK7libMesh4Elem11qual_boundsENS_11ElemQualityE
FNDA:0,_ZNK7libMesh4Elem11qual_boundsENS_11ElemQualityE
FN:1034,_ZNK7libMesh4Elem14has_affine_mapEv
FNDA:0,_ZNK7libMesh4Elem14has_affine_mapEv
FN:1050,_ZNK7libMesh4Elem9is_linearEv
FNDA:0,_ZNK7libMesh4Elem9is_linearEv
FN:1655,_ZNK7libMesh4Elem19local_singular_nodeERKNS_5PointEd
FNDA:0,_ZNK7libMesh4Elem19local_singular_nodeERKNS_5PointEd
FN:1662,_ZNK7libMesh4Elem16is_singular_nodeEj
FNDA:0,_ZNK7libMesh4Elem16is_singular_nodeEj
FN:1822,_ZNK7libMesh4Elem24embedding_matrix_versionEv
FNDA:0,_ZNK7libMesh4Elem24embedding_matrix_versionEv
FN:1969,_ZNK7libMesh4Elem26_get_bracketing_node_cacheEv
FNDA:0,_ZNK7libMesh4Elem26_get_bracketing_node_cacheEv
FN:1983,_ZNK7libMesh4Elem25_get_parent_indices_cacheEv
FNDA:0,_ZNK7libMesh4Elem25_get_parent_indices_cacheEv
FN:2321,_ZN7libMesh4Elem8set_nodeEj
FNDA:0,_ZN7libMesh4Elem8set_nodeEj
FNF:14
FNH:0
DA:564,0
DA:565,0
DA:622,0
DA:623,0
DA:708,0
DA:710,0
DA:906,0
DA:950,0
DA:951,0
DA:994,0
DA:995,0
DA:1034,0
DA:1050,0
DA:1655,0
DA:1656,0
DA:1662,0
DA:1822,0
DA:1969,0
DA:1971,0
DA:1972,0
DA:1983,0
DA:1985,0
DA:1986,0
DA:2321,0
DA:2325,0
LF:25
LH:0
end_of_record
SF:/usr/share/miniconda/envs/moose/libmesh/include/libmesh/dof_object.h
DA:787,0
LF:1
LH:0
end_of_record
SF:/home/runner/work/raccoon/raccoon/moose/framework/build/header_symlinks/MooseUtils.h
DA:346,41856
LF:1
LH:1
end_of_record
SF:/usr/share/miniconda/envs/moose/libmesh/include/Eigen/src/Core/Matrix.h
DA:178,0
LF:1
LH:0
end_of_record
SF:/usr/share/miniconda/envs/moose/libmesh/include/timpi/message_tag.h
LF:0
LH:0
end_of_record
SF:/usr/share/miniconda/envs/moose/libmesh/include/metaphysicl/raw_type.h
DA:73,41856
DA:88,0
LF:2
LH:1
end_of_record
SF:/usr/share/miniconda/envs/moose/x86_64-conda-linux-gnu/include/c++/10.3.0/bits/move.h
DA:197,0
DA:198,0
DA:199,0
LF:3
LH:0
end_of_record
SF:/usr/share/miniconda/envs/moose/x86_64-conda-linux-gnu/include/c++/10.3.0/ostream
DA:113,0
DA:221,0
DA:246,0
DA:518,0
LF:4
LH:0
end_of_record
SF:/home/runner/work/raccoon/raccoon/moose/framework/build/header_symlinks/OutputInterface.h
LF:0
LH:0
end_of_record
SF:/home/runner/work/raccoon/raccoon/moose/framework/build/header_symlinks/FunctorInterface.h
LF:0
LH:0
end_of_record
SF:/usr/share/miniconda/envs/moose/libmesh/include/libmesh/libmesh_exceptions.h
DA:42,0
DA:54,0
LF:2
LH:0
end_of_record
SF:/usr/share/miniconda/envs/moose/libmesh/include/libmesh/vector_value.h
DA:47,400000
DA:150,0
DA:151,0
DA:158,400000
DA:161,400000
DA:198,0
DA:199,0
DA:262,0
DA:263,0
LF:9
LH:3
end_of_record
SF:/usr/share/miniconda/envs/moose/x86_64-conda-linux-gnu/include/c++/10.3.0/bits/stl_iterator_base_funcs.h
DA:104,33389
LF:1
LH:1
end_of_record
SF:/usr/share/miniconda/envs/moose/libmesh/include/libmesh/reference_counter.h
DA:152,2365
LF:1
LH:1
end_of_record
SF:/usr/share/miniconda/envs/moose/x86_64-conda-linux-gnu/include/c++/10.3.0/initializer_list
DA:71,0
DA:79,0
LF:2
LH:0
end_of_record
SF:/home/runner/work/raccoon/raccoon/moose/framework/build/header_symlinks/DataIO.h
DA:171,0
DA:376,0
DA:377,0
DA:424,0
DA:454,0
DA:648,0
DA:649,0
DA:697,0
DA:726,0
DA:790,0
LF:10
LH:0
end_of_record
SF:/home/runner/work/raccoon/raccoon/build/header_symlinks/PressureDensity.h
LF:0
LH:0
end_of_record
TN:
SF:/usr/share/miniconda/envs/moose/x86_64-conda-linux-gnu/include/c++/10.3.0/bits/basic_string.h
FN:525,_ZNSt7__cxx1112basic_stringIcSt11char_traitsIcESaIcEEC2IS3_EEPKcRKS3_
FNDA:9856,_ZNSt7__cxx1112basic_stringIcSt11char_traitsIcESaIcEEC2IS3_EEPKcRKS3_
FN:1470,_ZNSt7__cxx1112basic_stringIcSt11char_traitsIcESaIcEE6assignIPcvEERS4_T_S8_
FNDA:0,_ZNSt7__cxx1112basic_stringIcSt11char_traitsIcESaIcEE6assignIPcvEERS4_T_S8_
FN:6032,_ZStplIcSt11char_traitsIcESaIcEENSt7__cxx1112basic_stringIT_T0_T1_EERKS8_SA_
FNDA:1385110,_ZStplIcSt11char_traitsIcESaIcEENSt7__cxx1112basic_stringIT_T0_T1_EERKS8_SA_
FN:6069,_ZStplIcSt11char_traitsIcESaIcEENSt7__cxx1112basic_stringIT_T0_T1_EERKS8_PKS5_
FNDA:0,_ZStplIcSt11char_traitsIcESaIcEENSt7__cxx1112basic_stringIT_T0_T1_EERKS8_PKS5_
FNF:4
FNH:2
DA:156,9856
DA:157,9856
DA:159,359886
DA:160,359886
DA:179,48254
DA:183,1857790
DA:187,20035900
DA:193,369742
DA:203,0
DA:211,48254
DA:217,1497900
DA:247,9856
DA:393,1488040
DA:398,9856
DA:431,359886
DA:525,9856
DA:527,9856
DA:552,0
DA:555,0
DA:563,0
DA:658,80411
DA:814,0
DA:902,126046
DA:908,0
DA:1193,1385110
DA:1366,360200
DA:1470,0
DA:1471,0
DA:6032,1385110
DA:6035,1385110
DA:6037,1385110
DA:6069,0
DA:6072,0
DA:6073,0
DA:6074,0
DA:6280,71731700
DA:6473,5217
LF:37
LH:25
end_of_record
SF:/usr/share/miniconda/envs/moose/x86_64-conda-linux-gnu/include/c++/10.3.0/bits/stl_set.h
FN:281,_ZNSt3setIsSt4lessIsESaIsEED2Ev
FNDA:481,_ZNSt3setIsSt4lessIsESaIsEED2Ev
FN:281,_ZNSt3setItSt4lessItESaItEED2Ev
FNDA:481,_ZNSt3setItSt4lessItESaItEED2Ev
FNF:2
FNH:2
DA:281,481
DA:281,481
DA:281,5101
LF:3
LH:3
end_of_record
SF:/usr/share/miniconda/envs/moose/x86_64-conda-linux-gnu/include/c++/10.3.0/bits/hashtable_policy.h
FN:2051,_ZNSt8__detail16_Hashtable_allocISaINS_10_Hash_nodeISt4pairIKNSt7__cxx1112basic_stringIcSt11char_traitsIcESaIcEEES8_ELb1EEEEE18_M_deallocate_nodeEPSB_
FNDA:0,_ZNSt8__detail16_Hashtable_allocISaINS_10_Hash_nodeISt4pairIKNSt7__cxx1112basic_stringIcSt11char_traitsIcESaIcEEES8_ELb1EEEEE18_M_deallocate_nodeEPSB_
FNF:1
FNH:0
DA:270,0
DA:2051,0
DA:2055,0
DA:2063,0
DA:2071,0
DA:2075,0
DA:2100,0
LF:7
LH:0
end_of_record
SF:/usr/share/miniconda/envs/moose/x86_64-conda-linux-gnu/include/c++/10.3.0/iostream
LF:0
LH:0
end_of_record
SF:/usr/share/miniconda/envs/moose/x86_64-conda-linux-gnu/include/c++/10.3.0/bits/stl_iterator.h
DA:976,42
DA:981,0
DA:985,0
DA:1002,0
DA:1003,0
DA:1202,0
LF:6
LH:1
end_of_record
SF:/usr/share/miniconda/envs/moose/x86_64-conda-linux-gnu/include/c++/10.3.0/bits/std_function.h
FN:242,_ZNSt14_Function_baseD2Ev
FNDA:0,_ZNSt14_Function_baseD2Ev
FNF:1
FNH:0
DA:242,0
DA:243,0
DA:244,0
DA:245,0
DA:246,0
DA:303,0
LF:6
LH:0
end_of_record
SF:/usr/share/miniconda/envs/moose/x86_64-conda-linux-gnu/include/c++/10.3.0/bits/char_traits.h
DA:329,359886
DA:346,15523800
DA:361,15523800
DA:371,9856
LF:4
LH:4
end_of_record
SF:/home/runner/work/raccoon/raccoon/moose/framework/build/header_symlinks/MooseTypes.h
DA:902,1274
LF:1
LH:1
end_of_record
SF:/usr/share/miniconda/envs/moose/x86_64-conda-linux-gnu/include/c++/10.3.0/bits/alloc_traits.h
FN:459,_ZNSt16allocator_traitsISaI20MaterialPropertyNameEE8allocateERS1_m
FNDA:0,_ZNSt16allocator_traitsISaI20MaterialPropertyNameEE8allocateERS1_m
FN:459,_ZNSt16allocator_traitsISaIdEE8allocateERS0_m
FNDA:259387,_ZNSt16allocator_traitsISaIdEE8allocateERS0_m
FNF:2
FNH:1
DA:459,0
DA:460,0
DA:459,259387
DA:460,259387
DA:492,44914
DA:512,50828
DA:516,50828
DA:535,0
LF:8
LH:5
end_of_record
SF:/usr/share/miniconda/envs/moose/x86_64-conda-linux-gnu/include/c++/10.3.0/bits/stl_vector.h
FN:333,_ZNSt12_Vector_baseISt5tupleIJNSt7__cxx1112basic_stringIcSt11char_traitsIcESaIcEEEN5Moose23RelationshipManagerTypeESt8functionIFvRK15InputParametersRSA_EEEESaISG_EED2Ev
FNDA:5101,_ZNSt12_Vector_baseISt5tupleIJNSt7__cxx1112basic_stringIcSt11char_traitsIcESaIcEEEN5Moose23RelationshipManagerTypeESt8functionIFvRK15InputParametersRSA_EEEESaISG_EED2Ev
FN:333,_ZNSt12_Vector_baseIdSaIdEED2Ev
FNDA:7736,_ZNSt12_Vector_baseIdSaIdEED2Ev
FN:333,_ZNSt12_Vector_baseI20MaterialPropertyNameSaIS0_EED2Ev
FNDA:0,_ZNSt12_Vector_baseI20MaterialPropertyNameSaIS0_EED2Ev
FN:333,_ZNSt12_Vector_baseINSt7__cxx1112basic_stringIcSt11char_traitsIcESaIcEEESaIS5_EED2Ev
FNDA:465535,_ZNSt12_Vector_baseINSt7__cxx1112basic_stringIcSt11char_traitsIcESaIcEEESaIS5_EED2Ev
FN:625,_ZNSt6vectorIdSaIdEEC2ESt16initializer_listIdERKS0_
FNDA:259387,_ZNSt6vectorIdSaIdEEC2ESt16initializer_listIdERKS0_
FN:678,_ZNSt6vectorISt5tupleIJNSt7__cxx1112basic_stringIcSt11char_traitsIcESaIcEEEN5Moose23RelationshipManagerTypeESt8functionIFvRK15InputParametersRSA_EEEESaISG_EED2Ev
FNDA:5101,_ZNSt6vectorISt5tupleIJNSt7__cxx1112basic_stringIcSt11char_traitsIcESaIcEEEN5Moose23RelationshipManagerTypeESt8functionIFvRK15InputParametersRSA_EEEESaISG_EED2Ev
FN:678,_ZNSt6vectorI20MaterialPropertyNameSaIS0_EED2Ev
FNDA:0,_ZNSt6vectorI20MaterialPropertyNameSaIS0_EED2Ev
FN:678,_ZNSt6vectorINSt7__cxx1112basic_stringIcSt11char_traitsIcESaIcEEESaIS5_EED2Ev
FNDA:465535,_ZNSt6vectorINSt7__cxx1112basic_stringIcSt11char_traitsIcESaIcEEESaIS5_EED2Ev
FN:1187,_ZNSt6vectorI20MaterialPropertyNameSaIS0_EE9push_backERKS0_
FNDA:0,_ZNSt6vectorI20MaterialPropertyNameSaIS0_EE9push_backERKS0_
FN:1577,_ZNSt6vectorIdSaIdEE19_M_range_initializeIPKdEEvT_S5_St20forward_iterator_tag
FNDA:259387,_ZNSt6vectorIdSaIdEE19_M_range_initializeIPKdEEvT_S5_St20forward_iterator_tag
FN:1756,_ZNKSt6vectorI20MaterialPropertyNameSaIS0_EE12_M_check_lenEmPKc
FNDA:0,_ZNKSt6vectorI20MaterialPropertyNameSaIS0_EE12_M_check_lenEmPKc
FNF:11
FNH:7
DA:97,259387
DA:98,42
DA:277,0
DA:333,5101
DA:336,5101
DA:337,5101
DA:333,7736
DA:336,7736
DA:337,7736
DA:333,0
DA:336,0
DA:337,0
DA:333,465535
DA:336,465535
DA:337,465535
DA:346,259387
DA:353,478372
DA:625,259387
DA:627,259387
DA:629,259387
DA:631,259387
DA:678,5101
DA:680,5101
DA:683,5101
DA:678,0
DA:680,0
DA:683,0
DA:678,465535
DA:680,465535
DA:683,465535
DA:919,0
DA:1187,0
DA:1189,0
DA:1194,0
DA:1198,0
DA:1199,0
DA:1577,259387
DA:1580,259387
DA:1582,259387
DA:1583,259387
DA:1584,259387
DA:1588,259387
DA:1756,0
DA:1758,0
DA:1759,0
DA:1761,0
DA:1762,0
DA:1769,259387
DA:1770,0
LF:49
LH:30
end_of_record
SF:/usr/share/miniconda/envs/moose/x86_64-conda-linux-gnu/include/c++/10.3.0/streambuf
LF:0
LH:0
end_of_record
SF:/usr/share/miniconda/envs/moose/x86_64-conda-linux-gnu/include/c++/10.3.0/ext/new_allocator.h
FN:148,_ZN9__gnu_cxx13new_allocatorISt13_Rb_tree_nodeISt4pairIKNSt7__cxx1112basic_stringIcSt11char_traitsIcESaIcEEEN15InputParameters8MetadataEEEE9constructISC_JRKSt21piecewise_construct_tSt5tupleIJRS9_EESJ_IJEEEEEvPT_DpOT0_
FNDA:50828,_ZN9__gnu_cxx13new_allocatorISt13_Rb_tree_nodeISt4pairIKNSt7__cxx1112basic_stringIcSt11char_traitsIcESaIcEEEN15InputParameters8MetadataEEEE9constructISC_JRKSt21piecewise_construct_tSt5tupleIJRS9_EESJ_IJEEEEEvPT_DpOT0_
FNF:1
FNH:1
DA:105,259387
DA:106,0
DA:115,361043
DA:133,60386
DA:148,50828
DA:150,50828
LF:6
LH:5
end_of_record
SF:/usr/share/miniconda/envs/moose/x86_64-conda-linux-gnu/include/c++/10.3.0/bits/stl_uninitialized.h
FN:968,_ZSt19__relocate_object_aI20MaterialPropertyNameS0_SaIS0_EEvPT_PT0_RT1_
FNDA:0,_ZSt19__relocate_object_aI20MaterialPropertyNameS0_SaIS0_EEvPT_PT0_RT1_
FNF:1
FNH:0
DA:968,0
DA:978,0
DA:1013,0
DA:1014,0
LF:4
LH:0
end_of_record
SF:/usr/share/miniconda/envs/moose/x86_64-conda-linux-gnu/include/c++/10.3.0/sstream
DA:678,0
DA:832,0
LF:2
LH:0
end_of_record
SF:/usr/share/miniconda/envs/moose/libmesh/include/libmesh/threads_pthread.h
FN:147,_ZN7libMesh7Threads10spin_mutexD2Ev
FNDA:0,_ZN7libMesh7Threads10spin_mutexD2Ev
FN:524,_ZN7libMesh7Threads6atomicIjEppEv
FNDA:359886,_ZN7libMesh7Threads6atomicIjEppEv
FN:538,_ZN7libMesh7Threads6atomicIjEmmEv
FNDA:1520110,_ZN7libMesh7Threads6atomicIjEmmEv
FNF:3
FNH:2
DA:147,0
DA:149,1880000
DA:150,1880000
DA:524,359886
DA:527,359886
DA:528,359886
DA:538,1520110
DA:541,1520110
DA:542,1520110
LF:9
LH:8
end_of_record
SF:/usr/share/miniconda/envs/moose/x86_64-conda-linux-gnu/include/c++/10.3.0/bits/vector.tcc
FN:426,_ZNSt6vectorI20MaterialPropertyNameSaIS0_EE17_M_realloc_insertIJRKS0_EEEvN9__gnu_cxx17__normal_iteratorIPS0_S2_EEDpOT_
FNDA:0,_ZNSt6vectorI20MaterialPropertyNameSaIS0_EE17_M_realloc_insertIJRKS0_EEEvN9__gnu_cxx17__normal_iteratorIPS0_S2_EEDpOT_
FNF:1
FNH:0
DA:426,0
DA:436,0
DA:437,0
DA:438,0
DA:449,0
DA:450,0
DA:464,0
DA:485,0
DA:487,0
DA:493,0
DA:501,0
DA:502,0
DA:503,0
DA:504,0
DA:505,0
LF:15
LH:0
end_of_record
SF:/usr/share/miniconda/envs/moose/libmesh/include/timpi/message_tag.h
LF:0
LH:0
end_of_record
SF:/usr/share/miniconda/envs/moose/x86_64-conda-linux-gnu/include/c++/10.3.0/bits/stl_algobase.h
DA:235,15523800
DA:236,5094490
DA:259,0
DA:260,0
DA:425,259387
DA:426,259387
LF:6
LH:4
end_of_record
SF:/usr/share/miniconda/envs/moose/libmesh/include/libmesh/parameters.h
FN:132,_ZN7libMesh10Parameters14set_attributesERKNSt7__cxx1112basic_stringIcSt11char_traitsIcESaIcEEEb
FNDA:0,_ZN7libMesh10Parameters14set_attributesERKNSt7__cxx1112basic_stringIcSt11char_traitsIcESaIcEEEb
FN:285,_ZNK7libMesh10Parameters9ParameterINSt7__cxx1112basic_stringIcSt11char_traitsIcESaIcEEEE4typeEv
FNDA:19672,_ZNK7libMesh10Parameters9ParameterINSt7__cxx1112basic_stringIcSt11char_traitsIcESaIcEEEE4typeEv
FN:293,_ZNK7libMesh10Parameters9ParameterINSt7__cxx1112basic_stringIcSt11char_traitsIcESaIcEEEE5printERSo
FNDA:5217,_ZNK7libMesh10Parameters9ParameterINSt7__cxx1112basic_stringIcSt11char_traitsIcESaIcEEEE5printERSo
FN:301,_ZNK7libMesh10Parameters9ParameterINSt7__cxx1112basic_stringIcSt11char_traitsIcESaIcEEEE5cloneEv
FNDA:309058,_ZNK7libMesh10Parameters9ParameterINSt7__cxx1112basic_stringIcSt11char_traitsIcESaIcEEEE5cloneEv
FN:316,_ZN7libMesh10Parameters5clearEv
FNDA:5101,_ZN7libMesh10Parameters5clearEv
FN:332,_ZN7libMesh10ParametersaSERKS0_
FNDA:0,_ZN7libMesh10ParametersaSERKS0_
FN:341,_ZN7libMesh10ParameterspLERKS0_
FNDA:0,_ZN7libMesh10ParameterspLERKS0_
FN:362,_ZN7libMesh10ParametersD0Ev
FNDA:0,_ZN7libMesh10ParametersD0Ev
FN:362,_ZN7libMesh10ParametersD2Ev
FNDA:5101,_ZN7libMesh10ParametersD2Ev
FN:370,_ZNK7libMesh10Parameters5printERSo
FNDA:0,_ZNK7libMesh10Parameters5printERSo
FN:405,_ZNK7libMesh10Parameters14have_parameterI20MaterialPropertyNameEEbSt17basic_string_viewIcSt11char_traitsIcEE
FNDA:989,_ZNK7libMesh10Parameters14have_parameterI20MaterialPropertyNameEEbSt17basic_string_viewIcSt11char_traitsIcEE
FN:405,_ZNK7libMesh10Parameters14have_parameterINSt7__cxx1112basic_stringIcSt11char_traitsIcESaIcEEEEEbSt17basic_string_viewIcS5_E
FNDA:125647,_ZNK7libMesh10Parameters14have_parameterINSt7__cxx1112basic_stringIcSt11char_traitsIcESaIcEEEEEbSt17basic_string_viewIcS5_E
FN:424,_ZNK7libMesh10Parameters3getI20MaterialPropertyNameEERKT_St17basic_string_viewIcSt11char_traitsIcEE
FNDA:989,_ZNK7libMesh10Parameters3getI20MaterialPropertyNameEERKT_St17basic_string_viewIcSt11char_traitsIcEE
FN:424,_ZNK7libMesh10Parameters3getINSt7__cxx1112basic_stringIcSt11char_traitsIcESaIcEEEEERKT_St17basic_string_viewIcS5_E
FNDA:285,_ZNK7libMesh10Parameters3getINSt7__cxx1112basic_stringIcSt11char_traitsIcESaIcEEEEERKT_St17basic_string_viewIcS5_E
FN:452,_ZN7libMesh10Parameters6insertINSt7__cxx1112basic_stringIcSt11char_traitsIcESaIcEEEEEvRKS7_
FNDA:51142,_ZN7libMesh10Parameters6insertINSt7__cxx1112basic_stringIcSt11char_traitsIcESaIcEEEEEvRKS7_
FNF:15
FNH:10
DA:132,0
DA:200,359886
DA:207,1274
DA:285,19672
DA:287,19672
DA:293,5217
DA:297,5217
DA:301,309058
DA:303,309058
DA:307,309058
DA:309,309058
DA:316,5101
DA:318,12837
DA:322,7736
DA:323,7736
DA:325,7736
DA:327,5101
DA:332,0
DA:334,0
DA:335,0
DA:337,0
DA:341,0
DA:343,0
DA:345,0
DA:346,0
DA:347,0
DA:350,0
DA:362,0
DA:365,0
DA:362,10202
DA:364,5101
DA:365,5101
DA:370,0
DA:375,0
DA:376,0
DA:380,0
DA:382,0
DA:383,0
DA:387,0
DA:397,0
DA:398,0
DA:405,989
DA:409,989
DA:411,989
DA:415,989
DA:405,125647
DA:409,125647
DA:411,74819
DA:415,74819
DA:424,989
DA:426,989
DA:428,0
DA:430,0
DA:432,0
DA:436,0
DA:439,0
DA:447,989
DA:424,285
DA:426,285
DA:428,0
DA:430,0
DA:432,0
DA:436,0
DA:439,0
DA:447,285
DA:452,51142
DA:454,51142
DA:455,101656
DA:457,51142
DA:458,51142
LF:70
LH:38
end_of_record
SF:/usr/share/miniconda/envs/moose/x86_64-conda-linux-gnu/include/c++/10.3.0/bits/stl_iterator_base_funcs.h
DA:104,1757290
LF:1
LH:1
end_of_record
SF:/usr/share/miniconda/envs/moose/libmesh/include/libmesh/libmesh_exceptions.h
DA:42,0
LF:1
LH:0
end_of_record
SF:/usr/share/miniconda/envs/moose/x86_64-conda-linux-gnu/include/c++/10.3.0/initializer_list
DA:71,259387
DA:79,259387
LF:2
LH:2
end_of_record
SF:/usr/share/miniconda/envs/moose/libmesh/include/libmesh/reference_counter.h
DA:152,359886
LF:1
LH:1
end_of_record
SF:/usr/share/miniconda/envs/moose/x86_64-conda-linux-gnu/include/c++/10.3.0/ostream
DA:113,0
DA:518,0
LF:2
LH:0
end_of_record
SF:/usr/share/miniconda/envs/moose/x86_64-conda-linux-gnu/include/c++/10.3.0/bits/stl_function.h
FN:600,_ZNSt4lessIvE6_S_cmpIRKNSt7__cxx1112basic_stringIcSt11char_traitsIcESaIcEEERKSt17basic_string_viewIcS5_EEEDcOT_OT0_St17integral_constantIbLb0EE
FNDA:12926100,_ZNSt4lessIvE6_S_cmpIRKNSt7__cxx1112basic_stringIcSt11char_traitsIcESaIcEEERKSt17basic_string_viewIcS5_EEEDcOT_OT0_St17integral_constantIbLb0EE
FN:600,_ZNSt4lessIvE6_S_cmpIRKSt17basic_string_viewIcSt11char_traitsIcEERKNSt7__cxx1112basic_stringIcS4_SaIcEEEEEDcOT_OT0_St17integral_constantIbLb0EE
FNDA:2597650,_ZNSt4lessIvE6_S_cmpIRKSt17basic_string_viewIcSt11char_traitsIcEERKNSt7__cxx1112basic_stringIcS4_SaIcEEEEEDcOT_OT0_St17integral_constantIbLb0EE
FNF:2
FNH:2
DA:586,15523800
DA:600,12926100
DA:601,12926100
DA:600,2597650
DA:601,2597650
DA:1156,87270400
LF:6
LH:6
end_of_record
SF:/home/runner/work/raccoon/raccoon/moose/framework/build/header_symlinks/InputParameters.h
FN:52,_ZN15InputParametersD0Ev
FNDA:0,_ZN15InputParametersD0Ev
FN:52,_ZN15InputParametersD2Ev
FNDA:5101,_ZN15InputParametersD2Ev
FN:1270,_ZN15InputParameters8addParamINSt7__cxx1112basic_stringIcSt11char_traitsIcESaIcEEEEEvRKS6_S8_
FNDA:51142,_ZN15InputParameters8addParamINSt7__cxx1112basic_stringIcSt11char_traitsIcESaIcEEEEEvRKS6_S8_
FN:1404,_ZNK15InputParameters19checkConsistentTypeINSt7__cxx1112basic_stringIcSt11char_traitsIcESaIcEEEEEvRKS6_
FNDA:1307100,_ZNK15InputParameters19checkConsistentTypeINSt7__cxx1112basic_stringIcSt11char_traitsIcESaIcEEEEEvRKS6_
FNF:4
FNH:3
DA:52,0
DA:52,15303
DA:1270,51142
DA:1272,51142
DA:1273,51142
DA:1275,51142
DA:1276,51142
DA:1277,51142
DA:1404,1307100
DA:1408,1307100
DA:1413,74220
DA:1414,0
DA:1419,0
LF:13
LH:10
end_of_record
SF:/usr/share/miniconda/envs/moose/x86_64-conda-linux-gnu/include/c++/10.3.0/bits/unordered_map.h
DA:102,10202
LF:1
LH:1
end_of_record
SF:/usr/share/miniconda/envs/moose/x86_64-conda-linux-gnu/include/c++/10.3.0/bits/hashtable.h
FN:411,_ZNSt10_HashtableINSt7__cxx1112basic_stringIcSt11char_traitsIcESaIcEEESt4pairIKS5_S5_ESaIS8_ENSt8__detail10_Select1stESt8equal_toIS5_ESt4hashIS5_ENSA_18_Mod_range_hashingENSA_20_Default_ranged_hashENSA_20_Prime_rehash_policyENSA_17_Hashtable_traitsILb1ELb0ELb1EEEE21_M_deallocate_bucketsEv
FNDA:5101,_ZNSt10_HashtableINSt7__cxx1112basic_stringIcSt11char_traitsIcESaIcEEESt4pairIKS5_S5_ESaIS8_ENSt8__detail10_Select1stESt8equal_toIS5_ESt4hashIS5_ENSA_18_Mod_range_hashingENSA_20_Default_ranged_hashENSA_20_Prime_rehash_policyENSA_17_Hashtable_traitsILb1ELb0ELb1EEEE21_M_deallocate_bucketsEv
FN:2026,_ZNSt10_HashtableINSt7__cxx1112basic_stringIcSt11char_traitsIcESaIcEEESt4pairIKS5_S5_ESaIS8_ENSt8__detail10_Select1stESt8equal_toIS5_ESt4hashIS5_ENSA_18_Mod_range_hashingENSA_20_Default_ranged_hashENSA_20_Prime_rehash_policyENSA_17_Hashtable_traitsILb1ELb0ELb1EEEE5clearEv
FNDA:0,_ZNSt10_HashtableINSt7__cxx1112basic_stringIcSt11char_traitsIcESaIcEEESt4pairIKS5_S5_ESaIS8_ENSt8__detail10_Select1stESt8equal_toIS5_ESt4hashIS5_ENSA_18_Mod_range_hashingENSA_20_Default_ranged_hashENSA_20_Prime_rehash_policyENSA_17_Hashtable_traitsILb1ELb0ELb1EEEE5clearEv
FNF:2
FNH:1
DA:380,5101
DA:404,5101
DA:411,5101
DA:412,5101
DA:421,0
DA:1387,5101
DA:1388,5101
DA:2026,0
DA:2031,0
DA:2032,0
DA:2033,0
DA:2034,0
LF:12
LH:6
end_of_record
SF:/home/runner/work/raccoon/raccoon/moose/framework/build/header_symlinks/MooseError.h
FN:155,_ZN5moose8internal14mooseStreamAllINSt7__cxx1112basic_stringIcSt11char_traitsIcESaIcEEEJRA2_KcEEEvRNS2_19basic_ostringstreamIcS5_S6_EEOT_DpOT0_
FNDA:0,_ZN5moose8internal14mooseStreamAllINSt7__cxx1112basic_stringIcSt11char_traitsIcESaIcEEEJRA2_KcEEEvRNS2_19basic_ostringstreamIcS5_S6_EEOT_DpOT0_
FN:155,_ZN5moose8internal14mooseStreamAllINSt7__cxx1112basic_stringIcSt11char_traitsIcESaIcEEEJRA45_KcS7_RA2_S8_EEEvRNS2_19basic_ostringstreamIcS5_S6_EEOT_DpOT0_
FNDA:0,_ZN5moose8internal14mooseStreamAllINSt7__cxx1112basic_stringIcSt11char_traitsIcESaIcEEEJRA45_KcS7_RA2_S8_EEEvRNS2_19basic_ostringstreamIcS5_S6_EEOT_DpOT0_
FN:155,_ZN5moose8internal14mooseStreamAllIRKNSt7__cxx1112basic_stringIcSt11char_traitsIcESaIcEEEJRA14_KcS7_RA45_SA_S7_RA2_SA_EEEvRNS2_19basic_ostringstreamIcS5_S6_EEOT_DpOT0_
FNDA:0,_ZN5moose8internal14mooseStreamAllIRKNSt7__cxx1112basic_stringIcSt11char_traitsIcESaIcEEEJRA14_KcS7_RA45_SA_S7_RA2_SA_EEEvRNS2_19basic_ostringstreamIcS5_S6_EEOT_DpOT0_
FN:254,_Z10mooseErrorIJRA30_KcRKNSt7__cxx1112basic_stringIcSt11char_traitsIcESaIcEEERA14_S0_S8_RA45_S0_S8_RA2_S0_EEvDpOT_
FNDA:0,_Z10mooseErrorIJRA30_KcRKNSt7__cxx1112basic_stringIcSt11char_traitsIcESaIcEEERA14_S0_S8_RA45_S0_S8_RA2_S0_EEvDpOT_
FNF:4
FNH:0
DA:155,0
DA:157,0
DA:158,0
DA:159,0
DA:155,0
DA:157,0
DA:158,0
DA:159,0
DA:155,0
DA:157,0
DA:158,0
DA:159,0
DA:157,0
DA:158,0
DA:159,0
DA:254,0
DA:256,0
DA:258,0
LF:18
LH:0
end_of_record
SF:/home/runner/work/raccoon/raccoon/build/header_symlinks/BaseNameInterface.h
FN:15,_ZN17BaseNameInterfaceD0Ev
FNDA:0,_ZN17BaseNameInterfaceD0Ev
FN:15,_ZN17BaseNameInterfaceD2Ev
FNDA:0,_ZN17BaseNameInterfaceD2Ev
FNF:2
FNH:0
DA:15,0
DA:15,0
LF:2
LH:0
end_of_record
SF:/usr/share/miniconda/envs/moose/x86_64-conda-linux-gnu/include/c++/10.3.0/bits/basic_string.tcc
FN:206,_ZNSt7__cxx1112basic_stringIcSt11char_traitsIcESaIcEE12_M_constructIPcEEvT_S7_St20forward_iterator_tag
FNDA:1488040,_ZNSt7__cxx1112basic_stringIcSt11char_traitsIcESaIcEE12_M_constructIPcEEvT_S7_St20forward_iterator_tag
FN:206,_ZNSt7__cxx1112basic_stringIcSt11char_traitsIcESaIcEE12_M_constructIPKcEEvT_S8_St20forward_iterator_tag
FNDA:9856,_ZNSt7__cxx1112basic_stringIcSt11char_traitsIcESaIcEE12_M_constructIPKcEEvT_S8_St20forward_iterator_tag
FNF:2
FNH:2
DA:206,1488040
DA:211,1488040
DA:212,0
DA:215,1488040
DA:217,1488040
DA:219,43680
DA:220,43680
DA:232,1488040
DA:233,1488040
DA:206,9856
DA:211,9856
DA:212,0
DA:215,9856
DA:217,9856
DA:219,4574
DA:220,4574
DA:232,9856
DA:233,9856
LF:18
LH:16
end_of_record
SF:/usr/share/miniconda/envs/moose/x86_64-conda-linux-gnu/include/c++/10.3.0/bits/stl_pair.h
DA:211,15472
LF:1
LH:1
end_of_record
SF:/usr/share/miniconda/envs/moose/x86_64-conda-linux-gnu/include/c++/10.3.0/bits/stl_map.h
FN:492,_ZNSt3mapINSt7__cxx1112basic_stringIcSt11char_traitsIcESaIcEEEN15InputParameters8MetadataESt4lessIS5_ESaISt4pairIKS5_S7_EEEixERSB_
FNDA:51142,_ZNSt3mapINSt7__cxx1112basic_stringIcSt11char_traitsIcESaIcEEEN15InputParameters8MetadataESt4lessIS5_ESaISt4pairIKS5_S7_EEEixERSB_
FN:492,_ZNSt3mapINSt7__cxx1112basic_stringIcSt11char_traitsIcESaIcEEEPN7libMesh10Parameters5ValueESt4lessIvESaISt4pairIKS5_S9_EEEixERSD_
FNDA:50828,_ZNSt3mapINSt7__cxx1112basic_stringIcSt11char_traitsIcESaIcEEEPN7libMesh10Parameters5ValueESt4lessIvESaISt4pairIKS5_S9_EEEixERSD_
FN:1258,_ZNSt3mapINSt7__cxx1112basic_stringIcSt11char_traitsIcESaIcEEEN15InputParameters8MetadataESt4lessIS5_ESaISt4pairIKS5_S7_EEE11lower_boundERSB_
FNDA:51142,_ZNSt3mapINSt7__cxx1112basic_stringIcSt11char_traitsIcESaIcEEEN15InputParameters8MetadataESt4lessIS5_ESaISt4pairIKS5_S7_EEE11lower_boundERSB_
FN:1258,_ZNSt3mapINSt7__cxx1112basic_stringIcSt11char_traitsIcESaIcEEEPN7libMesh10Parameters5ValueESt4lessIvESaISt4pairIKS5_S9_EEE11lower_boundERSD_
FNDA:50828,_ZNSt3mapINSt7__cxx1112basic_stringIcSt11char_traitsIcESaIcEEEPN7libMesh10Parameters5ValueESt4lessIvESaISt4pairIKS5_S9_EEE11lower_boundERSD_
FNF:4
FNH:4
DA:302,10202
DA:492,51142
DA:497,51142
DA:499,51142
DA:501,50828
DA:502,50828
DA:503,50828
DA:507,51142
DA:492,50828
DA:497,50828
DA:499,50828
DA:501,50828
DA:502,50828
DA:503,50828
DA:507,50828
DA:1038,7736
DA:1170,0
DA:1195,1307100
DA:1201,127910
DA:1258,51142
DA:1259,51142
DA:1258,50828
DA:1259,50828
LF:23
LH:22
end_of_record
SF:/usr/share/miniconda/envs/moose/x86_64-conda-linux-gnu/include/c++/10.3.0/tuple
FN:1689,_ZNSt4pairIKNSt7__cxx1112basic_stringIcSt11char_traitsIcESaIcEEEN15InputParameters8MetadataEEC2IJRS6_EJLm0EEJEJEEERSt5tupleIJDpT_EERSC_IJDpT1_EESt12_Index_tupleIJXspT0_EEESL_IJXspT2_EEE
FNDA:50828,_ZNSt4pairIKNSt7__cxx1112basic_stringIcSt11char_traitsIcESaIcEEEN15InputParameters8MetadataEEC2IJRS6_EJLm0EEJEJEEERSt5tupleIJDpT_EERSC_IJDpT1_EESt12_Index_tupleIJXspT0_EEESL_IJXspT2_EEE
FNF:1
FNH:1
DA:124,0
DA:129,152484
DA:130,101656
DA:166,152484
DA:520,0
DA:1677,50828
DA:1682,50828
DA:1689,101656
DA:1693,101656
DA:1694,50828
LF:10
LH:8
end_of_record
SF:/usr/share/miniconda/envs/moose/x86_64-conda-linux-gnu/include/c++/10.3.0/ext/aligned_buffer.h
DA:65,50828
LF:1
LH:1
end_of_record
SF:/usr/share/miniconda/envs/moose/x86_64-conda-linux-gnu/include/c++/10.3.0/string_view
FN:288,_ZNKSt17basic_string_viewIcSt11char_traitsIcEE7compareES2_
FNDA:15523800,_ZNKSt17basic_string_viewIcSt11char_traitsIcEE7compareES2_
FNF:1
FNH:1
DA:127,0
DA:129,0
DA:288,15523800
DA:290,15523800
DA:291,15523800
DA:292,15523800
DA:294,15523800
DA:461,692018
DA:462,692018
DA:464,692018
DA:466,692018
DA:550,2597650
DA:556,12926100
DA:621,0
LF:14
LH:11
end_of_record
SF:/home/runner/work/raccoon/raccoon/moose/framework/build/header_symlinks/MooseEnumItem.h
DA:24,0
LF:1
LH:0
end_of_record
SF:/home/runner/work/raccoon/raccoon/src/interfaces/BaseNameInterface.C
FN:8,_ZN17BaseNameInterface11validParamsEv
FNDA:4574,_ZN17BaseNameInterface11validParamsEv
FN:18,_ZN17BaseNameInterfaceC2ERK15InputParameters
FNDA:354,_ZN17BaseNameInterfaceC2ERK15InputParameters
FN:25,_ZNK17BaseNameInterface15prependBaseNameE20MaterialPropertyNameb
FNDA:1274,_ZNK17BaseNameInterface15prependBaseNameE20MaterialPropertyNameb
FN:33,_ZNK17BaseNameInterface15prependBaseNameERKSt6vectorI20MaterialPropertyNameSaIS1_EE
FNDA:42,_ZNK17BaseNameInterface15prependBaseNameERKSt6vectorI20MaterialPropertyNameSaIS1_EE
FNF:4
FNH:4
DA:8,4574
DA:10,4574
DA:11,9148
DA:15,4574
DA:18,354
DA:20,354
DA:22,354
DA:25,1274
DA:27,1274
DA:28,1368
DA:29,1180
DA:33,42
DA:36,42
DA:37,0
DA:38,42
LF:15
LH:14
end_of_record
SF:/usr/share/miniconda/envs/moose/x86_64-conda-linux-gnu/include/c++/10.3.0/bits/locale_facets.h
FN:872,_ZNKSt5ctypeIcE5widenEc
FNDA:0,_ZNKSt5ctypeIcE5widenEc
FN:1084,_ZNKSt5ctypeIcE8do_widenEc
FNDA:0,_ZNKSt5ctypeIcE8do_widenEc
FNF:2
FNH:0
DA:872,0
DA:874,0
DA:875,0
DA:876,0
DA:877,0
DA:1084,0
DA:1085,0
LF:7
LH:0
end_of_record
SF:/usr/share/miniconda/envs/moose/x86_64-conda-linux-gnu/include/c++/10.3.0/bits/stl_tree.h
FN:613,_ZNSt8_Rb_treeINSt7__cxx1112basic_stringIcSt11char_traitsIcESaIcEEESt4pairIKS5_N15InputParameters8MetadataEESt10_Select1stISA_ESt4lessIS5_ESaISA_EE17_M_construct_nodeIJRKSt21piecewise_construct_tSt5tupleIJRS7_EESL_IJEEEEEvPSt13_Rb_tree_nodeISA_EDpOT_
FNDA:50828,_ZNSt8_Rb_treeINSt7__cxx1112basic_stringIcSt11char_traitsIcESaIcEEESt4pairIKS5_N15InputParameters8MetadataEESt10_Select1stISA_ESt4lessIS5_ESaISA_EE17_M_construct_nodeIJRKSt21piecewise_construct_tSt5tupleIJRS7_EESL_IJEEEEEvPSt13_Rb_tree_nodeISA_EDpOT_
FN:613,_ZNSt8_Rb_treeINSt7__cxx1112basic_stringIcSt11char_traitsIcESaIcEEESt4pairIKS5_PN7libMesh10Parameters5ValueEESt10_Select1stISC_ESt4lessIvESaISC_EE17_M_construct_nodeIJRKSt21piecewise_construct_tSt5tupleIJRS7_EESN_IJEEEEEvPSt13_Rb_tree_nodeISC_EDpOT_
FNDA:50828,_ZNSt8_Rb_treeINSt7__cxx1112basic_stringIcSt11char_traitsIcESaIcEEESt4pairIKS5_PN7libMesh10Parameters5ValueEESt10_Select1stISC_ESt4lessIvESaISC_EE17_M_construct_nodeIJRKSt21piecewise_construct_tSt5tupleIJRS7_EESN_IJEEEEEvPSt13_Rb_tree_nodeISC_EDpOT_
FN:632,_ZNSt8_Rb_treeINSt7__cxx1112basic_stringIcSt11char_traitsIcESaIcEEESt4pairIKS5_PN7libMesh10Parameters5ValueEESt10_Select1stISC_ESt4lessIvESaISC_EE14_M_create_nodeIJRKSt21piecewise_construct_tSt5tupleIJRS7_EESN_IJEEEEEPSt13_Rb_tree_nodeISC_EDpOT_
FNDA:50828,_ZNSt8_Rb_treeINSt7__cxx1112basic_stringIcSt11char_traitsIcESaIcEEESt4pairIKS5_PN7libMesh10Parameters5ValueEESt10_Select1stISC_ESt4lessIvESaISC_EE14_M_create_nodeIJRKSt21piecewise_construct_tSt5tupleIJRS7_EESN_IJEEEEEPSt13_Rb_tree_nodeISC_EDpOT_
FN:632,_ZNSt8_Rb_treeINSt7__cxx1112basic_stringIcSt11char_traitsIcESaIcEEESt4pairIKS5_N15InputParameters8MetadataEESt10_Select1stISA_ESt4lessIS5_ESaISA_EE14_M_create_nodeIJRKSt21piecewise_construct_tSt5tupleIJRS7_EESL_IJEEEEEPSt13_Rb_tree_nodeISA_EDpOT_
FNDA:50828,_ZNSt8_Rb_treeINSt7__cxx1112basic_stringIcSt11char_traitsIcESaIcEEESt4pairIKS5_N15InputParameters8MetadataEESt10_Select1stISA_ESt4lessIS5_ESaISA_EE14_M_create_nodeIJRKSt21piecewise_construct_tSt5tupleIJRS7_EESL_IJEEEEEPSt13_Rb_tree_nodeISA_EDpOT_
FN:652,_ZNSt8_Rb_treeI13MooseEnumItemS0_St9_IdentityIS0_ESt4lessIS0_ESaIS0_EE12_M_drop_nodeEPSt13_Rb_tree_nodeIS0_E
FNDA:0,_ZNSt8_Rb_treeI13MooseEnumItemS0_St9_IdentityIS0_ESt4lessIS0_ESaIS0_EE12_M_drop_nodeEPSt13_Rb_tree_nodeIS0_E
FN:652,_ZNSt8_Rb_treeINSt7__cxx1112basic_stringIcSt11char_traitsIcESaIcEEESt4pairIKS5_N15InputParameters8MetadataEESt10_Select1stISA_ESt4lessIS5_ESaISA_EE12_M_drop_nodeEPSt13_Rb_tree_nodeISA_E
FNDA:7736,_ZNSt8_Rb_treeINSt7__cxx1112basic_stringIcSt11char_traitsIcESaIcEEESt4pairIKS5_N15InputParameters8MetadataEESt10_Select1stISA_ESt4lessIS5_ESaISA_EE12_M_drop_nodeEPSt13_Rb_tree_nodeISA_E
FN:1211,_ZNSt8_Rb_treeINSt7__cxx1112basic_stringIcSt11char_traitsIcESaIcEEESt4pairIKS5_PN7libMesh10Parameters5ValueEESt10_Select1stISC_ESt4lessIvESaISC_EE5eraseB5cxx11ESt17_Rb_tree_iteratorISC_E
FNDA:7736,_ZNSt8_Rb_treeINSt7__cxx1112basic_stringIcSt11char_traitsIcESaIcEEESt4pairIKS5_PN7libMesh10Parameters5ValueEESt10_Select1stISC_ESt4lessIvESaISC_EE5eraseB5cxx11ESt17_Rb_tree_iteratorISC_E
FN:1310,_ZNKSt8_Rb_treeINSt7__cxx1112basic_stringIcSt11char_traitsIcESaIcEEESt4pairIKS5_PN7libMesh10Parameters5ValueEESt10_Select1stISC_ESt4lessIvESaISC_EE10_M_find_trISt17basic_string_viewIcS3_EvEESt23_Rb_tree_const_iteratorISC_ERKT_
FNDA:3248430,_ZNKSt8_Rb_treeINSt7__cxx1112basic_stringIcSt11char_traitsIcESaIcEEESt4pairIKS5_PN7libMesh10Parameters5ValueEESt10_Select1stISC_ESt4lessIvESaISC_EE10_M_find_trISt17basic_string_viewIcS3_EvEESt23_Rb_tree_const_iteratorISC_ERKT_
FN:1339,_ZNKSt8_Rb_treeINSt7__cxx1112basic_stringIcSt11char_traitsIcESaIcEEESt4pairIKS5_PN7libMesh10Parameters5ValueEESt10_Select1stISC_ESt4lessIvESaISC_EE17_M_lower_bound_trISt17basic_string_viewIcS3_EvEESt23_Rb_tree_const_iteratorISC_ERKT_
FNDA:3248430,_ZNKSt8_Rb_treeINSt7__cxx1112basic_stringIcSt11char_traitsIcESaIcEEESt4pairIKS5_PN7libMesh10Parameters5ValueEESt10_Select1stISC_ESt4lessIvESaISC_EE17_M_lower_bound_trISt17basic_string_viewIcS3_EvEESt23_Rb_tree_const_iteratorISC_ERKT_
FN:1913,_ZNSt8_Rb_treeINSt7__cxx1112basic_stringIcSt11char_traitsIcESaIcEEESt4pairIKS5_PN7libMesh10Parameters5ValueEESt10_Select1stISC_ESt4lessIvESaISC_EE8_M_eraseEPSt13_Rb_tree_nodeISC_E
FNDA:5101,_ZNSt8_Rb_treeINSt7__cxx1112basic_stringIcSt11char_traitsIcESaIcEEESt4pairIKS5_PN7libMesh10Parameters5ValueEESt10_Select1stISC_ESt4lessIvESaISC_EE8_M_eraseEPSt13_Rb_tree_nodeISC_E
FN:1913,_ZNSt8_Rb_treeINSt7__cxx1112basic_stringIcSt11char_traitsIcESaIcEEESt4pairIKS5_N15InputParameters8MetadataEESt10_Select1stISA_ESt4lessIS5_ESaISA_EE8_M_eraseEPSt13_Rb_tree_nodeISA_E
FNDA:12837,_ZNSt8_Rb_treeINSt7__cxx1112basic_stringIcSt11char_traitsIcESaIcEEESt4pairIKS5_N15InputParameters8MetadataEESt10_Select1stISA_ESt4lessIS5_ESaISA_EE8_M_eraseEPSt13_Rb_tree_nodeISA_E
FN:1913,_ZNSt8_Rb_treeIttSt9_IdentityItESt4lessItESaItEE8_M_eraseEPSt13_Rb_tree_nodeItE
FNDA:481,_ZNSt8_Rb_treeIttSt9_IdentityItESt4lessItESaItEE8_M_eraseEPSt13_Rb_tree_nodeItE
FN:1913,_ZNSt8_Rb_treeIssSt9_IdentityIsESt4lessIsESaIsEE8_M_eraseEPSt13_Rb_tree_nodeIsE
FNDA:481,_ZNSt8_Rb_treeIssSt9_IdentityIsESt4lessIsESaIsEE8_M_eraseEPSt13_Rb_tree_nodeIsE
FN:1913,_ZNSt8_Rb_treeINSt7__cxx1112basic_stringIcSt11char_traitsIcESaIcEEES5_St9_IdentityIS5_ESt4lessIS5_ESaIS5_EE8_M_eraseEPSt13_Rb_tree_nodeIS5_E
FNDA:12837,_ZNSt8_Rb_treeINSt7__cxx1112basic_stringIcSt11char_traitsIcESaIcEEES5_St9_IdentityIS5_ESt4lessIS5_ESaIS5_EE8_M_eraseEPSt13_Rb_tree_nodeIS5_E
FN:1913,_ZNSt8_Rb_treeI13MooseEnumItemS0_St9_IdentityIS0_ESt4lessIS0_ESaIS0_EE8_M_eraseEPSt13_Rb_tree_nodeIS0_E
FNDA:7736,_ZNSt8_Rb_treeI13MooseEnumItemS0_St9_IdentityIS0_ESt4lessIS0_ESaIS0_EE8_M_eraseEPSt13_Rb_tree_nodeIS0_E
FN:1930,_ZNSt8_Rb_treeINSt7__cxx1112basic_stringIcSt11char_traitsIcESaIcEEESt4pairIKS5_N15InputParameters8MetadataEESt10_Select1stISA_ESt4lessIS5_ESaISA_EE14_M_lower_boundEPSt13_Rb_tree_nodeISA_EPSt18_Rb_tree_node_baseRS7_
FNDA:51142,_ZNSt8_Rb_treeINSt7__cxx1112basic_stringIcSt11char_traitsIcESaIcEEESt4pairIKS5_N15InputParameters8MetadataEESt10_Select1stISA_ESt4lessIS5_ESaISA_EE14_M_lower_boundEPSt13_Rb_tree_nodeISA_EPSt18_Rb_tree_node_baseRS7_
FN:1930,_ZNSt8_Rb_treeINSt7__cxx1112basic_stringIcSt11char_traitsIcESaIcEEESt4pairIKS5_PN7libMesh10Parameters5ValueEESt10_Select1stISC_ESt4lessIvESaISC_EE14_M_lower_boundEPSt13_Rb_tree_nodeISC_EPSt18_Rb_tree_node_baseRS7_
FNDA:50828,_ZNSt8_Rb_treeINSt7__cxx1112basic_stringIcSt11char_traitsIcESaIcEEESt4pairIKS5_PN7libMesh10Parameters5ValueEESt10_Select1stISC_ESt4lessIvESaISC_EE14_M_lower_boundEPSt13_Rb_tree_nodeISC_EPSt18_Rb_tree_node_baseRS7_
FN:1946,_ZNKSt8_Rb_treeINSt7__cxx1112basic_stringIcSt11char_traitsIcESaIcEEESt4pairIKS5_PN7libMesh10Parameters5ValueEESt10_Select1stISC_ESt4lessIvESaISC_EE14_M_lower_boundEPKSt13_Rb_tree_nodeISC_EPKSt18_Rb_tree_node_baseRS7_
FNDA:13827600,_ZNKSt8_Rb_treeINSt7__cxx1112basic_stringIcSt11char_traitsIcESaIcEEESt4pairIKS5_PN7libMesh10Parameters5ValueEESt10_Select1stISC_ESt4lessIvESaISC_EE14_M_lower_boundEPKSt13_Rb_tree_nodeISC_EPKSt18_Rb_tree_node_baseRS7_
FN:2091,_ZNSt8_Rb_treeINSt7__cxx1112basic_stringIcSt11char_traitsIcESaIcEEESt4pairIKS5_PN7libMesh10Parameters5ValueEESt10_Select1stISC_ESt4lessIvESaISC_EE24_M_get_insert_unique_posERS7_
FNDA:0,_ZNSt8_Rb_treeINSt7__cxx1112basic_stringIcSt11char_traitsIcESaIcEEESt4pairIKS5_PN7libMesh10Parameters5ValueEESt10_Select1stISC_ESt4lessIvESaISC_EE24_M_get_insert_unique_posERS7_
FN:2091,_ZNSt8_Rb_treeINSt7__cxx1112basic_stringIcSt11char_traitsIcESaIcEEESt4pairIKS5_N15InputParameters8MetadataEESt10_Select1stISA_ESt4lessIS5_ESaISA_EE24_M_get_insert_unique_posERS7_
FNDA:1211270,_ZNSt8_Rb_treeINSt7__cxx1112basic_stringIcSt11char_traitsIcESaIcEEESt4pairIKS5_N15InputParameters8MetadataEESt10_Select1stISA_ESt4lessIS5_ESaISA_EE24_M_get_insert_unique_posERS7_
FN:2193,_ZNSt8_Rb_treeINSt7__cxx1112basic_stringIcSt11char_traitsIcESaIcEEESt4pairIKS5_N15InputParameters8MetadataEESt10_Select1stISA_ESt4lessIS5_ESaISA_EE29_M_get_insert_hint_unique_posESt23_Rb_tree_const_iteratorISA_ERS7_
FNDA:9895350,_ZNSt8_Rb_treeINSt7__cxx1112basic_stringIcSt11char_traitsIcESaIcEEESt4pairIKS5_N15InputParameters8MetadataEESt10_Select1stISA_ESt4lessIS5_ESaISA_EE29_M_get_insert_hint_unique_posESt23_Rb_tree_const_iteratorISA_ERS7_
FN:2193,_ZNSt8_Rb_treeINSt7__cxx1112basic_stringIcSt11char_traitsIcESaIcEEESt4pairIKS5_PN7libMesh10Parameters5ValueEESt10_Select1stISC_ESt4lessIvESaISC_EE29_M_get_insert_hint_unique_posESt23_Rb_tree_const_iteratorISC_ERS7_
FNDA:0,_ZNSt8_Rb_treeINSt7__cxx1112basic_stringIcSt11char_traitsIcESaIcEEESt4pairIKS5_PN7libMesh10Parameters5ValueEESt10_Select1stISC_ESt4lessIvESaISC_EE29_M_get_insert_hint_unique_posESt23_Rb_tree_const_iteratorISC_ERS7_
FN:2360,_ZNSt8_Rb_treeINSt7__cxx1112basic_stringIcSt11char_traitsIcESaIcEEESt4pairIKS5_N15InputParameters8MetadataEESt10_Select1stISA_ESt4lessIS5_ESaISA_EE14_M_insert_nodeEPSt18_Rb_tree_node_baseSI_PSt13_Rb_tree_nodeISA_E
FNDA:50828,_ZNSt8_Rb_treeINSt7__cxx1112basic_stringIcSt11char_traitsIcESaIcEEESt4pairIKS5_N15InputParameters8MetadataEESt10_Select1stISA_ESt4lessIS5_ESaISA_EE14_M_insert_nodeEPSt18_Rb_tree_node_baseSI_PSt13_Rb_tree_nodeISA_E
FN:2360,_ZNSt8_Rb_treeINSt7__cxx1112basic_stringIcSt11char_traitsIcESaIcEEESt4pairIKS5_PN7libMesh10Parameters5ValueEESt10_Select1stISC_ESt4lessIvESaISC_EE14_M_insert_nodeEPSt18_Rb_tree_node_baseSK_PSt13_Rb_tree_nodeISC_E
FNDA:50828,_ZNSt8_Rb_treeINSt7__cxx1112basic_stringIcSt11char_traitsIcESaIcEEESt4pairIKS5_PN7libMesh10Parameters5ValueEESt10_Select1stISC_ESt4lessIvESaISC_EE14_M_insert_nodeEPSt18_Rb_tree_node_baseSK_PSt13_Rb_tree_nodeISC_E
FN:2458,_ZNSt8_Rb_treeINSt7__cxx1112basic_stringIcSt11char_traitsIcESaIcEEESt4pairIKS5_N15InputParameters8MetadataEESt10_Select1stISA_ESt4lessIS5_ESaISA_EE22_M_emplace_hint_uniqueIJRKSt21piecewise_construct_tSt5tupleIJRS7_EESL_IJEEEEESt17_Rb_tree_iteratorISA_ESt23_Rb_tree_const_iteratorISA_EDpOT_
FNDA:50828,_ZNSt8_Rb_treeINSt7__cxx1112basic_stringIcSt11char_traitsIcESaIcEEESt4pairIKS5_N15InputParameters8MetadataEESt10_Select1stISA_ESt4lessIS5_ESaISA_EE22_M_emplace_hint_uniqueIJRKSt21piecewise_construct_tSt5tupleIJRS7_EESL_IJEEEEESt17_Rb_tree_iteratorISA_ESt23_Rb_tree_const_iteratorISA_EDpOT_
FN:2458,_ZNSt8_Rb_treeINSt7__cxx1112basic_stringIcSt11char_traitsIcESaIcEEESt4pairIKS5_PN7libMesh10Parameters5ValueEESt10_Select1stISC_ESt4lessIvESaISC_EE22_M_emplace_hint_uniqueIJRKSt21piecewise_construct_tSt5tupleIJRS7_EESN_IJEEEEESt17_Rb_tree_iteratorISC_ESt23_Rb_tree_const_iteratorISC_EDpOT_
FNDA:50828,_ZNSt8_Rb_treeINSt7__cxx1112basic_stringIcSt11char_traitsIcESaIcEEESt4pairIKS5_PN7libMesh10Parameters5ValueEESt10_Select1stISC_ESt4lessIvESaISC_EE22_M_emplace_hint_uniqueIJRKSt21piecewise_construct_tSt5tupleIJRS7_EESN_IJEEEEESt17_Rb_tree_iteratorISC_ESt23_Rb_tree_const_iteratorISC_EDpOT_
FN:2510,_ZNSt8_Rb_treeINSt7__cxx1112basic_stringIcSt11char_traitsIcESaIcEEESt4pairIKS5_PN7libMesh10Parameters5ValueEESt10_Select1stISC_ESt4lessIvESaISC_EE12_M_erase_auxESt23_Rb_tree_const_iteratorISC_E
FNDA:7736,_ZNSt8_Rb_treeINSt7__cxx1112basic_stringIcSt11char_traitsIcESaIcEEESt4pairIKS5_PN7libMesh10Parameters5ValueEESt10_Select1stISC_ESt4lessIvESaISC_EE12_M_erase_auxESt23_Rb_tree_const_iteratorISC_E
FN:2550,_ZNSt8_Rb_treeINSt7__cxx1112basic_stringIcSt11char_traitsIcESaIcEEESt4pairIKS5_PN7libMesh10Parameters5ValueEESt10_Select1stISC_ESt4lessIvESaISC_EE4findERS7_
FNDA:0,_ZNSt8_Rb_treeINSt7__cxx1112basic_stringIcSt11char_traitsIcESaIcEEESt4pairIKS5_PN7libMesh10Parameters5ValueEESt10_Select1stISC_ESt4lessIvESaISC_EE4findERS7_
FN:2563,_ZNKSt8_Rb_treeINSt7__cxx1112basic_stringIcSt11char_traitsIcESaIcEEESt4pairIKS5_PN7libMesh10Parameters5ValueEESt10_Select1stISC_ESt4lessIvESaISC_EE4findERS7_
FNDA:13827600,_ZNKSt8_Rb_treeINSt7__cxx1112basic_stringIcSt11char_traitsIcESaIcEEESt4pairIKS5_PN7libMesh10Parameters5ValueEESt10_Select1stISC_ESt4lessIvESaISC_EE4findERS7_
FNF:29
FNH:25
DA:287,0
DA:302,5772020
DA:303,0
DA:350,109392
DA:351,101656
DA:355,9895350
DA:368,0
DA:369,0
DA:571,50828
DA:613,50828
DA:622,0
DA:624,0
DA:626,0
DA:628,50828
DA:613,50828
DA:622,0
DA:624,0
DA:626,0
DA:628,50828
DA:632,50828
DA:635,50828
DA:636,50828
DA:632,50828
DA:635,50828
DA:636,50828
DA:647,15472
DA:652,0
DA:656,0
DA:652,7736
DA:656,7736
DA:749,1329510
DA:755,17076000
DA:760,11295900
DA:764,17076000
DA:790,181006
DA:794,30130200
DA:798,244560
DA:802,28489500
DA:991,11164
